(lp0
S'/app/evernote-food/com.evernote.food'
p1
aS'/app/%D8%B5%D9%84%D8%A7%D8%AA%D9%83-salatuk-%28prayer-time%29/com.masarat.salati'
p2
aS'/app/zillow-real-estate-rentals/com.zillow.android.zillowmap'
p3
aS'/app/%D8%B7%D8%B1%D9%8A%D9%82%D8%A9-%D8%B9%D9%85%D9%84-%D8%A7%D9%84%D8%A8%D9%8A%D8%AA%D8%B2%D8%A7-%D8%A8%D8%A3%D9%86%D9%88%D8%A7%D8%B9%D9%87%D8%A7/geekshouse.app83'
p4
aS'/app/houzz-interior-design-ideas/com.houzz.app'
p5
aS'/app/starbucks/com.starbucks.mobilecard'
p6
aS'/app/optimize-master/com.androidloard.optimizemaster'
p7
aS'/app/mobile-de-mobile-auto-b%C3%B6rse/de.mobile.android.app'
p8
aS'/app/mirror/mmapps.mirror.free'
p9
aS'/app/ikea/com.ikea.app'
p10
aS'/app/dominos-pizza-usa/com.dominospizza'
p11
aS'/app/app-del-giorno-100%25-gratis/com.appturbo.appturboIT'
p12
aS'/app/starbucks-hong-kong/com.starbucks.hk'
p13
aS'/app/sleep-as-android/com.urbandroid.sleep'
p14
aS'/app/alarm-clock-plus%E2%98%85/com.vp.alarmClockPlusDock'
p15
aS'/app/%D9%88%D8%B5%D9%81%D8%A7%D8%AA-%D9%85%D8%B9%D9%83%D8%B1%D9%88%D9%86%D8%A9-%D9%81%D9%8A-%D9%85%D9%83%D8%B1%D9%88%D9%86%D8%A9/geekshouse.app62'
p16
aS'/app/%D9%85%D9%83%D9%8A%D8%A7%D8%AC-%D8%AC%D9%88%D9%8A%D9%84/com.arabdroidz.joelMakeup'
p17
aS'/app/%D8%A3%D8%AF%D8%B9%D9%8A%D8%A9-%D9%88%D8%A3%D8%B0%D9%83%D8%A7%D8%B1-%D8%AD%D8%B5%D9%86-%D8%A7%D9%84%D9%85%D8%B3%D9%84%D9%85/com.hisn.almuslim'
p18
aS'/app/gumtree/com.gumtree.android'
p19
aS'/app/real-estate-homes-by-trulia/com.trulia.android'
p20
aS'/app/todays-free-app/com.tfa.tfaus'
p21
aS'/app/tarot-cards-and-horoscope/com.magic.tarot.cards'
p22
aS'/app/ebay-kleinanzeigen-for-germany/com.ebay.kleinanzeigen'
p23
aS'/app/pizza-hut/com.yum.pizzahut'
p24
aS'/app/realtor-com-real-estate-homes/com.move.realtor'
p25
aS'/app/gumtree-australia/com.ebay.gumtree.au'
p26
aS'/app/%D8%AF%D9%8A%D9%83%D9%88%D8%B1-%D8%BA%D8%B1%D9%81-%D9%86%D9%88%D9%85-2013-%D8%A8%D8%A7%D9%84%D8%B5%D9%88%D8%B1/geekshouse.app63'
p27
aS'/app/mirror/com.fulminesoftware.mirror'
p28
aS'/app/vivino-wine-scanner/vivino.web.app'
p29
aS'/app/dailyhoroscope/info.androidz.horoscope'
p30
aS'/app/just-eat/com.justeat.app.uk'
p31
aS'/app/kbb-com-car-prices-reviews/com.kbb.mobile'
p32
aS'/app/rightmove/com.rightmove.android'
p33
aS'/app/great-clips-online-check-in/com.greatclips.android'
p34
aS'/app/%D8%A7%D9%84%D9%85%D8%B9%D8%AC%D9%86%D8%A7%D8%AA-%D9%88%D8%A7%D9%84%D9%81%D8%B7%D8%A7%D8%A6%D8%B1/cleopatra.webview.jil_app12'
p35
aS'/app/leboncoin/fr.leboncoin'
p36
aS'/app/c%E2%80%A2mobile-craigslist-client/craigslist.pro.free'
p37
aS'/app/dolphin-browser%C2%AE-mini/com.dolphin.browser'
p38
aS'/app/%D8%AD%D9%84%D9%88%D9%8A%D8%A7%D8%AA-%D8%A7%D9%84%D8%B4%D9%8A%D9%81-%D8%A3%D8%B3%D8%A7%D9%85%D8%A9-%D8%A7%D9%84%D8%B3%D9%8A%D8%AF/geekshouse.doa_app103'
p39
aS'/app/days-left-widget/de.leihwelt.android.daysleft'
p40
aS'/app/%D8%B5%D9%88%D8%B1-%D8%AD%D8%A8-%D9%88-%D8%B1%D9%88%D9%85%D8%A7%D9%86%D8%B3%D9%8A%D8%A9-%D8%B1%D9%88%D8%B9%D8%A9/magicbox.app1'
p41
aS'/app/aaa-mobile/com.aaa.android.discounts'
p42
aS'/app/prayer-times-%28qibla-compass%29/com.muslimtoolbox.app.android.prayertimes'
p43
aS'/app/papa-johns-pizza/com.papajohns.android'
p44
aS'/app/quikr-free-local-classifieds/com.quikr'
p45
aS'/app/how-to-design-hairstyle/cn.wshuo.zhatoufa'
p46
aS'/app/7-eleven-inc/com.sei.android'
p47
aS'/app/thuisbezorgd-nl/com.takeaway.android'
p48
aS'/app/magnificent-magnifier-hd/cps.mmxi.magnifier'
p49
aS'/app/autoscout24-used-car-finder/com.autoscout24'
p50
aS'/app/autotrader-com/com.autotrader.android'
p51
aS'/app/ikea-catalogue/com.ikea.catalogue.android'
p52
aS'/app/galaxy-gift/com.samsung.privilege'
p53
aS'/app/evernote-hello/com.evernote.hello'
p54
aS'/app/kijiji-free-local-classifieds/com.ebay.kijiji.ca'
p55
aS'/app/al-moazin-lite-%28prayer-times%29/com.parfield.prayers.lite'
p56
aS'/app/diaro-personal-diary/com.pixelcrater.Diaro'
p57
aS'/app/%D8%AA%D8%B9%D9%84%D9%85%D9%89-%D8%A7%D9%84%D9%83%D9%8A%D9%83-%D8%A8%D8%A3%D9%86%D9%88%D8%A7%D8%B9%D9%87/geekshouse.app71'
p58
aS'/app/zara/com.inditex.zara'
p59
aS'/app/%D8%A7%D9%84%D8%B1%D9%82%D9%8A%D8%A9-%D8%A7%D9%84%D8%B4%D8%B1%D8%B9%D9%8A%D8%A9/com.rootdev.roqya'
p60
aS'/app/redfin-real-estate/com.redfin.android'
p61
aS'/app/square-wallet/com.squareup.cardcase'
p62
aS'/app/kohls/com.kohls.mcommerce.phone'
p63
aS'/app/paginegialle/com.opentecheng.paginegialle.dream'
p64
aS'/app/santa-biblia-reina-valera-1960/lmontt.cl'
p65
aS'/app/my-chef-offline-easy-recipes/com.vimtec.apps.indian.recipes'
p66
aS'/app/%D9%8A%D9%85%D9%86-%D9%81%D9%88%D9%86-yemen-phone/com.calls.yemenfon'
p67
aS'/app/auto-trader/uk.co.autotrader.androidconsumersearch'
p68
aS'/app/galaxy-tarot/com.hemisphere3.tarot'
p69
aS'/app/payback-mobil/de.payback.client.android'
p70
aS'/app/%EC%B9%B4%EC%B9%B4%EC%98%A4%ED%8E%98%EC%9D%B4%EC%A7%80-kakaopage/com.kakao.page'
p71
aS'/app/bikhir-ma/se.scmv.morocco'
p72
aS'/app/sleep-as-android-unlock/com.urbandroid.sleep.full.key'
p73
aS'/app/carmax/com.carmax.carmax'
p74
aS'/app/h-m/com.hm'
p75
aS'/app/%D8%A3%D9%83%D9%84%D8%A7%D8%AA-%D8%A7%D9%84%D8%AF%D8%AC%D8%A7%D8%AC/cleopatra.webview.jil_app18'
p76
aS'/app/%D9%85%D9%86%D8%A7%D8%B3%D9%83-%D8%A7%D9%84%D8%AD%D8%AC-%D9%88%D8%A7%D9%84%D8%B9%D9%85%D8%B1%D8%A9/com.rootdev.alhajj'
p77
aS'/app/area-clienti-3/it.h3g.areaclienti3'
p78
aS'/app/%D8%B4%D9%81%D8%B1%D8%A7%D8%AA-%D8%A7%D9%84%D9%85%D8%B2%D8%B1%D8%B9%D8%A9-%D8%A7%D9%84%D8%B3%D8%B9%D9%8A%D8%AF%D8%A9-2013/magicbox.app4'
p79
aS'/app/%E2%99%A5-%D8%A7%D8%AD%D9%84%D9%89-100-%D8%B7%D8%A8%D9%82-%D8%AD%D9%84%D9%88%D9%8A%D8%A7%D8%AA-%E2%99%A5/geekshouse.jil_app95'
p80
aS'/app/bigoven%3A-250-000-recipes/com.bigoven.android'
p81
aS'/app/%D8%A7%D8%B5%D9%86%D8%B9%D9%89-%D8%A7%D8%B3%D8%A7%D9%88%D8%B1%D9%83-%D8%A8%D9%86%D9%81%D8%B3%D9%83/com.she.learn.m_u_bracelets'
p82
aS'/app/spr-check-status/com.gamepro.android.spr'
p83
aS'/app/%D8%A7%D8%B1%D9%88%D8%B9-%D8%A7%D9%84%D8%A3%D9%82%D9%88%D8%A7%D9%84-%D9%81%D9%8A-%D8%A7%D9%84%D8%AD%D9%8A%D8%A7%D9%87/abdo.akwal'
p84
aS'/app/%D8%A3%D8%AF%D8%B9%D9%8A%D8%A9-%D8%A7%D9%84%D8%A3%D9%86%D8%A8%D9%8A%D8%A7%D8%A1/doaa.anbyaa'
p85
aS'/app/%D9%81%D8%B7%D8%A7%D8%A6%D8%B1-%D9%88%D9%85%D8%B9%D8%AC%D9%86%D8%A7%D8%AA-%D8%A7%D8%B3%D8%A7%D9%85%D9%87-%D8%A7%D9%84%D8%B3%D9%8A%D8%AF/geekshouse.doa_app102'
p86
aS'/app/%D9%85%D8%B9%D9%84%D9%88%D9%85%D8%A9-%D8%B9%D9%84%D9%89-%D8%A7%D9%84%D8%B3%D8%B1%D9%8A%D8%B9/magicbox.app8'
p87
aS'/app/nest-mobile/com.nestlabs.android'
p88
aS'/app/openrice-hong-kong/com.openrice.android'
p89
aS'/app/garden-design-ideas/com.zalebox.garden.design.ideas.p1'
p90
aS'/app/garden-design-ideas/com.zalebox.garden.design.ideas.p1'
p91
aS'/app/your-magnifying-glass/com.yuvalluzon.yourmagnifier'
p92
aS'/app/must-have-recipes-from-bhg/com.meredith.redplaid'
p93
aS'/app/love-horoscopes/com.dailylovehoroscopes.net'
p94
aS'/app/peaceful-next-launcher-theme/com.gtp.nextlauncher.theme.peaceful'
p95
aS'/app/%D9%87%D9%85%D8%B3%D8%A7%D8%AA-%D8%B1%D9%88%D9%85%D8%A7%D9%86%D8%B3%D9%8A%D8%A9/com.vashouse.romanceapp'
p96
aS'/app/30%D9%86%D8%B5%D9%8A%D8%AD%D8%A9-%D9%84%D8%AA%D8%B5%D8%A8%D8%AD-%D8%A7%D9%83%D8%AB%D8%B1-%D8%B0%D9%83%D8%A7%D8%A1-%D9%88%D8%AA%D9%85%D9%8A%D8%B2%D8%A7/three.brain'
p97
aS'/app/relax-and-sleep/com.mizusoft.relaxandsleep'
p98
aS'/app/beersmith-2-mobile-homebrewing/com.beersmith.beersmith2full'
p99
aS'/app/kiwi-huskeliste/no.norgesgruppen.apps.kiwi'
p100
aS'/app/notebooks/com.sleepwalkers.notebooks'
p101
aS'/app/my-days-period-ovulation-%E2%84%A2/com.chris.mydays'
p102
aS'/app/horoscopes-for-facebook/com.rockyou.horoscopes'
p103
aS'/app/memoires%3A-the-diary/net.nakvic.dromoris'
p104
aS'/app/pch-sweeps/pch.apps.pchsweeps'
p105
aS'/app/whatsale-thailand/com.lord.of.deb.whatsalethailand'
p106
aS'/app/safeway/com.safeway.client.android.safeway'
p107
aS'/app/%D7%A4%D7%99%D7%99%D7%96-payz/com.artopay.client.android'
p108
aS'/app/instructables/com.adsk.instructables'
p109
aS'/app/%E2%99%A5-%D8%A3%D8%B4%D9%87%D8%B1-%D8%A8%D8%B1%D8%A7%D9%85%D8%AC-%D8%A7%D9%84%D8%B7%D8%A8%D8%AE-%D9%85%D9%86-%D9%81%D8%AA%D8%A7%D9%81%D9%8A%D8%AA-%E2%99%A5/geekshouse.jil_app96'
p110
aS'/app/chilis/com.brinker.chilis'
p111
aS'/app/clock-widget-%28pro-edition%29/com.euphratesmedia.clockwidget'
p112
aS'/app/rite-aid/com.riteaid.android'
p113
aS'/app/%D9%85%D9%82%D8%A8%D9%84%D8%A7%D8%AA/geekshouse.jil_app26'
p114
aS'/app/wrapp/com.wrapp.android'
p115
aS'/app/fridays/com.goanyware.tgif'
p116
aS'/app/%D8%AD%D8%B5%D9%86-%D8%A7%D9%84%D9%85%D8%B3%D9%84%D9%85/com.enpronomics.hesn'
p117
aS'/app/pc-plus/com.sap.mdc.loblaw.nativ'
p118
aS'/app/phone-genie-gsmarena-browser/com.apptuners.phonegenie'
p119
aS'/app/friday%3A-your-second-brain/com.dexetra.friday'
p120
aS'/app/whats-up/com.whats.up'
p121
aS'/app/hd-tattoo-designs-catalog/imagepro.hdtattoodesignspro'
p122
aS'/app/%D8%B9%D9%85%D8%B1-%D8%A8%D9%86-%D8%B9%D8%A8%D8%AF-%D8%A7%D9%84%D8%B9%D8%B2%D9%8A%D8%B2/com.steptoapps.content.omaribnabdelaziz'
p123
aS'/app/%D8%B1%D8%B3%D8%A7%D8%A6%D9%84-%D8%AD%D8%A8-%D9%88-%D8%B1%D9%88%D9%85%D8%A7%D9%86%D8%B3%D9%8A%D8%A9/com.AppRocks.romanceMessages2'
p124
aS'/app/burger-king-de/de.burgerking.kingfinder'
p125
aS'/app/heart-touching-quotes/com.dishya.android.apps.bliqpro'
p126
aS'/app/panda-%D8%A8%D9%86%D8%AF%D9%87/com.borninteractive.panda'
p127
aS'/app/vivint/com.alarm.alarmmobile.android.vivint'
p128
aS'/app/%D8%A3%D9%81%D8%B6%D9%84-%D8%A7%D9%84%D8%B9%D8%B7%D9%88%D8%B1-best-perfumes/geekshouse.ebt_app99'
p129
aS'/app/bookmarks-widget/mobi.mgeek.BookmarksWidget'
p130
aS'/app/digital-receipts/com.proximiant.receipts'
p131
aS'/app/michaels-stores/com.michaels.michaelsstores'
p132
aS'/app/malaysia-general-election-spr/com.fc.myge'
p133
aS'/app/app-van-de-dag-100%25-gratis/com.appturbo.appturboNL'
p134
aS'/app/schemer/com.google.android.apps.schemer'
p135
aS'/app/featurepoints/com.tapgen.featurepoints'
p136
aS'/app/way-gps-phone-tracking/p46.GPSTracking.Android'
p137
aS'/app/talking-3-friends-cats-bunny/com.kauf.talking.baum.Talking3FriendsCatsandBunny'
p138
aS'/app/my-dream-home-interior-design/com.mydreamhome.app'
p139
aS'/app/private-diary-free/app.diaryfree'
p140
aS'/app/hobby-lobby-stores/com.hobbylobbystores.android'
p141
aS'/app/trulia-apts-homes-for-rent/com.trulia.android.rentals'
p142
aS'/app/super-ruler-free/com.utooo.android.ruler'
p143
aS'/app/%D9%85%D9%83%D9%8A%D8%A7%D8%AC-%D8%AD%D9%86%D8%A7%D9%86-%D8%AF%D8%B4%D8%AA%D9%89-2013-%D8%A8%D8%A7%D9%84%D8%B5%D9%88%D8%B1/geekshouse.app70'
p144
aS'/app/dunkin-donuts/com.skcc.corfire.dd'
p145
aS'/app/free-wine-dictionary/dictionary.winesecretary.com'
p146
aS'/app/digimarc%C2%AE-discover/com.digimarc.corvallis'
p147
aS'/app/historyeraser/jp.androdev.historyeraser'
p148
aS'/app/realtor-ca/ca.crea.realtor'
p149
aS'/app/app-del-dia-100%25-gratis/com.appturbo.appturboES'
p150
aS'/app/pure-next-launcher-3d-theme/com.gtp.nextlauncher.theme.pure'
p151
aS'/app/aroundme/com.tweakersoft.aroundme'
p152
aS'/app/mcdo-france/com.md.mcdonalds.gomcdo'
p153
aS'/app/77000-recettes-de-cuisine/com.enki.Enki750g'
p154
aS'/app/%D8%A3%D8%B7%D8%A8%D8%A7%D9%82-%D8%B4%D9%87%D9%8A%D8%A9-%D9%85%D9%86-%D8%A7%D9%84%D8%A3%D9%83%D9%84%D8%A7%D8%AA-%D8%A7%D9%84%D8%B9%D8%A7%D9%84%D9%85%D9%8A%D8%A9/cleopatra.webview.jil_app14'
p155
aS'/app/app-des-tages-100%25-gratis/com.appturbo.appturboDE'
p156
aS'/app/muslim-pro%3A-azan-quran-qibla/com.bitsmedia.android.muslimpro'
p157
aS'/app/animated-analog-clock-widget/de.dnsproject.clock_widget_main'
p158
aS'/app/mecca-compass/com.jgc.makkahcompass'
p159
aS'/app/%D8%A7%D8%AD%D9%84%D9%89-%D8%A7%D9%84%D8%B9%D8%A7%D8%A8-%D8%A7%D9%84%D8%AA%D9%84%D9%88%D9%8A%D9%86/com.sapps.coloringgames'
p160
aS'/app/%D8%A3%D8%B9%D9%85%D8%A7%D9%84-%D8%A7%D9%84%D9%82%D9%84%D9%88%D8%A8/androidapps.a3malqolop'
p161
aS'/app/tocmai-ro/ro.tocmai'
p162
aS'/app/%E3%83%AD%E3%82%B1%E3%82%B9%E3%83%9E/jp.d_advantage.locasma'
p163
aS'/app/%D8%AD%D9%83%D9%85-%D9%85%D8%B5%D9%88%D8%B1%D8%A9/refresh.images'
p164
aS'/app/jo-ann/com.fifthfinger.clients.joann'
p165
aS'/app/dominos-pizza/com.mobext.dominos'
p166
aS'/app/dolphin-battery-saver/com.dolphin.battery.saver'
p167
aS'/app/%D8%B9%D9%84%D8%A7%D8%AC-%D8%A7%D9%84%D8%A7%D8%B9%D8%B4%D8%A7%D8%A8-%28%D8%A7%D9%84%D8%B7%D8%A8-%D8%A7%D9%84%D8%A8%D8%AF%D9%8A%D9%84%29/cleopatra.webview.doa_app46'
p168
aS'/app/dominos-pizza-india/com.Dominos'
p169
aS'/app/mcdonalds-nederland/com.xs2theworld.mcdonalds'
p170
aS'/app/%E2%99%A5-%D8%A7%D8%AC%D9%85%D9%84-500-%D8%B7%D8%A8%D8%AE%D8%A9-%D9%88%D9%88%D8%B5%D9%81%D8%A9-%E2%99%A5/geekshouse.jil_app94'
p171
aS'/app/%D8%A8%D8%B1%D9%86%D8%A7%D9%85%D8%AC-%D8%B0%D9%83%D8%B1/com.mudhios.android.islamic.theker'
p172
aS'/app/your-mirror-hd/com.yuvalluzon.yourmirror'
p173
aS'/app/mokriya-craigslist/com.mokriya.craigslist'
p174
aS'/app/%D8%AC%D8%A7%D9%84%D9%8A%D8%B1%D9%89-%D9%85%D9%83%D9%8A%D8%A7%D8%AC-%D8%B9%D9%8A%D9%88%D9%86-2013%D8%A8%D8%A7%D9%84%D8%AE%D8%B7%D9%88%D8%A7%D8%AA/geekshouse.ysm_app27'
p175
aS'/app/%D8%A7%D8%AA%D8%AC%D8%A7%D9%87-%D8%A7%D9%84%D9%82%D8%A8%D9%84%D8%A9-qibla/com.planetapps.acompass'
p176
aS'/app/zengland-next-launcher-theme/com.gtp.nextlauncher.theme.zenglandplaid'
p177
aS'/app/folletos-carrefour/com.munrodev.crfmobile'
p178
aS'/app/%D8%B1%D8%B3%D8%A7%D8%A6%D9%84-%D9%88%D9%85%D8%B3%D8%AC%D8%A7%D8%AA-%D8%A3%D8%AF%D8%B9%D9%8A%D8%A9-%D9%85%D8%A8%D8%A7%D8%B1%D9%83%D8%A9/message.doaa'
p179
aS'/app/funda/com.funda'
p180
aS'/app/thefork-restaurants/com.lafourchette.lafourchette'
p181
aS'/app/hungry-jacks/com.webling.hungryjacks'
p182
aS'/app/wehkamp-nl/nl.wehkamp.shop'
p183
aS'/app/klipster/se.appcorn.klipster'
p184
aS'/app/%D8%A7%D9%84%D9%82%D8%B1%D8%A7%D9%86-%D8%A7%D9%84%D9%83%D8%B1%D9%8A%D9%85-%D8%A8%D8%B5%D9%88%D8%AA-%D8%A7%D9%84%D8%B3%D8%AF%D9%8A%D8%B3/com.sdese.appsfactory'
p185
aS'/app/%D9%85%D9%83%D9%8A%D8%A7%D8%AC-%D8%B9%D9%8A%D9%88%D9%86/tropical.hm.mkyajayon'
p186
aS'/app/belly/com.bellyflop.android'
p187
aS'/app/benaughty-flirty-dating/com.benaughty'
p188
aS'/app/dock-clock-%28night-clock%29/com.gadgetjuice.dockclock'
p189
aS'/app/drink-cocktail-recipes/com.isanexus.cocktailrecipes'
p190
aS'/app/smulweb/nl.smulweb'
p191
aS'/app/hemnet/se.hemnet.android'
p192
aS'/app/tarot-angel-cards/com.bubadu.tarotangelcards'
p193
aS'/app/horoscopes-daily-fortune/com.zwigglers.android.horoscopes'
p194
aS'/app/%D9%88%D8%B5%D9%81%D8%A7%D8%AA-%D8%A7%D9%84%D8%B9%D9%86%D8%A7%D9%8A%D8%A9-%D8%A8%D8%A7%D9%84%D8%A8%D8%B4%D8%B1%D8%A9-%D9%88%D8%A7%D9%84%D8%AC%D8%B3%D9%85/geekshouse.jil_app41'
p195
aS'/app/app-of-the-day-%28ca%29-100%25-free/com.appturbo.appturboCA'
p196
aS'/app/kitchen-decorating-ideas/com.zalebox.kitchen.decorating.ideas.p1'
p197
aS'/app/countdown-widget/smsr.com.cw'
p198
aS'/app/ge-13-voter-survey/com.gamepro.android.ge13votersurvey'
p199
aS'/app/naturepix-%28hd%29/com.appmox.naturecasa'
p200
a.