(lp0
S'/app/%D8%B9%D8%AF%D9%86%D8%A7%D9%86-%D9%85%D8%B9%D9%84%D9%85-%D8%A7%D9%84%D9%82%D8%B1%D8%A2%D9%86/com.tagmedia.adnan'
p1
aS'/app/ted/com.ted.android'
p2
aS'/app/%D9%85%D8%B4%D9%91%D8%A7%D9%8A%D8%A9/com.gootest.apps.Mashayah'
p3
aS'/app/english-grammar-book/com.zayaninfotech.english.grammar'
p4
aS'/app/%E0%B9%80%E0%B8%81%E0%B9%88%E0%B8%87%E0%B8%A8%E0%B8%B1%E0%B8%9E%E0%B8%97%E0%B9%8C%E0%B8%AD%E0%B8%B1%E0%B8%87%E0%B8%81%E0%B8%A4%E0%B8%A9-%28%E0%B8%9F%E0%B8%A3%E0%B8%B5%29/air.com.engalert.KengSup'
p5
aS'/app/free-arabic-english-dictionary/com.officail.BritannicaArFreeDict'
p6
aS'/app/iss-detector/com.runar.issdetector'
p7
aS'/app/%D8%AA%D9%84%D8%A7%D9%88%D8%A7%D8%AA-%D8%A3%D8%B7%D9%81%D8%A7%D9%84-%D9%85%D8%AD%D9%85%D8%AF-%D8%A7%D9%84%D8%A8%D8%B1%D8%A7%D9%83/net.xbound.mhdbarak'
p8
aS'/app/panduan-shalat-lengkap/apps.vormalin.com.panduanshalatlengkap'
p9
aS'/app/qamos-%D9%82%D8%A7%D9%85%D9%88%D8%B3-%D8%A7%D9%86%D8%AC%D9%84%D9%8A%D8%B2%D9%8A-%D8%B9%D8%B1%D8%A8%D9%8A/info.qamos.www'
p10
aS'/app/sleeping-beauty-kids-storybook/com.tabtale.sleepingbeauty'
p11
aS'/app/kids-paintings-coloring-book/enysoft.baby.paint'
p12
aS'/app/rightnow-english-conversation/com.tss21.rightnow.eng.main'
p13
aS'/app/%D9%85%D9%86%D8%A7%D9%84-%D8%A7%D9%84%D8%B9%D8%A7%D9%84%D9%85/com.arabdroidz.chefManal'
p14
aS'/app/%E0%B8%99%E0%B8%B4%E0%B8%97%E0%B8%B2%E0%B8%99%E0%B8%81%E0%B9%88%E0%B8%AD%E0%B8%99%E0%B8%99%E0%B8%AD%E0%B8%99-%E0%B8%AD%E0%B8%B5%E0%B8%AA%E0%B8%9B%28%E0%B8%A1%E0%B8%B5%E0%B9%80%E0%B8%AA%E0%B8%B5%E0%B8%A2%E0%B8%87%E0%B8%AD%E0%B9%88%E0%B8%B2%E0%B8%99%29/com.sbayit.android.aesopfables'
p15
aS'/app/english-grammar-lessons/bz.ddd.englishgrammar'
p16
aS'/app/%D9%82%D8%B5%D8%B5-%D9%85%D8%A7-%D9%82%D8%A8%D9%84-%D8%A7%D9%84%D9%86%D9%88%D9%85/com.lisbonlabs.bedtime.ar'
p17
aS'/app/%D8%A7%D9%87%D9%85-1000-%D9%83%D9%84%D9%85%D8%A9-%D8%A7%D9%86%D8%AC%D9%84%D9%8A%D8%B2%D9%8A%D8%A9/mawuoodacademy.english.vocabulary'
p18
aS'/app/abjad/info.obada.abjad'
p19
aS'/app/learn-spanish-with-babbel-com/com.babbel.mobile.android.es'
p20
aS'/app/%D8%AA%D8%B9%D9%84%D9%85-%D8%A7%D9%84%D9%84%D8%BA%D8%A9-%D8%A7%D9%84%D9%81%D8%B1%D9%86%D8%B3%D9%8A%D8%A9/mawuoodacademy.learn.french'
p21
aS'/app/learnenglish-audio-video/com.bc.avm'
p22
aS'/app/%D9%83%D8%AA%D8%A8-%D8%A7%EF%BB%9F%EF%BB%A4%EF%BB%9C%EF%BA%98%EF%BA%92%EF%BA%94-%EF%BA%8D%EF%BB%9F%EF%BA%B8%EF%BA%8E%EF%BB%A3%EF%BB%A0%EF%BA%94-bok-reader/com.nyitgroup.shamelareader'
p23
aS'/app/%D8%AE%D8%B7%D9%88%D8%A7%D8%AA-%D8%A8%D8%B3%D9%8A%D8%B7%D8%A9-%D9%84%D8%B9%D9%84%D8%A7%D9%82%D8%A9-%D8%AC%D9%86%D8%B3%D9%8A%D8%A9-%D9%85%D8%AB%D9%8A%D8%B1%D8%A9/com.getdroid.free.momarset.algens'
p24
aS'/app/english-lessons-%28free-fun%29/andrei.brusentcov.languagetutor.en'
p25
aS'/app/%E0%B8%A0%E0%B8%B2%E0%B8%A9%E0%B8%B2%E0%B8%AD%E0%B8%B1%E0%B8%87%E0%B8%81%E0%B8%A4%E0%B8%A9-%E0%B8%9B-1-%E0%B8%A1%E0%B8%B5%E0%B9%80%E0%B8%AA%E0%B8%B5%E0%B8%A2%E0%B8%87%E0%B8%AD%E0%B9%88%E0%B8%B2%E0%B8%99/com.sbayit.android.englishprimary1'
p26
aS'/app/kids-abc-trains-game-lite/com.intellijoy.abc.trains.lite'
p27
aS'/app/%E8%8B%B1%E6%96%87%E5%90%AC%E5%8A%9B-%E8%8B%B1%E5%90%AC%E7%89%B9%E8%AE%AD%E7%8F%AD-%28sammy%E8%80%81%E5%B8%88%E4%B8%BB%E7%BC%96%29/com.kut.EngListening.base'
p28
aS'/app/jobs/com.progressusmedia.jobsplus'
p29
aS'/app/learn-french-with-babbel-com/com.babbel.mobile.android.fr'
p30
aS'/app/coursera-companion/me.rafique.coursera'
p31
aS'/app/speak-it/com.triple.speakit'
p32
aS'/app/ayat%3A-holy-quran/sa.edu.ksu.Ayat'
p33
aS'/app/learn-german-with-babbel-com/com.babbel.mobile.android.de'
p34
aS'/app/blackboard-mobile%E2%84%A2-learn/com.blackboard.android'
p35
aS'/app/baby%E2%80%99s-birthday-party%EF%BC%88kids%EF%BC%89/com.sinyee.babybus.birthdayparty'
p36
aS'/app/baby-learns-numbers%28kids%29/com.sinyee.babybus.number'
p37
aS'/app/hindi-english-dictionary/HinKhoj.Dictionary'
p38
aS'/app/my-babys-clothing-quality/com.sinyee.babybus.clothes'
p39
aS'/app/countries-of-the-world/com.socratica.mobile.countries'
p40
aS'/app/dr-pandas-veggie-garden-free/com.tribeplay.pandagardenlite'
p41
aS'/app/world-map-2013-free/com.appventions.worldmapfree'
p42
aS'/app/%D9%81%D9%8A%D8%AF%D9%8A%D9%88%D9%87%D8%A7%D8%AA-%D8%AA%D8%B9%D9%84%D9%8A%D9%85%D9%8A%D8%A9-%D9%84%D9%84%D8%A7%D8%B7%D9%81%D8%A7%D9%84/com.egyptcloud.android.ta3leme'
p43
aS'/app/%D9%82%D9%88%D8%A7%D8%B9%D8%AF-%D8%A7%D9%84%D9%84%D8%BA%D8%A9-%D8%A7%D9%84%D8%A7%D9%86%D8%AC%D9%84%D9%8A%D8%B2%D9%8A%D8%A9/mawuoodacademy.english.grammar'
p44
aS'/app/java-power-link/pn.com.debrasoft.javapowerlink'
p45
aS'/app/english-to-arabic-dictionary/dictionary.arabic'
p46
aS'/app/test-your-english-i/com.tyengl.em'
p47
aS'/app/%E8%8B%B1%E6%B1%89%E5%AD%97%E5%85%B8-ec-dictionary/com.xiangyun.ecdict'
p48
aS'/app/kids-reading-%28preschool%29-free/com.intellijoy.android.reading.free'
p49
aS'/app/regneregler/dk.regneregler'
p50
aS'/app/learn-english-with-babbel-com/com.babbel.mobile.android.en'
p51
aS'/app/learnenglish-grammar/bc.leg'
p52
aS'/app/ted-me/com.mesoft.ted'
p53
aS'/app/learn-english/com.anspear.language.englishiap'
p54
aS'/app/root-and-me/com.iamjake.root'
p55
aS'/app/%E0%B8%81%E0%B8%A3%E0%B8%B4%E0%B8%A2%E0%B8%B2-3-%E0%B8%8A%E0%B9%88%E0%B8%AD%E0%B8%87-%28irregular-verbs%29/com.sbayit.android.irregular'
p56
aS'/app/dr-pandas-daycare-free/com.tribeplay.drpandakindergartenfree'
p57
aS'/app/english-chinese-dictionary/com.bravolol.bravolang.englishchinesecdictionary'
p58
aS'/app/learn-algebra/com.exequals.learnalgebra.gui'
p59
aS'/app/abc-for-kids-all-alphabet-free/com.aruhat.mobileapps.abc'
p60
aS'/app/smart-dictionary/com.mhm.dictionary'
p61
aS'/app/rosetta-course/air.com.rosettastone.mobile.CoursePlayer'
p62
aS'/app/photoshop-4u-new/air.org.photoshop4u.New'
p63
aS'/app/learn-english-voxy/com.voxy.news'
p64
aS'/app/area-formulas/an.AreaFormulas'
p65
aS'/app/creative-kids-paint-kids-color/com.buctuong.net.free.gg'
p66
aS'/app/all-about-root/com.joeykrim.allaboutroot'
p67
aS'/app/ankidroid-flashcards/com.ichi2.anki'
p68
aS'/app/clan-en-rtve-es/com.rtve.clan'
p69
aS'/app/%D0%B1%D0%B8%D0%BB%D0%B5%D1%82%D1%8B-%D0%BF%D0%B4%D0%B4-2013-%D1%80%D1%84/com.ntinside.droidpdd2012'
p70
aS'/app/pit-stop-%D1%80%D0%BE%D1%81%D1%81%D0%B8%D1%8F-%D0%BF%D0%B4%D0%B4-2013/kz.crystalspring.pit_stop_ru'
p71
aS'/app/learn-portuguese-with-babbel/com.babbel.mobile.android.pt'
p72
aS'/app/hadith-library-%D9%85%D9%83%D8%AA%D8%A8%D8%A9-%D8%A7%D9%84%D8%AD%D8%AF%D9%8A%D8%AB/com.nyitgroup.yemenlibrary'
p73
aS'/app/english-vocabulary-quiz/com.ruknaa.gameeng'
p74
aS'/app/%D8%A7%D9%84%D8%B6%D9%85%D8%A7%D8%A6%D8%B1-%D8%A7%D9%84%D8%A7%D9%86%D8%AC%D9%84%D9%8A%D8%B2%D9%8A%D8%A9/com.afrogfx.EnglishPronouns'
p75
aS'/app/%E0%B8%9D%E0%B8%B6%E0%B8%81%E0%B8%A8%E0%B8%B1%E0%B8%9E%E0%B8%97%E0%B9%8C%E0%B8%AD%E0%B8%B1%E0%B8%87%E0%B8%81%E0%B8%A4%E0%B8%A9/air.Fastdict'
p76
aS'/app/graphing-calculator-by-mathlab/us.mathlab.android'
p77
aS'/app/learn-turkish-with-babbel-com/com.babbel.mobile.android.tr'
p78
aS'/app/%D9%85%D8%B3%D9%85%D9%88%D8%B9-%D8%AD%D8%B5%D9%86-%D8%A7%D9%84%D8%B7%D9%81%D9%84%D8%A9-%D8%A7%D9%84%D9%85%D8%B3%D9%84%D9%85%D8%A9/com.spapps.masmoo3.bookm10'
p79
aS'/app/learn-korean-phrasebook/com.codegent.apps.learn.korean'
p80
aS'/app/loss-of-the-night/com.cosalux.welovestars'
p81
aS'/app/test-your-english-iii/com.tyengl.ad'
p82
aS'/app/yaseen-mp3/com.andromo.dev27966.app197173'
p83
aS'/app/mit-aicompanion/edu.mit.appinventor.aicompanion2'
p84
aS'/app/%D8%A7%D9%84%D9%85%D9%88%D8%B3%D9%88%D8%B9%D8%A9-%D8%A7%D9%84%D8%AD%D8%AF%D9%8A%D8%AB%D9%8A%D8%A9/com.zad.hadith'
p85
aS'/app/learn-arabic/com.SV.LearnArb'
p86
aS'/app/question-around-%28free%29/com.ruknaa.gameloptoo'
p87
aS'/app/%D8%AA%D8%B9%D9%84%D9%85-%D8%A7%D9%84%D9%84%D8%BA%D8%A9-%D8%A7%D9%84%D8%A7%D9%86%D8%AC%D9%84%D9%8A%D8%B2%D9%8A%D8%A9/mawuoodacademy.english.phrases'
p88
aS'/app/vitalsource-bookshelf/com.vitalsource.bookshelf'
p89
aS'/app/%E0%B8%81%E0%B8%AD%E0%B9%84%E0%B8%81%E0%B9%88-%28%E0%B8%81-%E0%B8%AE%29%28%E0%B8%AA%E0%B8%A3%E0%B8%B0%E0%B9%84%E0%B8%97%E0%B8%A2%29-%E0%B8%9D%E0%B8%B6%E0%B8%81%E0%B8%AD%E0%B9%88%E0%B8%B2%E0%B8%99%E0%B9%84%E0%B8%97%E0%B8%A2/com.sbayit.android.thaicharacters'
p90
aS'/app/belajar-tajwid/appinventor.ai_sy4ms_m.BelajarTajwid'
p91
aS'/app/dictionary-english-arabic/ist.dictionary'
p92
aS'/app/my-babys-graffiti%EF%BC%88kids%EF%BC%89/com.sinyee.babybus.paintingII'
p93
aS'/app/obenkyo/com.Obenkyo'
p94
aS'/app/101-hr-interview-questions/com.programmerworld.HRInterviewQuestionsLite'
p95
aS'/app/best-kids-songs/kr.co.smartstudy.bodlebookiapfree_us_android_googlemarket'
p96
aS'/app/learn-iqra/com.segopecelus.main'
p97
aS'/app/nasa-app/gov.nasa'
p98
aS'/app/curso-completo-ingl%C3%A9s-wlingua/com.wlingua.curso'
p99
aS'/app/thai-dict/bestdict.english.thai'
p100
aS'/app/quiz-patente/eu.appsolutelyapps.quizpatente'
p101
aS'/app/learn-spanish-phrasebook/com.codegent.apps.learn.spanish'
p102
aS'/app/%D8%A7%D9%84%D8%AD%D8%B1%D9%88%D9%81-%D8%A7%D9%84%D9%85%D8%AA%D8%AD%D8%B1%D9%83%D8%A9-%D8%A7%D9%84%D9%85%D8%AC%D8%A7%D9%86%D9%8A/com.iaraby.arabicletterslite'
p103
aS'/app/how-to-speak-real-english/com.modernenglishstudio.HowToSpeak'
p104
aS'/app/%D8%A7%D9%84%D9%86%D8%A7%D8%B7%D9%82-%D8%A7%D9%86%D8%AC%D9%84%D9%8A%D8%B2%D9%8A-2/com.MMAB.co.Nateg2'
p105
aS'/app/le-code-de-la-route-%28gratuit%29/oiz.labs.codedelaroute'
p106
aS'/app/mathway/com.bagatrix.mathway.android'
p107
aS'/app/kids-piano-lite/sunny_day.kids_piano_lite'
p108
aS'/app/tedict-learn-english-with-ted/com.egloos.scienart.tedict'
p109
aS'/app/photoshop-4u/com.andromo.dev67301.app69359'
p110
aS'/app/learn-german-with-busuu-com/com.busuu.android.de'
p111
aS'/app/tedict-learn-english-with-ted/com.egloos.scienart.tedict'
p112
aS'/app/english-grammar-free/com.app.grammarenglish'
p113
aS'/app/khan-academy/com.khanacademyTeamaperio'
p114
aS'/app/%D9%82%D8%B5%D8%B5-%D8%A7%D9%84%D8%A7%D8%B7%D9%81%D8%A7%D9%84/com.mobiarabia.kidsStoriesApp'
p115
aS'/app/theory-test-uk-free-2013-dts/uk.co.focusmm.dts_theory_free'
p116
aS'/app/%D8%A7%D9%84%D8%A7%D8%B1%D9%82%D8%A7%D9%85-%D9%88%D8%A7%D9%84%D9%81%D9%88%D8%A7%D9%83%D9%87-%D8%A7%D9%84%D9%85%D8%AC%D9%86%D9%88%D9%86%D8%A9/com.amerapps.numbersandcrazyfruits'
p117
aS'/app/%D8%A3%D9%84%D9%82%D8%B1%D8%A2%D9%86-%D8%A7%D9%84%D9%85%D8%B9%D9%84%D9%85-%D9%84%D9%84%D8%A3%D8%B7%D9%81%D8%A7%D9%84/com.isync.koraankids'
p118
aS'/app/world-atlas/com.keymetic.worldatlas'
p119
aS'/app/biblia-ortodoxa/com.vistig.soft.biblia'
p120
aS'/app/glsdr/org.v1al'
p121
aS'/app/learn-dutch-with-babbel-com/com.babbel.mobile.android.nl'
p122
aS'/app/%D8%A7%D9%84%D8%A7%D8%B1%D9%82%D8%A7%D9%85-%D9%88%D8%A7%D9%84%D9%81%D9%88%D8%A7%D9%83%D9%87-%D8%A7%D9%84%D9%85%D8%AC%D9%86%D9%88%D9%86%D8%A9/com.amerapps.numbersandcrazyfruits'
p123
aS'/app/surat-yasin-tahlil/apps.sotong.com.suratyasin'
p124
aS'/app/sketch-em/com.oneglobalapps.draw'
p125
aS'/app/kids-finger-painting-art-game/com.teachersparadise.kidsfingerpaintingcoloring'
p126
aS'/app/thaikids-%E0%B8%9E%E0%B8%B1%E0%B8%92%E0%B8%99%E0%B8%B2%E0%B8%97%E0%B8%B1%E0%B8%81%E0%B8%A9%E0%B8%B0%E0%B9%80%E0%B8%94%E0%B9%87%E0%B8%81%E0%B9%84%E0%B8%97%E0%B8%A2/com.thaikids.android'
p127
aS'/app/sparknotes/air.com.sparknotes.sparknotes'
p128
aS'/app/myhomework-student-planner/com.myhomeowork'
p129
aS'/app/test-your-english-ii/com.tyengl.im'
p130
aS'/app/lol%EB%B0%B1%EA%B3%BC%EC%82%AC%EC%A0%84/com.bigstar.lolkor'
p131
aS'/app/grace-to-you/com.subsplash.thechurchapp.gracetoyou'
p132
aS'/app/learn-english-with-busuu-com/com.busuu.android.enc'
p133
aS'/app/%D8%B9%D8%A7%D9%84%D9%85-%D8%A7%D9%84%D8%AD%D9%8A%D9%88%D8%A7%D9%86/com.mobiarabia.animalWorldApp'
p134
aS'/app/india-gk-questions/com.programmerworld.IndiaGk'
p135
aS'/app/%D8%AA%D8%B9%D9%84%D9%8A%D9%85-%D8%A7%D9%84%D8%B5%D9%84%D8%A7%D8%A9-%D9%84%D9%84%D8%A7%D8%B7%D9%81%D8%A7%D9%84/com.codendot.salatTutorialar'
p136
aS'/app/english-tenses/com.coderzheaven.englishtenses'
p137
aS'/app/learn-languages%3A-english/es.jmot.ll.en.free'
p138
aS'/app/vocab/com.appsculture.vocab'
p139
aS'/app/abc-kids-phonics%3A-animal-train/air.cz.cfc.androidgp.PhonicsIslandLite'
p140
aS'/app/abc-kids-phonics%3A-animal-train/air.cz.cfc.androidgp.PhonicsIslandLite'
p141
aS'/app/%E7%99%BE%E7%A7%91%E5%B0%8F%E5%AD%A6%E5%A0%82-%E5%90%8D%E5%B8%88%E5%AD%A6%E9%99%A2/com.kut.iqschool'
p142
aS'/app/%D8%B7%D8%B1%D9%8A%D9%82-%D8%A7%D9%84%D8%A5%D8%B3%D9%84%D8%A7%D9%85-%7C-islamway/com.symbyo.islamway'
p143
aS'/app/3d-brain/org.dnalc.threedbrain'
p144
aS'/app/clash-of-clans-cheats/com.clashofclansf.cheats'
p145
aS'/app/secretos-del-lenguaje-corporal/appinventor.ai_spugliese.lenguaje_corporal_2'
p146
aS'/app/marbel-shalat/com.educastudio.marbelshalat'
p147
aS'/app/belajar-english-for-kids/air.EnglishForKid'
p148
aS'/app/my-class-schedule-%28free%29/de.rakuun.MyClassSchedule.free'
p149
aS'/app/french-for-kids/com.petralingua.french'
p150
aS'/app/multiplication-table/com.java.tablas.de.multiplicar'
p151
aS'/app/paint-sparkles-coloring-book/com.tabtale.paintsparklesdraw'
p152
aS'/app/jw-song-book/com.tony007'
p153
aS'/app/sinonimi-e-contrari/appinventor.ai_nightclubtorino.Sinonimi'
p154
aS'/app/mobile-application-development/com.feztheforeigner.mobileapps'
p155
aS'/app/kids-paint-free/virtualgs.kidspaint'
p156
aS'/app/math-helper/math.helper'
p157
aS'/app/curso-de-electricidad/com.tecstar.com.electricidad'
p158
aS'/app/english-khmer-it-glossary/org.glossary.computer_eng_khm'
p159
aS'/app/%E5%AD%A6%E8%8B%B1%E8%AF%AD/com.bravolang.english'
p160
aS'/app/learn-chinese-mandarin-phrases/com.codegent.apps.learn.chinese'
p161
aS'/app/%D8%AA%D8%B9%D9%84%D9%85-%D8%A7%D9%84%D8%A3%D9%86%D8%AC%D9%84%D9%8A%D8%B2%D9%8A%D8%A9/mawuoodacademy.englishforall'
p162
aS'/app/scratch-draw-art-game/com.teachersparadise.scratchdraw'
p163
aS'/app/deen-tv/sadaqa.app.deentv'
p164
aS'/app/vehicles-puzzles-for-toddlers/co.romesoft.toddlers.puzzle.truck'
p165
aS'/app/dictionnaires-fran%C3%A7ais/com.copyharuki.frenchfrenchdictionaries'
p166
aS'/app/%D8%A3%D9%88%D9%84-%D9%83%D9%84%D9%85%D8%A7%D8%AA%D9%8A/com.teks.myfirstwordsarabic'
p167
aS'/app/smart-kids-games-lite/com.appquiz.smart.kidslite'
p168
aS'/app/united-states-history/com.matt.android.adds.freeHistory'
p169
aS'/app/speak-english-easily/appinventor.ai_alho00ot87.SpeakEnglishEasy'
p170
aS'/app/timetable/com.gabrielittner.timetable'
p171
aS'/app/toddler-counting-123-kids-free/com.giggleup.TC1AFree'
p172
aS'/app/alphabet-puzzles-for-toddlers/co.romesoft.toddlers.puzzle.alphabet'
p173
aS'/app/basic-english-teacher/com.avntk.englishteacher'
p174
aS'/app/panda-painting-brush%EF%BC%88kids%EF%BC%89/com.sinyee.babybus.drawing'
p175
aS'/app/hackers-reference/hackers.reference.free'
p176
aS'/app/panduan-untuk-musafir/com.musafir'
p177
aS'/app/%D1%8D%D0%BA%D0%B7%D0%B0%D0%BC%D0%B5%D0%BD-%D0%BF%D0%B4%D0%B4-2013-%D1%83%D0%BA%D1%80%D0%B0%D0%B8%D0%BD%D0%B0/com.mydevcorp.exampddua'
p178
aS'/app/tizzy-driving-adventure-lite/com.tizzylabs.tizzydrivingadventureliteandroid'
p179
aS'/app/photoshop-tutorials-plus/com.project.pstutorials'
p180
aS'/app/learn-english/com.alrwabee.learnenglishfree'
p181
aS'/app/lagu-anak-indonesia-01/air.com.rgb.laguanak1'
p182
aS'/app/learn-chinese-with-busuu-com/com.busuu.android.zh'
p183
aS'/app/baby-farm%28math%29/com.sinyee.babybus.farm'
p184
aS'/app/%D0%BF%D0%B4%D0%B4-%D1%80%D1%84/com.ntinside.rfpdd'
p185
aS'/app/surah-ar-rahman-with-mp3/kq.quran.suraharrahman'
p186
aS'/app/try-out-uan-sd/com.gadgetium.android.uansd'
p187
aS'/app/e-okul/com.eokul.sky.net.tr'
p188
aS'/app/%D8%A7%D9%84%D8%AC%D9%87%D8%A7%D8%B2-%D8%A7%D9%84%D9%87%D8%B6%D9%85%D9%8A/com.AlAmeenTech.AndroidApp'
p189
aS'/app/amazing-science-facts/com.rayg.ascience'
p190
aS'/app/amazing-science-facts/com.rayg.ascience'
p191
aS'/app/7-habits/com.seven.habits.ag'
p192
aS'/app/delshad-source/com.appsbuilder430767'
p193
aS'/app/e-okul/com.eokul.sky.net.tr'
p194
aS'/app/%EB%84%A4%EC%9D%B4%EB%B2%84-%EC%82%AC%EC%A0%84-naver-dictionary/com.nhn.android.naverdic'
p195
aS'/app/math-formulae-lite-%28free%29/com.nuzedd.MathFormulaeLite'
p196
aS'/app/english-grammar-3000/me.fasttest.grammar'
p197
aS'/app/rijksmuseum/nl.rijksmuseum.mmt'
p198
aS'/app/cara-solat-taubat/com.greatestwebapp.carasolattaubat'
p199
aS'/app/fun-for-toddlers/com.jcbsystems.puzzle5'
p200
a.