(lp0
S'/app/paypal/com.paypal.android.p2pmobile'
p1
aS'/app/al-rajhi-bank/es.connectis.mobile.alrajhi'
p2
aS'/app/wells-fargo-mobile/com.wf.wellsfargomobile'
p3
aS'/app/chase-mobile/com.chase.sig.android'
p4
aS'/app/credit-karma-mobile/com.creditkarma.mobile'
p5
aS'/app/receipts-by-wave-beta/com.waveaccounting.receipts'
p6
aS'/app/toshl-finance-budget-expense/com.thirdframestudios.android.expensoor'
p7
aS'/app/mint-com-personal-finance/com.mint'
p8
aS'/app/skatteverket/se.rsv.ef.mobil.android'
p9
aS'/app/usaa-mobile/com.usaa.mobile.android.usaa'
p10
aS'/app/geico-app/com.geico.mobile'
p11
aS'/app/state-bank-freedom/com.sgs.sbi.mbanking'
p12
aS'/app/currency-converter/com.pocketools.currency'
p13
aS'/app/bankid-s%C3%A4kerhetsapp/com.bankid.bus'
p14
aS'/app/capital-one%C2%AE-mobile/com.konylabs.capitalone'
p15
aS'/app/american-express-us/com.americanexpress.android.acctsvcs.us'
p16
aS'/app/personal-capital-investing/com.personalcapital.pcapandroid'
p17
aS'/app/easy-currency-converter/com.easy.currency.extra.androary'
p18
aS'/app/discover-mobile/com.discoverfinancial.mobile'
p19
aS'/app/pageonce-money-bills/com.netgate'
p20
aS'/app/google-finance/com.google.android.apps.finance'
p21
aS'/app/bitcoin-wallet/de.schildbach.wallet'
p22
aS'/app/nordea-mobile-bank-denmark/dk.nordea.mobilebank'
p23
aS'/app/pnc-mobile/com.pnc.ecommerce.mobile'
p24
aS'/app/u-s-bank/com.usbank.mobilebanking'
p25
aS'/app/maybank2u-malaysia/may.maybank.android'
p26
aS'/app/plus500/com.Plus500'
p27
aS'/app/hdfc-bank-mobilebanking/com.snapwork.hdfc'
p28
aS'/app/sparkasse/com.starfinanz.smob.android.sfinanzstatus'
p29
aS'/app/fidelity-investments/com.fidelity.android'
p30
aS'/app/coinkeeper%3A-expense-tracker/com.coinkeeper'
p31
aS'/app/pocket-agent%C2%AE/com.statefarm.pocketagent'
p32
aS'/app/barclays-mobile-banking/com.barclays.android.barclaysmobilebanking'
p33
aS'/app/natwest/com.rbs.mobile.android.natwest'
p34
aS'/app/capital-one-360/INGDIRECT.android'
p35
aS'/app/commbank/com.commbank.netbank'
p36
aS'/app/lloyds-tsb-mobile-banking/com.grppl.android.shell.CMBlloydsTSB73'
p37
aS'/app/bradesco/com.bradesco'
p38
aS'/app/ing-bankieren/com.ing.mobile'
p39
aS'/app/all-currency-converter/com.smartwho.SmartAllCurrencyConverter'
p40
aS'/app/swish-payments/se.bankgirot.swish'
p41
aS'/app/regions-bank/com.regions.mobbanking'
p42
aS'/app/schwab-mobile/com.schwab.mobile'
p43
aS'/app/percentage-calculator/info.percentagecalculator'
p44
aS'/app/tip-n-split-tip-calculator/com.handyapps.tipnsplit'
p45
aS'/app/swedbank/se.swedbank.mobil'
p46
aS'/app/bloomberg-for-smartphone/com.bloomberg.android'
p47
aS'/app/financial-calculators/com.financial.calculator'
p48
aS'/app/mortgage-calculator-and-rates/com.zillow.android.zmm'
p49
aS'/app/caixadirecta/pt.cgd.caixadirecta'
p50
aS'/app/la-tua-banca/com.noverca.mbanking'
p51
aS'/app/expense-manager/com.expensemanager'
p52
aS'/app/app-from-absa/com.barclays.absa.ui'
p53
aS'/app/metatrader-4/net.metaquotes.metatrader4'
p54
aS'/app/expensify/org.me.mobiexpensifyg'
p55
aS'/app/barclaycard-for-android/com.barclaycardus'
p56
aS'/app/westpac-mobile-banking/org.westpac.bank'
p57
aS'/app/abn-amro-mobiel-bankieren/com.abnamro.nl.mobile.payments'
p58
aS'/app/rbc-mobile/com.rbc.mobile.android'
p59
aS'/app/kotak-mobile-banking/com.msf.kbank.mobile'
p60
aS'/app/banco-do-brasil/br.com.bb.android'
p61
aS'/app/quicken-money-management/com.intuit.quicken'
p62
aS'/app/mobile-isp-service/kvp.jjy.MispAndroid320'
p63
aS'/app/halifax-mobile-banking-app/com.grppl.android.shell.halifax'
p64
aS'/app/yahoo-finance/com.yahoo.mobile.client.android.finance'
p65
aS'/app/icici-mobile-banking-imobile/com.csam.icici.bank.imobile'
p66
aS'/app/exchange-rates/net.xelnaga.exchanger'
p67
aS'/app/postepay/posteitaliane.posteapp.apppostepay'
p68
aS'/app/electricity-calculato/com.savimoney'
p69
aS'/app/cimb-clicks-malaysia/com.cimbmalaysia'
p70
aS'/app/scottrade-mobile/com.konylabs.Scottrade'
p71
aS'/app/mobilbank-dk/dk.danskebank.android.tribank'
p72
aS'/app/bank-of-the-west-mobile/com.botw.mobilebanking'
p73
aS'/app/citizens-bank-mobile-banking/com.citizensbank.androidapp'
p74
aS'/app/bb-t-mobile-banking/com.bbt.androidapp.activity'
p75
aS'/app/mi-banco-mobile/com.popular.android.mibanco'
p76
aS'/app/moneycontrol-markets-on-mobile/com.divum.MoneyControl'
p77
aS'/app/la-caixa/es.lacaixa.mobile.android.newwapicon'
p78
aS'/app/stock-watcher/com.mobileappsresearch.stockwatcher'
p79
aS'/app/usa-today-portfolio-tracker/com.portfoliotracker.usatoday'
p80
aS'/app/navy-federal-credit-union/com.navyfederal.android'
p81
aS'/app/tapporo-%28make-money%29/com.tapporo'
p82
aS'/app/cartoesalelo/air.br.com.alelo.mobile.android'
p83
aS'/app/manilla-bills-and-reminders/com.manilla'
p84
aS'/app/b%C3%B6rse-aktien-b%C3%B6rsennewsapp/de.unister.boersennews'
p85
aS'/app/ita%C3%BA/com.itau'
p86
aS'/app/ing-direct-espa%C3%B1a/com.ideaknow.ing'
p87
aS'/app/rushcard/com.rushcard.android'
p88
aS'/app/blockchain/piuk.blockchain.android'
p89
aS'/app/vr-de/de.fiducia.smartphone.android.banking.vr'
p90
aS'/app/wikinvest-portfolio-%28ad-free%29/com.wikinvest.wikinvest.adfree'
p91
aS'/app/bancosaldo/com.poste.main'
p92
aS'/app/riyadmobile/com.ejada.rbmobile'
p93
aS'/app/receiptmatch-from-amex/com.americanexpress.receiptmatch.activities'
p94
aS'/app/get-paid-apps-free/com.freemium.getpaidappsfree'
p95
aS'/app/tech-investor/com.seekingalpha.tech'
p96
aS'/app/financius-expense-manager/com.code44.finance'
p97
aS'/app/andro12c-financial-%28free%29/br.com.epx.andro12c'
p98
aS'/app/scb-easy/com.scb.phone'
p99
aS'/app/%E0%B8%A3%E0%B8%B2%E0%B8%84%E0%B8%B2%E0%B8%97%E0%B8%AD%E0%B8%87-%28gold-price%29/com.streamingmob.thong'
p100
aS'/app/financisto-expense-manager/ru.orangesoftware.financisto'
p101
aS'/app/bmo-mobile-banking/com.bmo.mobile'
p102
aS'/app/karls-mortgage-calculator/com.drcalculator.android.mortgage'
p103
aS'/app/linxo%3A-budget-argent-finance/com.linxo.androlinxo'
p104
aS'/app/dnb/no.apps.dnbnor'
p105
aS'/app/bibd-mobile/com.bibd'
p106
aS'/app/tip-calculator-by-tradefields/com.istockmanager'
p107
aS'/app/ally-mobile-banking/com.ally.MobileBanking'
p108
aS'/app/nse-mobile-trading/com.msf.nse'
p109
aS'/app/my-credit-score/com.madapper.mycreditscore'
p110
aS'/app/ally-mobile-banking/com.ally.MobileBanking'
p111
aS'/app/nationwide-mobile-banking/co.uk.Nationwide.Mobile'
p112
aS'/app/mandiri-mobile/noi.mandiri.mobile'
p113
aS'/app/hsbc-mobile-banking/com.htsu.hsbcpersonalbanking'
p114
aS'/app/checkbook/com.tts.checkbookenhanced'
p115
aS'/app/first-direct-banking-on-the-go/com.firstdirect.bankingonthego'
p116
aS'/app/commbank-kaching/au.com.commbank.kaching'
p117
aS'/app/insta-money-for-indian-banks/org.vinspire.money'
p118
aS'/app/intraday-stock-quotes-n-charts/com.bullsnbears.trendindicator'
p119
aS'/app/caixa/br.com.gabba.Caixa'
p120
aS'/app/anz-gomoney%E2%84%A2/com.anz.android.gomoney'
p121
aS'/app/paypal-calculator/com.spectrl.ppcalc'
p122
aS'/app/bnl-banking/it.bnl.apps.banking'
p123
aS'/app/fifth-third-mobile-banking/com.clairmail.fth'
p124
aS'/app/banking-4a-starter/subsembly.banking.starter'
p125
aS'/app/mintcoins-%28make-earn-money%29/com.mindfreelabs.mintcoins'
p126
aS'/app/retail-banking/es.bancosantander.apps'
p127
aS'/app/bank-of-scotland-mobile-bank/com.grppl.android.shell.BOS'
p128
aS'/app/bluebird-by-american-express/com.bluebird.mobile'
p129
aS'/app/ing-direct-italia/it.ingdirect.app'
p130
aS'/app/k-mobile-banking-plus/com.kbank.kmobilebanking'
p131
aS'/app/barclaycard-mybarclaycard/com.barclays.bca'
p132
aS'/app/zions-bank-mobile-banking/com.mfoundry.mb.android.mb_zfnb_pb'
p133
aS'/app/banking-4a/subsembly.banking'
p134
aS'/app/minha-conta-pf/com.santander.app'
p135
aS'/app/bankdroid/com.liato.bankdroid'
p136
aS'/app/bank-balance/com.daklab.bankbalance'
p137
aS'/app/impots-gouv/fr.gouv.finances.smartphone.android'
p138
aS'/app/acc%C3%A8s-compte/com.fullsix.android.labanquepostale.accountaccess'
p139
aS'/app/hsbc-fast-balance/com.hsbc.hsbcuk.android'
p140
aS'/app/green-dot-mobile/com.cardinalcommerce.greendot'
p141
aS'/app/juros-f%C3%A1cil/br.com.jr3'
p142
aS'/app/seeking-alpha-portfolio/com.seekingalpha.webwrapper'
p143
aS'/app/simple/com.banksimple'
p144
aS'/app/cibc-mobile-banking/com.cibc.android.mobi'
p145
aS'/app/personal-banking/uk.co.santander.santanderUK'
p146
aS'/app/nordea-mobile-bank-%E2%80%93-sweden/se.nordea.mobilebank'
p147
aS'/app/posb-mbanking/com.posb'
p148
aS'/app/arvest-mobile-banking/com.arvest.androidapp'
p149
aS'/app/sparkasse/com.starfinanz.smob.android.sbanking'
p150
aS'/app/easymoney-expense-manager/com.handyapps.easymoney'
p151
aS'/app/bank-of-arizona-mobile/bokf.ib.android.market.baz'
p152
aS'/app/call-saver-%E5%AE%A2%E6%9C%8D%E7%9C%81%E9%8C%A2%E9%80%9A-%28%E5%A4%96%E5%8A%A0%E7%9C%81%E6%99%82%E9%96%93%E3%80%81%E7%9C%81%E9%9B%BB%E5%8A%9B%29/cc.callsaver'
p153
aS'/app/synovus-mobile-banking/com.synovus.mobilebanking'
p154
aS'/app/gold-live/com.kitco.android.free.activities'
p155
aS'/app/smart-receipts/wb.receipts'
p156
aS'/app/data-usage/com.sigterm'
p157
aS'/app/visa-qiwi-wallet/ru.mw'
p158
aS'/app/hsbc-australia/com.hsbc.hsbcaustralia'
p159
aS'/app/unicredit-mobile-banking/com.unicredit'
p160
aS'/app/bank-of-albuquerque-mobile/bokf.ib.android.market.abq'
p161
aS'/app/personal-finance-%28extra-full%29/pf.classes'
p162
aS'/app/%E6%9A%AE%E3%82%89%E3%81%97%E3%81%AE%E3%83%9E%E3%83%8D%E3%83%BC%E3%82%B5%E3%82%A4%E3%83%88/jp.co.aeon.creditentry.app'
p163
aS'/app/bank-control-uk-mobile-banking/uk.co.jexpert.bc.android'
p164
aS'/app/hong-kong-stock-viewer-%28hk%29/com.shiyu.sharehk'
p165
aS'/app/sigfig-stocks-investments/com.sigfig.sigfig'
p166
aS'/app/khan-bank/mn.slide.khaanbank'
p167
aS'/app/eservice/com.ais.mimo.eservice'
p168
aS'/app/bitcoinium/com.veken0m.cavirtex'
p169
aS'/app/%D8%AA%D8%AD%D9%88%D9%8A%D9%84-%D8%A7%D9%84%D8%B9%D9%85%D9%84%D8%A7%D8%AA/com.eg.currency'
p170
aS'/app/aboalarm-k%C3%BCndigungsmaschine/de.aboalarm.kuendigungsmaschine'
p171
aS'/app/lcl/fr.lcl.android.customerarea'
p172
aS'/app/liberty-mutual-mobile/com.lmig.pm.internet.mobile.android.libertymutual'
p173
aS'/app/netspend-mobile-banking/com.netspend.product.android'
p174
aS'/app/%D1%81%D0%B1%D0%B5%D1%80%D0%B1%D0%B0%D0%BD%D0%BA-%D0%BE%D0%BD%D0%BB%40%D0%B9%D0%BD/ru.sberbankmobile'
p175
aS'/app/postemobile/com.posteitaliane.postemobilestore'
p176
aS'/app/equifax-mobile/com.equifax'
p177
aS'/app/american-express-uk/com.americanexpress.android.acctsvcs.uk'
p178
aS'/app/easy-envelope-budget-aid%3A-sync/com.dayspringtech.envelopes'
p179
aS'/app/ingmobile/pl.ing.ingmobile'
p180
aS'/app/xoom-fees-and-exchange-rates/com.xoom.android.app'
p181
aS'/app/cajeros-cercanos/es.gasai.cajeros'
p182
aS'/app/charter-one-mobile-banking/com.charterone.androidapp'
p183
aS'/app/progressive-insurance/com.phonevalley.progressive'
p184
aS'/app/office-calculator-free/net.taobits.officecalculator.android'
p185
aS'/app/moneypro-expense-manager/com.ideavisible.moneypro.free'
p186
aS'/app/bank-of-texas-mobile/bokf.ib.android.market.bot'
p187
aS'/app/aia-life-meter/com.aia'
p188
aS'/app/bitcoin-by-mtgox-mobile/com.mtgoxlive.trader'
p189
aS'/app/money-toolkit/com.mtk.pro.android'
p190
aS'/app/juros-f%C3%A1cil-total/br.com.jr4'
p191
aS'/app/wywallet/se.accumulate.me.core.androidclient.wywallet'
p192
aS'/app/ulster-bank-roi/com.rbs.mobile.android.ubr'
p193
aS'/app/cielo-mobile/com.m4u.cielomobile'
p194
aS'/app/gold-silver-price-checker/com.altsoldev.preciousmetaltracker'
p195
aS'/app/andbanks/com.andbanks'
p196
aS'/app/mycards-lite/com.ispl.MyCards.activity'
p197
aS'/app/td-bank-%28us%29/com.tdbank'
p198
aS'/app/founders-fcu-mobile-banking/com.foundersfcu.mobile'
p199
aS'/app/kb%EC%8A%A4%ED%83%80%EB%B1%85%ED%82%B9-%EC%84%A4%EC%B9%98/com.install.kbbank'
p200
a.