(lp0
S'/app/adobe-reader/com.adobe.reader'
p1
aS'/app/google-drive/com.google.android.apps.docs'
p2
aS'/app/dropbox/com.dropbox.android'
p3
aS'/app/es-file-explorer-file-manager/com.estrongs.android.pop'
p4
aS'/app/papyrus/com.steadfastinnovation.android.projectpapyrus'
p5
aS'/app/battery-saver-du-switch-widget/com.dianxinos.dxbs'
p6
aS'/app/google-keep/com.google.android.keep'
p7
aS'/app/qr-droid%E2%84%A2/la.droid.qr'
p8
aS'/app/camscanner-phone-pdf-creator/com.intsig.camscanner'
p9
aS'/app/swype-keyboard/com.nuance.swype.dtc'
p10
aS'/app/colornote-notepad-notes-to-do/com.socialnmobile.dictapps.notepad.color.note'
p11
aS'/app/evernote/com.evernote'
p12
aS'/app/super-optimize/com.androidlord.optimizationbox'
p13
aS'/app/nq-mobile-security-antivirus/com.nqmobile.antivirus20'
p14
aS'/app/teamviewer-for-remote-control/com.teamviewer.teamviewer.market.mobile'
p15
aS'/app/brightest-led-flashlight/com.surpax.ledflashlight.panel'
p16
aS'/app/app-cache-cleaner/mobi.infolife.cache'
p17
aS'/app/skydrive/com.microsoft.skydrive'
p18
aS'/app/androzip-file-manager/com.agilesoftresource'
p19
aS'/app/astro-file-manager-browser/com.metago.astro'
p20
aS'/app/google-goggles/com.google.android.apps.unveil'
p21
aS'/app/assistant/com.speaktoit.assistant'
p22
aS'/app/hp-eprint/com.hp.android.print'
p23
aS'/app/clipnote-special/de.esoco.android.cnappturbo'
p24
aS'/app/all-in-one-toolbox%2819-tools%29/imoblife.toolbox.full'
p25
aS'/app/advanced-task-killer/com.rechild.advancedtaskkiller'
p26
aS'/app/app-backup-restore/mobi.infolife.appbackup'
p27
aS'/app/digical-calendar-widgets/com.digibites.calendar'
p28
aS'/app/go-battery-saver-widget/com.gau.go.launcherex.gowidget.gopowermaster'
p29
aS'/app/easy-uninstaller/mobi.infolife.uninstaller'
p30
aS'/app/quick-settings-%28plugin%29/com.imoblife.shortcuts_plug_in'
p31
aS'/app/cloudmagic/com.cloudmagic.android'
p32
aS'/app/compass/com.apksoftware.compass'
p33
aS'/app/digical-calendar-widgets/com.digibites.calendarplus'
p34
aS'/app/volume-settings-%28plugin%29/com.imoblife.voicesetting_plug_in'
p35
aS'/app/swype-keyboard-trial/com.nuance.swype.trial'
p36
aS'/app/go-cleaner-task-manager/com.gau.go.launcherex.gowidget.taskmanagerex'
p37
aS'/app/a-i-type-keyboard-free/com.aitype.android'
p38
aS'/app/led-flashlight/flashlight.led.clock'
p39
aS'/app/cloud-print/com.pauloslf.cloudprint'
p40
aS'/app/acalendar-android-calendar/org.withouthat.acalendar'
p41
aS'/app/juicedefender-battery-saver/com.latedroid.juicedefender'
p42
aS'/app/wunderlist-to-do-task-list/com.wunderkinder.wunderlistandroid'
p43
aS'/app/docusign-ink-sign-send-docs/com.docusign.ink'
p44
aS'/app/network-speed-booster/com.alportela.apptoola.network_booster'
p45
aS'/app/sherpa-beta-personal-assistant/com.sherpa.asistentesherpa'
p46
aS'/app/textgram-text-for-instagram/codeadore.textgram'
p47
aS'/app/es-file-explorer-%281-5-cupcake%29/com.estrongs.android.pop.cupcake'
p48
aS'/app/xonomail-beta-smart-email-app/com.trs.xonomail'
p49
aS'/app/notepad-for-android/com.tubik.notepad'
p50
aS'/app/lastpass-password-mgr-premium*/com.lastpass.lpandroid'
p51
aS'/app/wifi-manager/org.kman.WifiManager'
p52
aS'/app/swiftkey-keyboard/com.touchtype.swiftkey'
p53
aS'/app/evernote-widget/com.evernote.widget'
p54
aS'/app/aqua-mail-email-app/org.kman.AquaMail'
p55
aS'/app/indigo/com.artificialsolutions.teneo.va.prod'
p56
aS'/app/jorte-calendar/jp.co.johospace.jorte'
p57
aS'/app/gtasks%3A-to-do-list-task-list/org.dayup.gtask'
p58
aS'/app/grammar-spelling-keyboard/com.gingersoftware.android.keyboard'
p59
aS'/app/springpad/com.springpad'
p60
aS'/app/a-i-type-arabic-predictionary/com.aitype.android.lang.ar'
p61
aS'/app/onenote-mobile/com.microsoft.office.onenote'
p62
aS'/app/advanced-task-manager-killer/mobi.infolife.taskmanager'
p63
aS'/app/jiffy-time-tracker/com.nordicusability.jiffy'
p64
aS'/app/business-calendar-free/netgenius.bizcal'
p65
aS'/app/x-plore-file-manager/com.lonelycatgames.Xplore'
p66
aS'/app/history-eraser/mobi.infolife.eraser'
p67
aS'/app/day-by-day-%28free%29/ru.infteh.organizer.trial'
p68
aS'/app/free-tablet-antivirus-security/com.antivirus.tablet'
p69
aS'/app/sms-text-messaging-%E2%86%94pc-texting/com.texty.sms'
p70
aS'/app/%D0%B0%D1%81%D1%81%D0%B8%D1%81%D1%82%D0%B5%D0%BD%D1%82-%D0%BD%D0%B0-%D1%80%D1%83%D1%81%D1%81%D0%BA%D0%BE%D0%BC-%D1%8F%D0%B7%D1%8B%D0%BA%D0%B5/mobi.voiceassistant.ru'
p71
aS'/app/hola-accelerator-unblocker/org.hola'
p72
aS'/app/tsf-clock-widget/com.tsf.shell.widget.alarm'
p73
aS'/app/file-explorer/nextapp.fx'
p74
aS'/app/sandisk-memory-zone/com.sandisk.mz'
p75
aS'/app/merge/com.contapps.android.merger'
p76
aS'/app/multiling-keyboard/com.klye.ime.latin'
p77
aS'/app/pdf-reader/com.foobnix.pdf.reader'
p78
aS'/app/go-clock-widget/com.gau.go.launcherex.gowidget.clockwidget'
p79
aS'/app/daleeli-%D8%AF%D9%84%D9%8A%D9%84%D9%8A/com.AlWahdaExpressSaudi.daleeli'
p80
aS'/app/root-browser-lite/com.jrummy.root.browserfree'
p81
aS'/app/go-launcherex-arabic-language/com.gau.go.launcherex.language.ar'
p82
aS'/app/easy-cache-cleaner/com.bazinga.cacheclean'
p83
aS'/app/skitch/com.evernote.skitch'
p84
aS'/app/fake-call-sms/com.popularapp.fakecall'
p85
aS'/app/go-contacts-ex/com.jbapps.contactpro'
p86
aS'/app/sugarsync/com.sharpcast.sugarsync'
p87
aS'/app/handyman-calculator/com.inturi.net.android.TimberAndLumberCalc'
p88
aS'/app/ds-file/com.synology.DSfile'
p89
aS'/app/hackers-keyboard/org.pocketworkstation.pckeyboard'
p90
aS'/app/cerberus-anti-theft/com.lsdroid.cerberus'
p91
aS'/app/oi-file-manager/org.openintents.filemanager'
p92
aS'/app/simple-calendar-widget/com.anod.calendar'
p93
aS'/app/hp-printer-control/com.hp.printercontrol'
p94
aS'/app/teamviewer-quicksupport/com.teamviewer.quicksupport.market.samsung'
p95
aS'/app/file-explorer-%28root-add-on%29/nextapp.fx.rr'
p96
aS'/app/music-download/mp3.music.mp3.download.great'
p97
aS'/app/ip-cam-viewer-basic/com.rcreations.ipcamviewerBasic'
p98
aS'/app/quickmark-barcode-scanner/tw.com.quickmark'
p99
aS'/app/google-calendar/com.google.android.calendar'
p100
aS'/app/clear-master/com.androidlord.cacheclear'
p101
aS'/app/automatic-call-recorder/com.globaleffect.callrecord'
p102
aS'/app/app2sd-save-phone-storage/mobi.infolife.app2sd'
p103
aS'/app/go-launcherex-german-language/com.gau.go.launcherex.language.de'
p104
aS'/app/dragon-assistant/com.nuance.balerion'
p105
aS'/app/winzip/com.winzip.android'
p106
aS'/app/whatsapp-1-year-free-promotion/com.toHelp.whatsapptruc'
p107
aS'/app/any-do-to-do-list-task-list/com.anydo'
p108
aS'/app/mediafire/com.mediafire.android'
p109
aS'/app/astrid-tasks-to-do-list/com.timsu.astrid'
p110
aS'/app/swiftkey-keyboard-free/com.touchtype.swiftkey.phone.trial'
p111
aS'/app/world-clock-widget/tm.app.worldClock'
p112
aS'/app/fedex-mobile/com.fedex.ida.android'
p113
aS'/app/go-daddy-mobile/com.godaddy.mobile.android'
p114
aS'/app/easy-touch-%28iphone-style%29/com.shere.assistivetouch'
p115
aS'/app/quick-settings/com.bwx.bequick'
p116
aS'/app/notepad/ru.andrey.notepad'
p117
aS'/app/google-analytics/com.google.android.apps.giant'
p118
aS'/app/sd-card-manager/my.mobi.android.apps4u.sdcardmanager'
p119
aS'/app/freenote-note-everything/com.suishouxie.freenote'
p120
aS'/app/next-task-manager-widget/com.gtp.nextlauncher.widget.taskmanager'
p121
aS'/app/joe-vlc-player/the.joevlc'
p122
aS'/app/foxit-mobile-pdf/com.foxit.mobile.pdf.lite'
p123
aS'/app/note-everything/de.softxperience.android.noteeverything'
p124
aS'/app/pocket-informant-3-list-widget/net.webis.pi3widget'
p125
aS'/app/battery-booster/imoblife.batterybooster'
p126
aS'/app/android-system-info/com.electricsheep.asi'
p127
aS'/app/andsmb-%28samba-client%29/lysesoft.andsmb'
p128
aS'/app/lock-screen/com.jiubang.goscreenlock.plugin.lockscreen'
p129
aS'/app/write/com.styluslabs.write'
p130
aS'/app/2x-battery-battery-saver/com.a0soft.gphone.aDataOnOff'
p131
aS'/app/remember-the-milk/com.rememberthemilk.MobileRTM'
p132
aS'/app/autorun-manager/com.rs.autorun'
p133
aS'/app/norton-utilities-task-killer/com.symantec.monitor'
p134
aS'/app/ubuntu-one-files/com.ubuntuone.android.files'
p135
aS'/app/light-manager-led-settings/com.koo.lightmanager'
p136
aS'/app/pocket-informant-3-pre-order/net.webis.pi3'
p137
aS'/app/abbyy-textgrabber-translator/com.abbyy.mobile.textgrabber.full'
p138
aS'/app/android-task-manager/com.james.SmartTaskManager'
p139
aS'/app/skyfire-web-browser-5-0/com.skyfire.consumer.browser'
p140
aS'/app/go-launcherex-french-language/com.gau.go.launcherex.language.fr'
p141
aS'/app/go-launcherex-italian-language/com.gau.go.launcherex.language.it'
p142
aS'/app/free-call-recorder-acr/com.nll.acr'
p143
aS'/app/floor-plan-creator/pl.planmieszkania.android'
p144
aS'/app/default-app-manager-lite/com.appiator.defaultappmanager'
p145
aS'/app/todoist%3A-to-do-list-task-list/com.todoist'
p146
aS'/app/dumpster-recycle-bin/com.baloota.dumpster'
p147
aS'/app/trello-organize-anything/com.trello'
p148
aS'/app/battery-defender/mobi.infolife.batterysaver'
p149
aS'/app/dropsync/com.ttxapps.dropsync'
p150
aS'/app/google-apps-device-policy/com.google.android.apps.enterprise.dmagent'
p151
aS'/app/printbot/net.jsecurity.printbot'
p152
aS'/app/carbonite-mobile/com.carbonite.android'
p153
aS'/app/handycalc-calculator/org.mmin.handycalc'
p154
aS'/app/go-calendar-widget/com.gau.go.launcherex.gowidget.calendarwidget'
p155
aS'/app/ebookdroid-pdf-djvu-reader/org.ebookdroid'
p156
aS'/app/solid-explorer-%28trial%29/pl.solidexplorer'
p157
aS'/app/jobs/com.careerbuilder.SugarDrone'
p158
aS'/app/qpython-python-for-android/com.hipipal.qpyplus'
p159
aS'/app/ezpdf-reader-g-drive-plugin/udk.android.plugin.cloud'
p160
aS'/app/listnote-speech-text-notepad/com.khymaera.android.listnotefree'
p161
aS'/app/lastpass-for-dolphin-*premium/com.lastpass.lpdolphin'
p162
aS'/app/swiftkey-tablet-free/com.touchtype.swiftkey.tablet.trial'
p163
aS'/app/ak-notepad/com.akproduction.notepad'
p164
aS'/app/rotation-locker/com.devasque.rotationlocker'
p165
aS'/app/solid-explorer-unlocker/pl.solidexplorer.unlocker'
p166
aS'/app/keeper%C2%AE-password-data-vault/com.callpod.android_apps.keeper'
p167
aS'/app/awallet-password-manager/org.awallet.free'
p168
aS'/app/radaee-pdf-reader/radaee.pdf'
p169
aS'/app/dgt-gtd-to-do-list-%5Balpha%5D/com.dg.gtd.android.lite'
p170
aS'/app/greenpower-battery-saver-free/org.gpo.greenpower'
p171
aS'/app/mobile-ocr-free/com.smartmobilesoftware.mobileocrfree'
p172
aS'/app/solar-charger/com.szlab.solarcharger'
p173
aS'/app/startup-manager-%28free%29/imoblife.startupmanager'
p174
aS'/app/android-file-manager/com.smartwho.SmartFileManager'
p175
aS'/app/itranslate-free-translator/at.nk.tools.iTranslate'
p176
aS'/app/task-list-to-do-list/no.intellicom.tasklist'
p177
aS'/app/onstar-remotelink/com.gm.onstar.mobile.mylink'
p178
aS'/app/month-calendar-widget/com.josegd.monthcalwidget'
p179
aS'/app/a-i-type-german-predictionary/com.aitype.android.lang.de'
p180
aS'/app/vpn-one-click/com.vpnoneclick.android'
p181
aS'/app/glide/com.glide1'
p182
aS'/app/agenda-widget-for-android/com.roflharrison.agenda'
p183
aS'/app/dhl/de.dhl.paket'
p184
aS'/app/automateit-automate-your-droid/AutomateIt.mainPackage'
p185
aS'/app/tasks/ch.teamtasks.tasks.paid'
p186
aS'/app/mcbackup-my-contacts-backup/com.globile.mycontactbackup'
p187
aS'/app/catch-notes/com.threebanana.notes'
p188
aS'/app/%D8%AD%D9%83%D9%85-%D9%88-%D8%A7%D9%82%D9%88%D8%A7%D9%84-%D8%B5%D9%88%D8%B1/tropical.hm.hekamwakwalimgs'
p189
aS'/app/go-note-widget/com.gau.go.launcherex.gowidget.notewidget'
p190
aS'/app/github/com.github.mobile'
p191
aS'/app/camscanner-hd-scanner-fax/com.intsig.camscannerhd'
p192
aS'/app/next-notification/com.gtp.nextlauncher.notification'
p193
aS'/app/ultimatetoolkit-for-mcpe/at.chrismcmine.mcpemods'
p194
aS'/app/3g-4g-signal-speed-refresher/com.newage.increase.wireless.free'
p195
aS'/app/%D8%B6%D8%AF-%D8%A7%D9%84%D8%AD%D8%B3%D8%AF/com.tamawy'
p196
aS'/app/android-pro-widgets/com.rdr.widgets.core'
p197
aS'/app/clipper-clipboard-manager/org.rojekti.clipper'
p198
aS'/app/fake-internet-explorer/com.ie'
p199
aS'/app/droidedit-%28free-code-editor%29/com.aor.droidedit'
p200
a.