(lp0
S'/app/camera360-ultimate/vStudio.Android.Camera360'
p1
aS'/app/picsart-photo-studio/com.picsart.studio'
p2
aS'/app/shot-control/com.starvingmind.android.shotcontrol'
p3
aS'/app/photo-editor/com.iudesk.android.photo.editor'
p4
aS'/app/cymera-camera-photo-editor/com.cyworld.camera'
p5
aS'/app/xnsketch/com.xnview.XnSketch'
p6
aS'/app/pixlr-express/com.pixlr.express'
p7
aS'/app/photo-editor-by-aviary/com.aviary.android.feather'
p8
aS'/app/photo-grid-collage-maker/com.roidapp.photogrid'
p9
aS'/app/quickpic/com.alensw.PicFolder'
p10
aS'/app/ticker/com.absoluteplay.ticker'
p11
aS'/app/fotorus/com.wantu.activity'
p12
aS'/app/split-camera-for-instagram/com.r22software.splitcam'
p13
aS'/app/line-camera/jp.naver.linecamera.android'
p14
aS'/app/pic-collage/com.cardinalblue.piccollage.google'
p15
aS'/app/sketch-guru/com.seventeenmiles.sketch'
p16
aS'/app/perfect365%3A-best-face-makeup/com.arcsoft.perfect365'
p17
aS'/app/photo-art-studio/com.hsmobile.photoartstudio'
p18
aS'/app/instamag-collage-magazine/com.instamag.activity'
p19
aS'/app/magisto-magical-video-editor/com.magisto'
p20
aS'/app/snapseed/com.niksoftware.snapseed'
p21
aS'/app/pudding-camera/com.kth.PuddingCamera'
p22
aS'/app/photo-editor-effects-frames/mobi.bcam.valentine'
p23
aS'/app/mirror-magic/com.androidpixels.mirrormagic'
p24
aS'/app/%D9%84%D9%85%D8%B3%D8%A7%D8%AA-%D9%85%D8%AD%D8%B1%D8%B1-%D8%A7%D9%84%D8%B5%D9%88%D8%B1/air.com.intollogy.LAMASAT'
p25
aS'/app/camera-mx/com.magix.camera_mx'
p26
aS'/app/fxcamera/ymst.android.fxcamera'
p27
aS'/app/pip-camera/com.pipcamera.activity'
p28
aS'/app/%D8%AE%D9%84%D9%81%D9%8A%D8%A7%D8%AA-%D9%84%D9%84%D8%AC%D9%88%D8%A7%D9%84/com.oubaida.mobile_wall'
p29
aS'/app/phonto-text-on-image/com.youthhr.phonto'
p30
aS'/app/flickr/com.yahoo.mobile.client.android.flickr'
p31
aS'/app/photo2fun-1-click-photomontage/de.fotokasten.fun'
p32
aS'/app/image-editor/com.pcvirt.ImageEditor'
p33
aS'/app/photo-editor-for-android/ru.photoeditor'
p34
aS'/app/lomo-camera/com.onemanwithcameralomo'
p35
aS'/app/photo-studio/com.kvadgroup.photostudio'
p36
aS'/app/pho-to-lab-fun-photo-editor/vsin.t16_funny_photo'
p37
aS'/app/decoblend-collage-photo-editor/net.fineseed.decoblend'
p38
aS'/app/photo-frame-free%3Aeasy-collage/kr.co.smartstudy.enaphotomerge_free_googlemarket'
p39
aS'/app/afterfocus/com.motionone.afterfocus'
p40
aS'/app/color-touch-effects/com.appspot.swisscodemonkeys.paintfx'
p41
aS'/app/touchnote-mothers-day-cards/com.touchnote.android'
p42
aS'/app/adobe-photoshop-express/com.adobe.psmobile'
p43
aS'/app/photochron-daily-timelapse/com.photochron'
p44
aS'/app/picq-merge-photos/com.bsintel.picq'
p45
aS'/app/gopro-app/com.gopro.smarty'
p46
aS'/app/cameraace-photo-collections/com.tecace.cameraace'
p47
aS'/app/spy-camera-os-%28open-source%29/com.jwork.spycamera'
p48
aS'/app/xnretro/com.xnview.XnRetro'
p49
aS'/app/instasize/com.jsdev.instasize'
p50
aS'/app/instasize/com.jsdev.instasize'
p51
aS'/app/samsung-mobilelink/com.samsungimaging.filesharing'
p52
aS'/app/instaplace/air.byss.mobi.instaplacefree'
p53
aS'/app/squareit/com.artyapphouse.squareit'
p54
aS'/app/photo-effects/com.photo_touch_effects.lite'
p55
aS'/app/photaf-panorama-%28free%29/obg1.Photaf'
p56
aS'/app/photofunia/com.photofunia.android'
p57
aS'/app/bokehpic-image-editing-filter/net.fineseed.bokehpic'
p58
aS'/app/photo-editor-for-xperia/com.sonydna.photoeditor_xpri'
p59
aS'/app/photo-squarer/com.photosquarer.squareimage'
p60
aS'/app/zoom-camera/ar.com.moula.zoomcamera'
p61
aS'/app/funny-photo-frames/com.mobilicos.funnyphotoframes'
p62
aS'/app/split-camera-hd/com.wombatix.splitcam2'
p63
aS'/app/%E2%80%98fantasy%E2%80%99-for-camera360/vStudio.Android.Fantasy'
p64
aS'/app/gallery-ics/com.moblynx.galleryics'
p65
aS'/app/wedding-frames/com.frames.weddingframes'
p66
aS'/app/mobli-share-photos-videos/com.mobli'
p67
aS'/app/photobucket-mobile/com.photobucket.android'
p68
aS'/app/panorama-camera-360/com.tinypiece.android.pc360'
p69
aS'/app/wondershare-powercam/powercam.activity'
p70
aS'/app/effecto-photo-editor/com.idc.Effecto'
p71
aS'/app/%D8%B5%D9%88%D8%B1-%D9%85%D9%86%D9%88%D8%B9%D8%A9/com.mango9x.newimages'
p72
aS'/app/wondershare-panorama/panorama.activity'
p73
aS'/app/muzy-share-photos-collages/com.muzy'
p74
aS'/app/photo-collages-camera/com.tndev.collageart'
p75
aS'/app/fast-burst-camera-lite/com.spritefish.fastburstcameralite'
p76
aS'/app/%D8%B5%D9%88%D8%B1-%D8%B1%D9%85%D8%B2%D9%8A%D8%A7%D8%AA-%D8%AE%D9%84%D9%81%D9%8A%D8%A7%D8%AA/stay.alkahtani'
p77
aS'/app/kame-camera-make-vadering/jp.inc.nagisa.camecamera'
p78
aS'/app/night-vision-camera/com.fingersoft.nightvisioncamera'
p79
aS'/app/superphoto/com.superphoto'
p80
aS'/app/body-symbol/vn.esse.bodysymbol'
p81
aS'/app/gif-camera/com.listen5.gif'
p82
aS'/app/touchretouch-free/com.advasoft.touchretouchfree'
p83
aS'/app/pick/jp.naver.pick'
p84
aS'/app/focus-effect/com.dumplingsandwich.focuseffect'
p85
aS'/app/camera360-for-android-1-5/vStudio.Android.Camera360Memento'
p86
aS'/app/amazon-cloud-drive-photos/com.amazon.clouddrive.photos'
p87
aS'/app/picasso-draw-paint-doodle/com.caramelizedapple.apps.Picasso'
p88
aS'/app/hdr-camera/com.almalence.hdr_plus'
p89
aS'/app/%E7%BE%8E%E5%9B%BE%E7%A7%80%E7%A7%80/com.mt.mtxx.mtxx'
p90
aS'/app/samsung-smart-camera-app/com.samsungimaging.connectionmanager'
p91
aS'/app/camera-zoom-fx-composites/slide.cameraZoom.composites'
p92
aS'/app/photo-gallery-%28fish-bowl%29/com.littlefatfish.photo'
p93
aS'/app/kd-collage-free/ru.kdnsoft.android.collagefree'
p94
aS'/app/shaped/com.iwombit.shaped'
p95
aS'/app/photoshake/com.motionone.photoshake'
p96
aS'/app/qing-camera/com.race604.camera'
p97
aS'/app/cartoon-photo/com.dumplingsandwich.cartoonphoto'
p98
aS'/app/360-p-effects/com.fanjie.cameraeffects'
p99
aS'/app/%D8%B5%D9%88%D8%B1-%D8%B9%D8%A7%D8%A6%D9%84%D8%A7%D8%AA-%D9%86%D8%AC%D9%88%D9%85-%D9%83%D8%B1%D8%A9-%D8%A7%D9%84%D9%82%D8%AF%D9%85/com.topgamemaker.androidImage'
p100
aS'/app/girlscamera%3Aphotobooth-sticker/jp.gmo_media.decoproject'
p101
aS'/app/pixlr-o-matic/pixlr.OMatic'
p102
aS'/app/befunky-photo-editor/air.com.befunky.BeFunkyPhotoEditor'
p103
aS'/app/instaquote%3A-add-text-to-photos/com.redcactus.instaquote'
p104
aS'/app/remote-viewfinder/com.samsung.app'
p105
aS'/app/color-splash-effect/com.lyrebirdstudio.colorme'
p106
aS'/app/camera-zoom-fx-picture-frames/slide.cameraZoom.pictureframes'
p107
aS'/app/ucam-ultra-camera/com.ucamera.ucam'
p108
aS'/app/lgcamera/rubberbigpepper.lgCamera'
p109
aS'/app/high-speed-camera-%5Bsilent%5D/com.hantor.CozyCamera'
p110
aS'/app/helmut-film-scanner/dk.codeunited.helmut'
p111
aS'/app/camera-zoom-fx-buddy-pack/slide.cameraZoom.buddypack'
p112
aS'/app/hd-panorama/com.almalence.panorama.smoothpanorama_free'
p113
aS'/app/instacollage/com.photos.instacollage'
p114
aS'/app/fotor-photo-effect-studio/com.everimaging.photoeffectstudio'
p115
aS'/app/fotodanz/com.application.fotodanz'
p116
aS'/app/camera-remote/com.busywww.cameraremote'
p117
aS'/app/camera-ics/com.moblynx.cameraics'
p118
aS'/app/photomontager/com.photomontager'
p119
aS'/app/picstory/com.ristomobile.picstory'
p120
aS'/app/instafitit-free/insta.fitit.free'
p121
aS'/app/picsay-pro-photo-editor/com.shinycore.picsaypro'
p122
aS'/app/color-grab/com.loomatix.colorgrab'
p123
aS'/app/%EB%84%A4%EC%9D%B4%EB%B2%84-%EC%B9%B4%EB%A9%94%EB%9D%BC-%EC%82%AC%EC%A7%84-%ED%8E%B8%EC%A7%91-naver-camera/com.nhn.android.ncamera'
p124
aS'/app/kapture-moments/com.kapturemoments'
p125
aS'/app/mirror-small-application/com.sony.smallapp.mirror'
p126
aS'/app/collagefancier-photofancie/com.surmin.photofancie.lite'
p127
aS'/app/draw-hd/com.beyondmob.DrawHD'
p128
aS'/app/animated-photo-frame-widget/com.hikaru.photowidgetad'
p129
aS'/app/camera-zoom-fx-props-pack/slide.cameraZoom.propspack'
p130
aS'/app/picasa-mobile/com.imprologic.micasa'
p131
aS'/app/pixanimator/com.moonlightingsa.pixanimator'
p132
aS'/app/picmix/com.picmix.mobile'
p133
aS'/app/oil-paint/com.roidgame.oilpaint'
p134
aS'/app/wirelessmobileutility/com.nikon.wu.wmau'
p135
aS'/app/photomash-free/com.localwisdom.photomash.free'
p136
aS'/app/despy-camera-%28free%29/net.hellosam.despy.free'
p137
aS'/app/photo-enhance-hdr-editor/com.wheadon.photoenhance'
p138
aS'/app/face-changer/com.face.changer.funny.faces'
p139
aS'/app/mobile-hidden-camera/com.zecurisoft.mhc1202'
p140
aS'/app/mobile-hidden-camera/com.zecurisoft.mhc1202'
p141
aS'/app/kodak-kiosk-connect/com.kodak.kodakprintmaker'
p142
aS'/app/%5Bhigh-quality%5Dsilent-camera2/com.oss.goodcamera2'
p143
aS'/app/camera-zoom-fx-new-composites/slide.cameraZoom.newcomposites'
p144
aS'/app/camera-fv-5-lite/com.flavionet.android.camera.lite'
p145
aS'/app/faceinhole-free/com.lisbonlabs.faceinhole.free'
p146
aS'/app/gifboom%3A-animated-gif-camera/com.tapmojo.gifboom'
p147
aS'/app/%D9%85%D8%B9%D8%AF%D9%84-%D8%A7%D9%84%D8%B5%D9%88%D8%B1/com.bowera.arcropimage'
p148
aS'/app/lovely-photo-frames/com.tndev.loveframes'
p149
aS'/app/canon-camerawindow/jp.co.canon.ic.camcomapp.cw.ui.activity'
p150
aS'/app/wd-photos/com.wdphotos'
p151
aS'/app/papelook%7Ecollage%7E/com.papelook'
p152
aS'/app/eye-color-booth/com.goforthapps.eyecolorbooth'
p153
aS'/app/sun-surveyor-lite/com.ratana.sunsurveyorlite'
p154
aS'/app/%5Bhigh-quality%5D-silent-camera/com.oss.mcam'
p155
aS'/app/web-de-fotoalbum/com.unitedinternet.portal.android.photo.webde'
p156
aS'/app/instaretro-for-instagram/com.onemanwithcamera.instaretro'
p157
aS'/app/romantic-love-camera-hd/com.spmobi.valentineframes'
p158
aS'/app/winaminute/com.winaminute'
p159
aS'/app/instapicframe-for-instagram/com.tinypiece.android.ipf'
p160
aS'/app/rando/com.ustwo.rando'
p161
aS'/app/dslr-remote/de.dslrremote'
p162
aS'/app/photo-desk/com.fletamuto.googleplay.photodesk'
p163
aS'/app/manga-generator/jp.co.so_da.android.mangagenerator'
p164
aS'/app/insplaceus-instagram-checkin/us.instext.insplaceus'
p165
aS'/app/dual-camera/wik.dualcamera'
p166
aS'/app/glimmr-for-flickr/com.bourke.glimmr'
p167
aS'/app/silent-spy-camera-free%282days%29/com.july.hidecameratrial'
p168
aS'/app/reduce-photo-size/com.shoozhoo.imageresizer'
p169
aS'/app/hdr-edit-free/com.wombatix.hdreditf'
p170
aS'/app/photography-editor/br.com.blackmountain.mylook'
p171
aS'/app/paint-pro/com.electricsheep.paintpro'
p172
aS'/app/photo-funny/com.hsmobile.photofunny'
p173
aS'/app/rage-face-photo/com.tmarki.trollphoto'
p174
aS'/app/wondershare-powercam-hd/powercam.hd'
p175
aS'/app/gopro-guide-hero-3-camera/com.bepronow.gopro'
p176
aS'/app/dubblen/com.dubblen'
p177
aS'/app/camera-jb/com.moblynx.camerajbplus'
p178
aS'/app/burst-mode-camera/com.wombatix.burstcam'
p179
aS'/app/face-blender-free/obg1.FaceBlender'
p180
aS'/app/mb-search-for-tineye/org.mikebannion.tineyesearch'
p181
aS'/app/touchup-lite-photo-editor/air.com.esdot.PhotoTouchupLite'
p182
aS'/app/f-stop-media-gallery/com.fstop.photo'
p183
aS'/app/nexus-photo-viewer/com.homeysoft.nexususb.viewer'
p184
aS'/app/%D8%B5%D9%88%D8%B1%D8%AA%D9%83-%D8%B1%D8%B3%D9%85/com.ababneh.photosketch'
p185
aS'/app/placeface/com.fotoquirk.placeface'
p186
aS'/app/magic-hour-free-camera/com.kiwiple.mhm.free'
p187
aS'/app/picasa-downloader/ro.amarkovits.android.picasa.downloader'
p188
aS'/app/500px/com.fivehundredpx.viewer'
p189
aS'/app/camera-zoom-fx-buddies-request/slide.cameraZoom.byrequest'
p190
aS'/app/camera-zoom-fx-coolborders/slide.cameraZoom.coolborders'
p191
aS'/app/eye-fi/fi.eye.android'
p192
aS'/app/camera-zoom-fx-more-composites/slide.cameraZoom.morecomposites'
p193
aS'/app/body-symbol-hd/vn.esse.bodysymbol.hd'
p194
aS'/app/layerer/com.monkeys.layerer'
p195
aS'/app/photo-tools/be.hcpl.android.phototools'
p196
aS'/app/camera-for-smallapp/com.applepie.android.smallcamera'
p197
aS'/app/funny-face-effects/com.face.warp.deformer.distortion'
p198
aS'/app/mix-images-photo-and-me/jp.co.so_da.android.photoandme'
p199
aS'/app/manga-comic-camera/com.wipeapp.mangacomiccamera.android'
p200
a.