(lp0
S'/app/iron-man-3-the-official-game/com.gameloft.android.ANMP.GloftIMHM'
p1
aS'/app/candy-crush-saga/com.king.candycrushsaga'
p2
aS'/app/angry-birds-friends/com.rovio.angrybirdsfriends'
p3
aS'/app/google-search/com.google.android.googlequicksearchbox'
p4
aS'/app/cut-the-rope%3A-time-travel/com.zeptolab.timetravel.free.google'
p5
aS'/app/outlook-com/com.outlook.Z7'
p6
aS'/app/facebook-messenger/com.facebook.orca'
p7
aS'/app/skype-free-im-video-calls/com.skype.raider'
p8
aS'/app/facebook/com.facebook.katana'
p9
aS'/app/instagram/com.instagram.android'
p10
aS'/app/google-translate/com.google.android.apps.translate'
p11
aS'/app/adobe-reader/com.adobe.reader'
p12
aS'/app/csr-racing/com.naturalmotion.csrracing'
p13
aS'/app/download-free-music-mp3-app/com.mp3downloaderandroid'
p14
aS'/app/mx-player/com.mxtech.videoplayer.ad'
p15
aS'/app/appbrain-ad-detector/com.appspot.swisscodemonkeys.detector'
p16
aS'/app/flight-simulator-boeing-free/com.thetisgames.fsboeingfree'
p17
aS'/app/twitter/com.twitter.android'
p18
aS'/app/gingers-birthday/com.outfit7.gingersbirthdayfree'
p19
aS'/app/robin-the-siri-challenger/com.magnifis.parking'
p20
aS'/app/clean-master-%28cleaner%29/com.cleanmaster.mguard'
p21
aS'/app/talkray-free-calls-and-text/com.talkray.client'
p22
aS'/app/adobe-air/com.adobe.air'
p23
aS'/app/google-drive/com.google.android.apps.docs'
p24
aS'/app/sim-card-info/com.mgen.simcardinfo'
p25
aS'/app/the-floor-escape/cento.n2.lib'
p26
aS'/app/dropbox/com.dropbox.android'
p27
aS'/app/blacktransparent-system-widget/com.gau.go.weatherex.systemwidgetskin.blacktransparentskin'
p28
aS'/app/paper-toss-2-0/com.backflipstudios.android.papertoss2'
p29
aS'/app/evernote-food/com.evernote.food'
p30
aS'/app/es-file-explorer-file-manager/com.estrongs.android.pop'
p31
aS'/app/tiny-flashlight-led/com.devuni.flashlight'
p32
aS'/app/zedge%E2%84%A2/net.zedge.android'
p33
aS'/app/speedtest-net/org.zwanoo.android.speedtest'
p34
aS'/app/runtastic-mountain-bike/com.runtastic.android.mountainbike.lite'
p35
aS'/app/wechat/com.tencent.mm'
p36
aS'/app/simple-mp3-downloader/org.goldennuggetapps.simpledl'
p37
aS'/app/official-ebay-android-app/com.ebay.mobile'
p38
aS'/app/line%3A-free-calls-messages/jp.naver.line.android'
p39
aS'/app/shazam/com.shazam.android'
p40
aS'/app/speedx-3d/com.gamelion.speedx3d'
p41
aS'/app/papyrus/com.steadfastinnovation.android.projectpapyrus'
p42
aS'/app/subway-surfers/com.kiloo.subwaysurf'
p43
aS'/app/pou/me.pou.app'
p44
aS'/app/groupon-daily-deals-coupons/com.groupon'
p45
aS'/app/yahoo-mail/com.yahoo.mobile.client.android.mail'
p46
aS'/app/%D8%B2%D8%AE%D8%B1%D9%81%D8%A9-%D8%A7%D9%84%D9%86%D8%B5%D9%88%D8%B5-%D9%88%D8%A7%D9%84%D8%A8%D8%B1%D9%88%D8%AF%D9%83%D8%A7%D8%B3%D8%AA/com.ta3b.servec'
p47
aS'/app/chrome-browser-google/com.android.chrome'
p48
aS'/app/farm-story%3A-mothers-day/com.teamlava.farmstory23'
p49
aS'/app/rivals-at-war/com.hotheadgames.google.free.valor'
p50
aS'/app/whatsapp-messenger/com.whatsapp'
p51
aS'/app/viber-%3A-free-calls-messages/com.viber.voip'
p52
aS'/app/camera360-ultimate/vStudio.Android.Camera360'
p53
aS'/app/perfect-kick/com.gamegou.PerfectKick.google'
p54
aS'/app/firefox-browser-for-android/org.mozilla.firefox'
p55
aS'/app/asphalt-moto/com.icloudzone.AsphaltMoto'
p56
aS'/app/path/com.path'
p57
aS'/app/battery-saver-du-switch-widget/com.dianxinos.dxbs'
p58
aS'/app/hardest-game-ever-2/org.orangenose.games'
p59
aS'/app/tango-text-voice-video-calls/com.sgiggle.production'
p60
aS'/app/tactical-assassin-special/air.com.simonhasondesign.TacticalAssassinSpecial'
p61
aS'/app/photosphere-live-wallpaper/fishnoodle.photospherewp_free'
p62
aS'/app/badminton-3d/cn.tenone.badminton.goodgame'
p63
aS'/app/airdroid/com.sand.airdroid'
p64
aS'/app/fun-run-multiplayer-race/no.dirtybit.funrun'
p65
aS'/app/hill-climb-racing/com.fingersoft.hillclimb'
p66
aS'/app/plumber%EF%BC%9Atrain-road/com.goodgame.railcrackup.startnow321'
p67
aS'/app/bejeweled-blitz/com.ea.BejeweledBlitz_na'
p68
aS'/app/antivirus-security-free/com.antivirus'
p69
aS'/app/snapchat/com.snapchat.android'
p70
aS'/app/android-tv/com.adi.android.tv'
p71
aS'/app/picsart-photo-studio/com.picsart.studio'
p72
aS'/app/pandora%C2%AE-internet-radio/com.pandora.android'
p73
aS'/app/paypal/com.paypal.android.p2pmobile'
p74
aS'/app/linkedin/com.linkedin.android'
p75
aS'/app/temple-run-2/com.imangi.templerun2'
p76
aS'/app/shot-control/com.starvingmind.android.shotcontrol'
p77
aS'/app/photo-editor/com.iudesk.android.photo.editor'
p78
aS'/app/google-keep/com.google.android.keep'
p79
aS'/app/wifi-analyzer/com.farproc.wifi.analyzer'
p80
aS'/app/stick-stunt-biker-2/com.djinnworks.StickStuntBiker2.free'
p81
aS'/app/baseball-hero/com.wordsmobile.baseball'
p82
aS'/app/barcode-scanner/com.google.zxing.client.android'
p83
aS'/app/nimble-quest/com.nimblebit.nimblequest'
p84
aS'/app/tablified-market-tablet-apps/tablifiedapps.tablifiedmarket'
p85
aS'/app/cymera-camera-photo-editor/com.cyworld.camera'
p86
aS'/app/runkeeper-gps-track-run-walk/com.fitnesskeeper.runkeeper.pro'
p87
aS'/app/mapfactor%3A-gps-navigation/com.mapfactor.navigator'
p88
aS'/app/kik-messenger/kik.android'
p89
aS'/app/mayday-emergency-landing/com.reludo.emergencylanding'
p90
aS'/app/vlc-for-android-beta/org.videolan.vlc.betav7neon'
p91
aS'/app/qr-droid%E2%84%A2/la.droid.qr'
p92
aS'/app/camscanner-phone-pdf-creator/com.intsig.camscanner'
p93
aS'/app/crazy-climber/com.icloudzone.crazyclimber'
p94
aS'/app/google-earth/com.google.earth'
p95
aS'/app/xnsketch/com.xnview.XnSketch'
p96
aS'/app/asphalt-surfers-free/com.foosegames.asphaltsurfersok'
p97
aS'/app/pixlr-express/com.pixlr.express'
p98
aS'/app/amazon-mobile/com.amazon.mShop.android'
p99
aS'/app/tunein-radio/tunein.player'
p100
aS'/app/anger-of-stick-3/com.miniclip.angerofstick3'
p101
aS'/app/photo-editor-by-aviary/com.aviary.android.feather'
p102
aS'/app/%C2%B5torrent%C2%AE-beta-torrent-app/com.utorrent.client'
p103
aS'/app/swype-keyboard/com.nuance.swype.dtc'
p104
aS'/app/galaxy-s4-leaf-live-wallpaper/com.androidwasabi.livewallpaper.s4leaf'
p105
aS'/app/file-manager/com.rhmsoft.fm'
p106
aS'/app/hd-live-tv/com.ceh.hd.live.tv'
p107
aS'/app/monopoly-hotels/com.ea.game.monopolyfree_android_bv'
p108
aS'/app/colornote-notepad-notes-to-do/com.socialnmobile.dictapps.notepad.color.note'
p109
aS'/app/mediaclip-download-videos/com.appseals.mediaclip.android'
p110
aS'/app/tube-video-downloader/com.acr.tubevideodownloader'
p111
aS'/app/marvel-comics/com.marvel.comics'
p112
aS'/app/evernote/com.evernote'
p113
aS'/app/super-optimize/com.androidlord.optimizationbox'
p114
aS'/app/s-o-s-by-american-red-cross/com.sharecare.sos'
p115
aS'/app/spotify/com.spotify.mobile.android.ui'
p116
aS'/app/nq-mobile-security-antivirus/com.nqmobile.antivirus20'
p117
aS'/app/2fuse/com.mojoforest.twofuse'
p118
aS'/app/teamviewer-for-remote-control/com.teamviewer.teamviewer.market.mobile'
p119
aS'/app/tumblr/com.tumblr'
p120
aS'/app/elegant-go-launcher-theme/com.gau.go.launcherex.theme.FD.ELEGANT.free'
p121
aS'/app/android-weather-clock-widget/com.devexpert.weather'
p122
aS'/app/bejeweled-blitz/com.ea.BejeweledBlitz_row'
p123
aS'/app/netflix/com.netflix.mediaclient'
p124
aS'/app/photo-grid-collage-maker/com.roidapp.photogrid'
p125
aS'/app/slots-go/com.hapogames.SlotsGo'
p126
aS'/app/catapult-king/com.chillingo.catapultkingfree.android.row'
p127
aS'/app/avast-mobile-security/com.avast.android.mobilesecurity'
p128
aS'/app/gfarm-go-super-theme/com.gau.go.launcherex.theme.gfarm'
p129
aS'/app/brightest-led-flashlight/com.surpax.ledflashlight.panel'
p130
aS'/app/pinterest/com.pinterest'
p131
aS'/app/android-assistant%2818-features%29/com.advancedprocessmanager'
p132
aS'/app/app-cache-cleaner/mobi.infolife.cache'
p133
aS'/app/gtunes-music-downloader/bestm.usicdownloadp.disepro'
p134
aS'/app/waze-social-gps-maps-traffic/com.waze'
p135
aS'/app/lazors/net.pyrosphere.lazors'
p136
aS'/app/craigslist-mobile/com.duduapps.craigslistfree'
p137
aS'/app/princess-makeup-girls-games/com.g6677.android.pmakeup'
p138
aS'/app/soundcloud/com.soundcloud.android'
p139
aS'/app/yahoo-weather/com.yahoo.mobile.client.android.weather'
p140
aS'/app/4shared/com.forshared'
p141
aS'/app/rom-manager/com.koushikdutta.rommanager'
p142
aS'/app/hide-pictures-keepsafe-vault/com.kii.safe'
p143
aS'/app/death-racing%3Amoto/com.feelingtouch.racingmoto'
p144
aS'/app/imdb-movies-tv/com.imdb.mobile'
p145
aS'/app/titanium-backup-%E2%98%85-root/com.keramidas.TitaniumBackup'
p146
aS'/app/solitaire/com.softick.android.solitaire.klondike'
p147
aS'/app/dictionary-com/com.dictionary'
p148
aS'/app/burger-big-fernand/com.magmamobile.game.BigFernand'
p149
aS'/app/4-pics-1-word/de.lotum.whatsinthefoto.us'
p150
aS'/app/kingsoft-office-5-5%28free%29/cn.wps.moffice_eng'
p151
aS'/app/truecaller-%3A-free-caller-id/com.truecaller'
p152
aS'/app/iron-man-3-live-wallpaper/cellfish.ironman3wp'
p153
aS'/app/raiden-fighter%3A-air-raid/com.zmplay.ldzjjmkx'
p154
aS'/app/weatherbug/com.aws.android'
p155
aS'/app/smart-voice-recorder/com.andrwq.recorder'
p156
aS'/app/iheartradio/com.clearchannel.iheartradio.controller'
p157
aS'/app/ab-workout-a6w/com.caynax.a6w'
p158
aS'/app/fruit-ninja-free/com.halfbrick.fruitninjafree'
p159
aS'/app/skydrive/com.microsoft.skydrive'
p160
aS'/app/androzip-file-manager/com.agilesoftresource'
p161
aS'/app/arcnote/com.arcsoft.arcnote'
p162
aS'/app/astro-file-manager-browser/com.metago.astro'
p163
aS'/app/toucher/com.gau.go.touchhelperex'
p164
aS'/app/into-the-dead/com.sidheinteractive.sif.DR'
p165
aS'/app/opera-mobile-web-browser/com.opera.browser'
p166
aS'/app/facebook-pages-manager/com.facebook.pages.app'
p167
aS'/app/mahjong-solitaire/com.leagem.mahjong'
p168
aS'/app/candy-jewels/com.incredibleapp.candyjewels'
p169
aS'/app/calorie-counter-myfitnesspal/com.myfitnesspal.android'
p170
aS'/app/vitamio-plugin-armv7-neon/io.vov.vitamio'
p171
aS'/app/anger-sniper/com.crazy.finegame.island.shooting.cool'
p172
aS'/app/app-lock/com.domobile.applock'
p173
aS'/app/update-agent/com.avast.android.at_play'
p174
aS'/app/whatsapp-wallpaper/com.whatsapp.wallpaper'
p175
aS'/app/bowman/com.ironingboard.bowman'
p176
aS'/app/my-tracks/com.google.android.maps.mytracks'
p177
aS'/app/quickpic/com.alensw.PicFolder'
p178
aS'/app/amazon-mobile-%28tablet%29/com.amazon.windowshop'
p179
aS'/app/go-weather-ex/com.gau.go.launcherex.gowidget.weatherwidget'
p180
aS'/app/you-peliculas%3A-movies-free/com.vad.raussvideo'
p181
aS'/app/contra-iv/com.riverjump.contra4'
p182
aS'/app/google-goggles/com.google.android.apps.unveil'
p183
aS'/app/mp3-music-search-download/com.fg.mp3download'
p184
aS'/app/pocket/com.ideashower.readitlater.pro'
p185
aS'/app/sky-map/com.google.android.stardroid'
p186
aS'/app/file-expert-hd/xcxin.fehd'
p187
aS'/app/youtube/com.google.android.youtube'
p188
aS'/app/freebox-free-full-movies/com.moviesdroid'
p189
aS'/app/switch-to-windows-phone/com.microsoft.switchtowp8'
p190
aS'/app/doodle-jump/com.lima.doodlejump'
p191
aS'/app/wikipedia/org.wikipedia'
p192
aS'/app/moovit-real-time-transit-info/com.tranzmate'
p193
aS'/app/%D8%A7%D9%84%D8%A7%D8%AA%D8%B5%D8%A7%D9%84-%D9%88%D8%A7%D9%84%D8%B1%D8%B3%D8%A7%D8%A6%D9%84-%D8%A7%D9%84%D9%88%D9%87%D9%85%D9%8A%D8%A9/com.rootdev.fakecallsms'
p194
aS'/app/feedly-google-reader-news-rss/com.devhd.feedly'
p195
aS'/app/dolphin-browser/mobi.mgeek.TunnyBrowser'
p196
aS'/app/dungeon-hunter-4/com.gameloft.android.ANMP.GloftD4HM'
p197
aS'/app/go-locker/com.jiubang.goscreenlock'
p198
aS'/app/es-task-manager/com.estrongs.android.taskmanager'
p199
aS'/app/diamond-dash/com.wooga.diamonddash'
p200
a.