(lp0
S'/app/marvel-comics/com.marvel.comics'
p1
aS'/app/dc-comics/com.dccomics.comics'
p2
aS'/app/comics/com.iconology.comics'
p3
aS'/app/perfect-viewer/com.rookiestudio.perfectviewer'
p4
aS'/app/gocomics/com.amuniversal.android.gocomics'
p5
aS'/app/dark-horse-comics/com.darkhorse.digital'
p6
aS'/app/a-comic-viewer/net.androidcomics.acv'
p7
aS'/app/%E5%B8%83%E5%8D%A1%E6%BC%AB%E7%94%BB/cn.ibuka.hw.ui'
p8
aS'/app/quick-manga-%7C-manga-reader/com.asupo.qrdn'
p9
aS'/app/comicrack-free/com.cyo.comicrack.viewer.free'
p10
aS'/app/manga-searcher-%7C-manga-reader/cn.rtfsc.searchmanga'
p11
aS'/app/drawing-cartoons/ru.jecklandin.stickman'
p12
aS'/app/perfect-viewer-pdf-plugin/com.rookiestudio.perfectviewer.pdfplugin'
p13
aS'/app/comic-strips/com.freecomicstrips'
p14
aS'/app/rage-comic-maker/com.tmarki.comicmaker'
p15
aS'/app/thai-manga-%28%E0%B8%AD%E0%B9%88%E0%B8%B2%E0%B8%99%E0%B8%81%E0%B8%B2%E0%B8%A3%E0%B9%8C%E0%B8%95%E0%B8%B9%E0%B8%99%29/com.mimiapps.thaimanga'
p16
aS'/app/asa7by-%D8%A7%D8%B3%D8%AD%D8%A7%D8%A8%D9%8A/com.telemediavas.Asa7by'
p17
aS'/app/%E3%80%90%E7%84%A1%E6%96%99h%E3%83%9E%E3%83%B3%E3%82%AC%E3%80%91%E3%83%A9%E3%83%96%E3%83%9B%E3%83%86%E3%83%AB%E3%81%AE%E4%BA%8C%E4%BA%BA%28%E5%85%A8%E5%B7%BB%E7%84%A1%E6%96%99%29/net.androbook.materialhotel.futari'
p18
aS'/app/komik-reader-free/com.komik.free'
p19
aS'/app/the-avengers-iron-man-mark-vii/com.loudcrow.marvelavengers'
p20
aS'/app/p-sheep-next-launcher-3d-theme/com.gtp.nextlauncher.theme.sheep'
p21
aS'/app/line-%E3%83%9E%E3%83%B3%E3%82%AC/jp.naver.linemanga.android'
p22
aS'/app/%D9%86%D9%83%D8%AA-%D8%AC%D8%AF%D9%8A%D8%AF%D8%A9/com.noookat'
p23
aS'/app/t-jelly-q-go-locker-theme/com.jiubang.goscreenlock.theme.com.gau.go.locker.theme.Jelly.Q'
p24
aS'/app/zwonderful-day-go-locker-theme/com.jiubang.goscreenlock.theme.wonderfulday.getjar'
p25
aS'/app/%E0%B9%82%E0%B8%A5%E0%B8%81%E0%B8%81%E0%B8%B2%E0%B8%A3%E0%B9%8C%E0%B8%95%E0%B8%B9%E0%B8%99/com.kratook.toon'
p26
aS'/app/origami-go-launcher-theme/com.gau.go.launcherex.theme.Origami.free'
p27
aS'/app/go-sms-pro-b-rose-theme/com.jb.gosms.pctheme.rosesms'
p28
aS'/app/guns-destruction/com.kauf.weapons.gunsanddestruction'
p29
aS'/app/syder-next-launcher-3d-theme/com.gtp.nextlauncher.theme.syder'
p30
aS'/app/ferris-wheel-go-locker-theme/com.jiubang.goscreenlock.theme.ferriswheel.getjar'
p31
aS'/app/magic-next-launcher-3d-theme/com.gtp.nextlauncher.theme.magic'
p32
aS'/app/princess-girls-jigsaw-puzzle/com.wfox.game.jigsaw.puzzle.princess'
p33
aS'/app/%E3%80%90%E7%84%A1%E6%96%99h%E3%83%9E%E3%83%B3%E3%82%AC%E3%80%91%E9%A3%9F%E5%BE%8C%E3%81%AE%E3%83%87%E3%82%B6%E3%83%BC%E3%83%88%E3%81%AF%E2%80%A6%28%E5%85%A8%E5%B7%BB%E7%84%A1%E6%96%99%29/net.androbook.materialshokugonodessert'
p34
aS'/app/%EB%AC%B4%EB%A3%8C%EB%A7%8C%ED%99%94-%EC%9D%BC%EB%B3%B8%EB%A7%8C%ED%99%94-%EC%88%9C%EC%A0%95%EB%A7%8C%ED%99%94-%EB%AC%B4%ED%98%91%EB%A7%8C%ED%99%94/com.freeview.appcom_130204'
p35
aS'/app/b-forever-love-go-locker-theme/com.jiubang.goscreenlock.theme.ForeverLove.ling'
p36
aS'/app/mangawhat-%7C-manga-reader/com.ceen.mangaviewer'
p37
aS'/app/dreamhouse-next-launcher-theme/com.gtp.nextlauncher.theme.dreamhouse'
p38
aS'/app/%E5%85%A8%E5%B7%BB%E7%84%A1%E6%96%99%EF%BC%81%E6%96%B0%E3%83%8A%E3%83%8B%E3%83%AF%E9%87%91%E8%9E%8D%E9%81%93%EF%BC%88%E7%84%A1%E6%96%99%E6%BC%AB%E7%94%BB%EF%BC%89/jp.co.manga.sinnaniwa.reader'
p39
aS'/app/xkcdviewer/net.bytten.xkcdviewer'
p40
aS'/app/children%E2%80%99s-bible/cat.bcnmultimedia.paraboles'
p41
aS'/app/e-book-manga-reader-ebireader/jp.ebookjapan.ebireader'
p42
aS'/app/fantasy-circus-go-reward-theme/com.gau.go.launcherex.theme.Fantasycircus.ling.fourinone'
p43
aS'/app/kids-movie-%28english%29/cmobile.com.kidsmovie.free'
p44
aS'/app/comics-reader/net.kervala.comicsreader'
p45
aS'/app/naruto-shippuuden-wallpapers/com.jffnarutoshippuudenwallpapers'
p46
aS'/app/manga-4me/fr.manga4me.android'
p47
aS'/app/posteri-sa-vukajlije/com.tengai.vukajlija'
p48
aS'/app/%E3%83%89%E3%82%AD%E3%83%89%E3%82%AD%E6%81%8B%E6%84%9B%E3%82%B3%E3%83%9F%E3%83%83%E3%82%AF/com.ifoer.animebook'
p49
aS'/app/how-to-draw-dragon-ball/com.mobincube.android.sc_WYU12.app_72997'
p50
aS'/app/comic-books/com.eddie.comic_reader'
p51
aS'/app/simple-comic-viewer/com.eddysoft.comicviewer'
p52
aS'/app/kids-cartoon-videos-learning/com.knmtech.kidscartoons'
p53
aS'/app/meme-generator-%28u-meme%29/com.knu.umeme'
p54
aS'/app/%E9%99%90%E5%AE%9A%E7%84%A1%E6%96%99%EF%BC%81%E3%83%B4%E3%82%A1%E3%83%BC%E3%82%B8%E3%83%B3%E3%83%BB%E3%82%B3%E3%83%8D%E3%82%AF%E3%82%B7%E3%83%A7%E3%83%B3/jp.co.manga.vconection.reader'
p55
aS'/app/mangadroid/com.mangadroid'
p56
aS'/app/manga-casa-%28hd%29/com.appmox.mangacasa'
p57
aS'/app/karikat%C3%BCrizm/com.ozn.karikaturizm'
p58
aS'/app/dragon-ball-z-%28movie%29-4-hd/com.dreamtech.dragonballz006'
p59
aS'/app/mangahello-%7C15000-manga-reader/com.cannywill.mangareader'
p60
aS'/app/androbook-comic-viewer/net.androbook'
p61
aS'/app/lovelykitten-go-reward-theme/com.gau.go.launcherex.theme.kitten.fourinone'
p62
aS'/app/dragon-ball-ringtones/com.lina.cDragonBall'
p63
aS'/app/%EB%84%A4%EC%9D%B4%EB%B2%84-%EC%9B%B9%ED%88%B0-naver-webtoon/com.nhn.android.webtoon'
p64
aS'/app/rage-comics/com.garciahierro.ragecomics'
p65
aS'/app/challenger-comics-viewer/org.kill.geek.bdviewer'
p66
aS'/app/italian-manga-browser/com.bonnydroid.mangaita'
p67
aS'/app/love-quotes/com.appspot.swisscodemonkeys.lovequotes'
p68
aS'/app/blood-type-comic/com.fast.game.xuexing2'
p69
aS'/app/zoo-go-reward-theme/com.gau.go.launcherex.theme.zoo.fourinone'
p70
aS'/app/comicat-%28comic-reader-viewer%29/meanlabs.comicat'
p71
aS'/app/s-thanksgivinggolauncher-theme/com.gau.go.launcherex.theme.ThanksgivingDiary'
p72
aS'/app/cartoon-classics/com.glamourfone.cartoons'
p73
aS'/app/one-piece-wallpapers/com.justforfun.onepiecewallpapers'
p74
aS'/app/toontoob/com.toontoob'
p75
aS'/app/lebanese-memes/com.lebanesememes'
p76
aS'/app/%E8%A3%B8%E3%81%AB%E8%A6%8B%E3%81%88%E3%82%8B%EF%BC%81%EF%BC%9F%E6%B0%B4%E7%8E%89%E3%82%B3%E3%83%A9%E5%86%99%E7%9C%9F%E9%9B%86/com.mizutama.madroid'
p77
aS'/app/dragon-ball-z-%28frieza%29-hd/com.dreamtech.dragonballz002'
p78
aS'/app/xkcd-simple-comic-viewer/at.idev.xkcd'
p79
aS'/app/chavinho-groove-sons-do-chaves/br.com.blooti.chavinhogroove'
p80
aS'/app/hj-story-messages-of-love/com.pixelstory.hj_story'
p81
aS'/app/manga-reader/vaha.android.vreaderfree'
p82
aS'/app/%C4%91%E1%BB%8Dc-truy%E1%BB%87n-tranh-jindo-conan/vn.com.manga'
p83
aS'/app/garfield-daily/com.pawsinc.garfielddaily'
p84
aS'/app/%D9%86%D9%88%D8%A7%D8%AF%D8%B1-%D8%AC%D8%AD%D8%A7-%D9%88%D8%A7%D9%84%D8%AD%D9%85%D8%A7%D8%B1/masraim.webview.gohahomar'
p85
aS'/app/zbaby-go-launcher-ex/com.gau.go.launcherex.theme.ZBaby'
p86
aS'/app/misspaofu-theme-go-launcher-ex/com.gau.go.launcherex.theme.paofuxiaojie2'
p87
aS'/app/green-forest-go-reward-theme/com.jiubang.goscreenlock.theme.greenforest.getjar'
p88
aS'/app/zcsummert-go-locker-theme/com.jiubang.goscreenlock.theme.zcsummerT'
p89
aS'/app/%C4%91%C3%B4r%C3%AAmon-truy%E1%BB%87n-tranh-%28full%29/com.vappsvn.doremon'
p90
aS'/app/ruthe-de-shit-happens/org.fireblade.ruthe'
p91
aS'/app/murphyho-z%C3%A1kony/sk.matj.murphy'
p92
aS'/app/random-facts/com.darkdroiddevs.randomFacts'
p93
aS'/app/avecomics/com.aquafadas.glLibrary'
p94
aS'/app/dragon-ball-z-%28vegeta%29-hd/com.dreamtech.dragonballz001'
p95
aS'/app/cantadas-engra%C3%A7adas/willian.cantadasengracadas'
p96
aS'/app/3d-magic-princess/com.ylTop.Magicf'
p97
aS'/app/%E5%85%A8%E5%B7%BB%E7%84%A1%E6%96%99%EF%BC%81%E3%83%A0%E3%83%95%E3%83%95%E3%81%AA%E8%A9%B1/jp.co.manga.mufufustory.reader'
p98
aS'/app/ayacomicviewer/jp.fuumin.moomin.AyaComicViewer'
p99
aS'/app/b-rose-go-launcher-theme/com.gau.go.launcherex.theme.ROSE'
p100
aS'/app/go-sms-pro-x-wax-crayon-theme/com.jb.gosms.pctheme.z.waxcrayon'
p101
aS'/app/zlotus-love-go-locker-theme/com.jiubang.goscreenlock.theme.ZLOTUSLOVE'
p102
aS'/app/zlotus-boy-go-locker-theme/com.jiubang.goscreenlock.theme.ZLOTUSboy'
p103
aS'/app/zromantic-go-locker-theme/com.jiubang.goscreenlock.theme.ZRomantic'
p104
aS'/app/bdbuzz-%3A-bd-comics-manga/com.NenupharDev.BdBuzz'
p105
aS'/app/lovecupidg-theme-go-launcherex/com.gau.go.launcherex.theme.LoveCupidG'
p106
aS'/app/3d-magic-princess/com.ylTop.Magicf'
p107
aS'/app/funnies-by-arcamax/com.arcamax.funnies'
p108
aS'/app/%E5%85%A8%E5%B7%BB%E7%84%A1%E6%96%99%EF%BC%81%E3%83%A0%E3%83%95%E3%83%95%E3%81%AA%E8%A9%B1/jp.co.manga.mufufustory.reader'
p109
aS'/app/ayacomicviewer/jp.fuumin.moomin.AyaComicViewer'
p110
aS'/app/bdbuzz-%3A-bd-comics-manga/com.NenupharDev.BdBuzz'
p111
aS'/app/active-sketch-theme/com.celltick.lockscreen.theme.Sketch'
p112
aS'/app/%D8%AC%D8%A7%D8%A8%D8%AA-%D8%B1%D8%A7%D8%AC%D9%84/com.conduit.app_228ad44bb00d4b5589d347366420fe03.app'
p113
aS'/app/funnies-by-arcamax/com.arcamax.funnies'
p114
aS'/app/space-go-launcher-theme/com.gau.go.launcherex.theme.FD.SpaceFlight.free'
p115
aS'/app/7-vi%C3%AAn-ng%E1%BB%8Dc-r%E1%BB%93ng-%28b%E1%BA%A3n-c%E1%BB%B1c-%C4%91%E1%BA%B9p%29/com.vappsvn.dragonball'
p116
aS'/app/%E5%85%A8%E5%B7%BB%E7%84%A1%E6%96%99%EF%BC%81%E3%83%96%E3%83%A9%E3%83%83%E3%82%AF%E3%82%B8%E3%83%A3%E3%83%83%E3%82%AF%E3%81%AB%E3%82%88%E3%82%8D%E3%81%97%E3%81%8F%E3%80%9C%E7%84%A1%E6%96%99%E6%BC%AB%E7%94%BB%E8%AA%AD%E3%81%BF%E6%94%BE%E9%A1%8C/jp.co.manga.blackjack.reader'
p117
aS'/app/funny-pictures-1000/com.pompeiicity.funpic'
p118
aS'/app/lovetree-theme-go-launcher-ex/com.gau.go.launcherex.theme.Lovetree'
p119
aS'/app/b-s-love-next-launcher-theme/com.gtp.nextlauncher.theme.bloodysweetlove'
p120
aS'/app/how-to-draw-animals/com.mobincube.android.sc_IH2TN.app_80942'
p121
aS'/app/super-heroes-logo/blackdroid.widget.superheros'
p122
aS'/app/%E6%AD%BB%E7%AB%8B%E3%83%87%E3%82%B9%E3%83%88%E3%83%AD%E3%82%A4%E9%AB%98%E6%A0%A1%28%E7%84%A1%E6%96%99%E6%BC%AB%E7%94%BB%29/jp.everystar.android.estarap1.destroy_comic1'
p123
aS'/app/%E7%8A%A0%E7%89%B2%E3%81%AE%E3%82%BD%E3%83%A9%28%E7%84%A1%E6%96%99%E6%BC%AB%E7%94%BB%29/jp.everystar.android.estarap1.giseinosora_1'
p124
aS'/app/b-s-love-next-launcher-theme/com.gtp.nextlauncher.theme.bloodysweetlove'
p125
aS'/app/cute-theme-go-launcher-ex/com.gau.go.launcherex.theme.cutecute'
p126
aS'/app/%E3%80%90%E7%84%A1%E6%96%99%E5%AE%98%E8%83%BD%E5%B0%8F%E8%AA%AC%E3%80%91%E6%9C%AA%E6%9D%A5%E3%81%AE%E8%8A%B1%E3%83%A0%E3%82%B3%28%E5%85%A8%E5%B7%BB%E7%84%A1%E6%96%99%29/net.androbook.materialmiraino.hanamuko'
p127
aS'/app/%E7%BE%8E%E5%A5%B3%E5%9B%BE%E5%BF%97-%E7%BE%8E%E5%A5%B3%E5%A4%A7%E5%85%A8/net.imgku.android.image'
p128
aS'/app/how-to-draw-sonic/com.wallpaper.HOwtodrawSonic'
p129
aS'/app/black-butler-sms-ringtones/com.lina.BlackButlerSMSRingtones'
p130
aS'/app/fairy-tail-wallpapers/com.fairytailnatsuwallpapers'
p131
aS'/app/%E6%BC%AB%E9%A5%AD-%E6%8A%8A%E6%BC%AB%E7%94%BB%E8%A3%85%E8%BF%9B%E5%8F%A3%E8%A2%8B/org.funnylab.manfun'
p132
aS'/app/anime-beauty/App.win.conforl1'
p133
aS'/app/%EC%A7%91%EC%A4%91%EC%A7%B1-%EA%B9%80%EB%B3%B8%EC%A2%8C%EC%9D%98-%EB%A7%8C%ED%99%94-%EC%82%BC%EC%B4%8C%ED%8C%AC%EC%9D%98-%EC%A0%9C%EC%99%95%EA%B2%A9/tfeuvefre.sonca.ob1008'
p134
aS'/app/comics-mask-free/com.keyspice.comicsmaskfree'
p135
aS'/app/neoneko-net-anime-und-manga/com.wNeoNekonet'
p136
aS'/app/manga-plus-reader/com.mangareader.edrem'
p137
aS'/app/h%C3%A0i-kim-chi-v%C3%A0-c%E1%BB%A7-c%E1%BA%A3i-%2818-%29/com.androidhot.truyencuoi'
p138
aS'/app/%E3%81%8F%E3%81%8F%E3%82%8A%E3%81%B2%E3%82%81%5B%E7%84%A1%E6%96%99%E6%BC%AB%E7%94%BB%5D/jp.everystar.android.estarap1.kukurihime_comic_1'
p139
aS'/app/zcc-go-locker-theme/com.jiubang.goscreenlock.theme.ZCC'
p140
aS'/app/%E5%85%A8%E5%B7%BB%E7%84%A1%E6%96%99%EF%BC%81%E7%BE%8E%E5%A5%B3%E3%81%AE%E3%81%8A%E6%82%A9%E3%81%BF%E7%9B%B8%E8%AB%87%E5%AE%A4/jp.co.manga.asokomanga.reader'
p141
aS'/app/%E5%85%A8%E5%B7%BB%E7%84%A1%E6%96%99%EF%BC%81%E6%9C%AC%E5%BD%93%E3%81%AB%E3%81%82%E3%81%A3%E3%81%9F%E7%AC%91%E3%81%88%E3%82%8B%E8%A9%B1%E3%80%80%E6%A1%9C%E6%9C%A8%E3%81%95%E3%82%86%E3%81%BF%E7%B7%A8%EF%BC%88%E7%84%A1%E6%96%99%E6%BC%AB%E7%94%BB%EF%BC%89/jp.co.manga.realsmilestory.reader'
p142
aS'/app/zcc-go-locker-theme/com.jiubang.goscreenlock.theme.ZCC'
p143
aS'/app/trifriends-go-reward-theme/com.jiubang.goscreenlock.theme.trifriends.getjar'
p144
aS'/app/%E5%A4%A9%E5%A4%A9%E6%BC%AB%E7%94%BB/com.shuqi.cartoon.passmarket2'
p145
aS'/app/vtipko-najlep%C5%A1ie-vtipy/sk.matj.vtipko'
p146
aS'/app/roidrage-comic-maker/com.bourke.roidrage'
p147
aS'/app/the-dandy/air.com.dandy.thedandy'
p148
aS'/app/kumba-und-die-banane/air.com.kaisergames.KumbaEbook'
p149
aS'/app/mangazoo-manga-reader-online/app.ninecols.mangazoo'
p150
aS'/app/dragon-ball-z-%28movie%29-3-hd/com.dreamtech.dragonballz005'
p151
aS'/app/fairy-girl/com.angel.wlfantasy3dd'
p152
aS'/app/batman-3d-logo-wallpaper/com.angels.wallpapers.logos.batman'
p153
aS'/app/conan-pro/com.zumy.conan'
p154
aS'/app/xiaoyaoji-theme-go-launcher-ex/com.gau.go.launcherex.theme.xiaoyaoji'
p155
aS'/app/%E4%BA%BA%E3%81%AB%E8%A8%80%E3%81%88%E3%81%AA%E3%81%84%E8%82%89%E4%BD%93%E9%96%A2%E4%BF%82%E6%87%BA%E6%82%94%E5%AE%A4/hitoniienai.nikutaikankeizangesitu'
p156
aS'/app/%D9%83%D9%88%D9%85%D9%8A%D8%AF%D9%8A%D8%A7/net.fiberme.comidia'
p157
aS'/app/b-johnny-golauncher-ex-theme/com.gau.go.launcherex.theme.Johnnyfruitcake.ling'
p158
aS'/app/b-halloweennight-golauncher-ex/com.gau.go.launcherex.theme.funnyhalloweennight.ling'
p159
aS'/app/zcute-go-sms-theme/com.jb.gosms.pctheme.ZCute'
p160
aS'/app/b-greenwonderlandgolockertheme/com.jiubang.goscreenlock.theme.greenwonderland.ling'
p161
aS'/app/cartoon-live-wallpaper-2/com.skill.manCartoonLiveWallpaper2'
p162
aS'/app/morre-diabo/br.com.morrediabo'
p163
aS'/app/coisas-de-pobre/com.pobre.sistemafrases'
p164
aS'/app/%E3%82%BB%E3%82%AF%E3%82%B7%E3%83%BC%E4%B8%8B%E7%9D%80%E5%86%99%E7%9C%9F%E9%9B%86/com.sexy.madroid'
p165
aS'/app/scviewer-%28scan-manga-viewer%29/com.cattowersoft.scv'
p166
aS'/app/handy-art-reference-tool/com.beliefengine.handyapp'
p167
aS'/app/pokemon-memes/com.firebit.memebase.pokemenes'
p168
aS'/app/talking-pumpkin-wizard/talking.toy.funny.pumpkin'
p169
aS'/app/hero-identity-scan/com.angelsantomas.batvillains'
p170
aS'/app/barzellette/com.anjokes.apps.jokes.it'
p171
aS'/app/boggart-comic/com.apofiss.comicreader'
p172
aS'/app/mal%C3%BD-b%C5%AFh/cz.newslab.malybuh'
p173
aS'/app/zero-calcare/it.zero.calcare'
p174
aS'/app/%5B%E7%84%A1%E6%96%99%E6%BC%AB%E7%94%BB%5D%E5%98%98%E3%81%AE%E3%82%88%E3%81%86%E3%81%AA%E6%9C%AC%E5%BD%93%E3%81%AB%E3%81%82%E3%81%A3%E3%81%9F%E5%AE%9F%E4%BD%93%E9%A8%93%E3%83%9E%E3%83%B3%E3%82%AC-vol-1/jp.cybermediation.manga5'
p175
aS'/app/%E3%80%90%E7%84%A1%E6%96%99%E3%83%96%E3%83%83%E3%82%AF%E3%80%91%E4%BA%BA%E5%A6%BB%E3%83%9E%E3%83%8B%E3%82%A2/jp.gr.java_conf.mbr.u0004.v001'
p176
aS'/app/punch-your-people/com.pedrocorp.punchyourfriend'
p177
aS'/app/charlie-brown-live-wallpaper/com.phd.lwp.charliebrown'
p178
aS'/app/guaiwu-theme-go-launcher-ex/com.gau.go.launcherex.theme.guaiwu'
p179
aS'/app/%E3%82%AA%E3%82%AB%E3%83%AB%E3%83%88%E9%BB%99%E7%A4%BA%E9%8C%B2/jp.thomsons.okamoku'
p180
aS'/app/luckycat-go-locker-theme/com.jiubang.goscreenlock.theme.LuckyCat'
p181
aS'/app/whale-go-locker-reward-theme/com.jiubang.goscreenlock.theme.whale.getjar'
p182
aS'/app/talking-pocket-bot-lucy/com.kauf.botv3.talkingpocketbotlucy'
p183
aS'/app/tamil-comics-kazhuguveeran/com.kazhuguveeran'
p184
aS'/app/romantic-dream-wallpapers-02/com.kinostyle.wallpaper.dream02'
p185
aS'/app/cartoon-wallpaper-hd-2/com.knowledge1.cartoon.wallpapers'
p186
aS'/app/funny-pictures/com.laifu.image'
p187
aS'/app/vida-de-suporte-tirinhas/com.uglyboys.vidadesuporte'
p188
aS'/app/asa7be-%D8%A7%D8%B3%D8%A7%D8%AD%D8%A8%D9%8A/com.wAsa7be'
p189
aS'/app/mangafox-mangaeden-mobile/com.wmangafoxmobilepage'
p190
aS'/app/talking-pocket-bot-lucy/com.kauf.botv3.talkingpocketbotlucy'
p191
aS'/app/tamil-comics-kazhuguveeran/com.kazhuguveeran'
p192
aS'/app/romantic-dream-wallpapers-02/com.kinostyle.wallpaper.dream02'
p193
aS'/app/cartoon-wallpaper-hd-2/com.knowledge1.cartoon.wallpapers'
p194
aS'/app/funny-pictures/com.laifu.image'
p195
aS'/app/mr-vegetable-kids-story/com.storybook.mrvegetable.v2'
p196
aS'/app/the-rabbit-and-the-lion/com.storybook.rabbitlion'
p197
aS'/app/majin-vegeta-clock-widget/com.sviluppatoreAndroid.appWidget'
p198
aS'/app/vida-de-suporte-tirinhas/com.uglyboys.vidadesuporte'
p199
aS'/app/asa7be-%D8%A7%D8%B3%D8%A7%D8%AD%D8%A8%D9%8A/com.wAsa7be'
p200
a.