(lp0
S'/app/official-ebay-android-app/com.ebay.mobile'
p1
aS'/app/groupon-daily-deals-coupons/com.groupon'
p2
aS'/app/barcode-scanner/com.google.zxing.client.android'
p3
aS'/app/amazon-mobile/com.amazon.mShop.android'
p4
aS'/app/craigslist-mobile/com.duduapps.craigslistfree'
p5
aS'/app/amazon-mobile-%28tablet%29/com.amazon.windowshop'
p6
aS'/app/svpply/com.svpply.svpply'
p7
aS'/app/walgreens/com.usablenet.mobile.walgreen'
p8
aS'/app/extra-stores/com.asgatech.extra'
p9
aS'/app/walmart/com.walmart.android'
p10
aS'/app/shopper/com.google.android.apps.shopper'
p11
aS'/app/key-ring-reward-cards/com.froogloid.kring.google.zxing.client.android'
p12
aS'/app/google-offers/com.google.android.apps.offers'
p13
aS'/app/amazon-mobile-for-android/uk.amazon.mShop.android'
p14
aS'/app/marktplaats/nl.marktplaats.android'
p15
aS'/app/lowes/com.lowes.android'
p16
aS'/app/mobile-pocket-loyalty-cards/at.bluesource.mobilepocket'
p17
aS'/app/fancy/com.thefancy.app'
p18
aS'/app/livingsocial/com.livingsocial.www'
p19
aS'/app/olx-free-classifieds/com.olx.olx'
p20
aS'/app/kaufda-prospekte-angebote/com.bonial.kaufda'
p21
aS'/app/the-home-depot/com.thehomedepot'
p22
aS'/app/amazonlocal/com.amazon.ember.android'
p23
aS'/app/price-check-by-amazon/com.amazon.pricecheck'
p24
aS'/app/segundamano-es/com.anuntis.segundamano'
p25
aS'/app/sams-club/com.rfi.sams.android'
p26
aS'/app/aldi-tchibo-300-mehr%3A-2013/de.meinprospektBT.androidWeb'
p27
aS'/app/etsy/com.etsy.android'
p28
aS'/app/the-coupons-app/thecouponsapp.coupon'
p29
aS'/app/scanlife-barcode-qr-reader/com.ScanLife'
p30
aS'/app/craigslist-for-android-%28clapp%29/com.trixiesoft.clapp'
p31
aS'/app/target/com.target.ui'
p32
aS'/app/newegg-mobile/com.newegg.app'
p33
aS'/app/redlaser-barcode-qr-scanner/com.ebay.redlaser'
p34
aS'/app/mobile-recharge-bill-payment/net.one97.paytm'
p35
aS'/app/wish%3A-shopping-made-fun/com.contextlogic.wish'
p36
aS'/app/slickdeals-deals-coupons/net.slickdeals.android'
p37
aS'/app/restaurant-coupons/restaurant.coupon'
p38
aS'/app/dubizzle-egypt-%D8%AF%D9%88%D8%A8%D9%8A%D8%B2%D9%84-%D9%85%D8%B5%D8%B1/com.dubizzle.egypt'
p39
aS'/app/out-of-milk-shopping-list/com.capigami.outofmilk'
p40
aS'/app/zalando-mobile/de.zalando.mobile'
p41
aS'/app/costco-wholesale/com.costco.app.android'
p42
aS'/app/aliexpress-hd/com.alibaba.aliexpresshd'
p43
aS'/app/mijnpakket/nl.tpp.mobile.android'
p44
aS'/app/dubizzle-uae/com.dubizzle.uae2'
p45
aS'/app/myibidder-bid-sniper-for-ebay/com.myibidder.aclient1'
p46
aS'/app/neoreader-qr-barcode-scanner/de.gavitec.android'
p47
aS'/app/doveconviene/it.doveconviene.android'
p48
aS'/app/checkout-51/com.c51'
p49
aS'/app/hotukdeals-official/com.tippingcanoe.hukd'
p50
aS'/app/mercadolibre/com.mercadolibre'
p51
aS'/app/folders-nl/com.nakko.android.folders'
p52
aS'/app/argos/com.homeretailgroup.argos.android'
p53
aS'/app/idealo-price-comparison/de.idealo.android'
p54
aS'/app/white-yellow-pages/com.avantar.wny'
p55
aS'/app/ebay-annunci/com.ebay.annunci'
p56
aS'/app/tesco/com.tesco.grocery.view'
p57
aS'/app/mobile-recharge-plans-offers/in.ireff.android'
p58
aS'/app/our-groceries-shopping-list/com.headcode.ourgroceries'
p59
aS'/app/aliexpress/com.alibaba.android.aliexpress'
p60
aS'/app/kroger-co/com.kroger.mobile'
p61
aS'/app/amazon-mobil-f%C3%BCr-android/de.amazon.mShop.android'
p62
aS'/app/vouchercloud/com.vouchercloud.android'
p63
aS'/app/mobile-coupons-deals/com.aircrunch.shopalerts'
p64
aS'/app/ebay-widgets/com.ebay.mobile.appwidget'
p65
aS'/app/staples/app.staples'
p66
aS'/app/appsales-best-apps-on-sale/net.tsapps.appsales'
p67
aS'/app/1saleaday-daily-deals/com.onesaleaday.android'
p68
aS'/app/woolworths/com.woolworths'
p69
aS'/app/buscap%C3%A9/br.com.buscape.MainPack'
p70
aS'/app/mercador/ro.mercador'
p71
aS'/app/wanelo-shopping/com.wanelo.android'
p72
aS'/app/%E9%A6%99%E6%B8%AF%E6%A0%BC%E5%83%B9%E7%B6%B2-price-com-hk-%28%E6%89%8B%E6%A9%9F%E7%89%88%29/networld.price.app'
p73
aS'/app/dining-deals-food-coupons/com.droidwax.foodcouponsapp'
p74
aS'/app/twenga/com.twenga.twenga'
p75
aS'/app/woot-check-daily-deals/org.gtmedia.woot'
p76
aS'/app/kmart/com.kmart.android'
p77
aS'/app/trovaprezzi/it.trovaprezzi.android'
p78
aS'/app/qoo10-sg/net.giosis.shopping.sg'
p79
aS'/app/nespresso/com.nespresso.activities'
p80
aS'/app/shopping-at-dealextreme/com.epro.dx'
p81
aS'/app/%E6%B7%98%E5%AE%9D/com.taobao.taobao'
p82
aS'/app/la-fabrique-%C3%A0-menus/com.waest.menufactory'
p83
aS'/app/overstock-com-shopping-app/com.overstock'
p84
aS'/app/shpock%3A-mobile-yard-sale/com.shpock.android'
p85
aS'/app/tablica/pl.tablica'
p86
aS'/app/carrefour-uae/com.aswat.carrefouruae'
p87
aS'/app/amazon-play/com.iadeveliper.amazonplay'
p88
aS'/app/free-app-notifier-for-amazon/com.skylark95.amazonfreenotify'
p89
aS'/app/price-comparison-surfpricer/com.taptap.surfpricer'
p90
aS'/app/clapp-notify/com.trixiesoft.clappservice'
p91
aS'/app/geizhals-preisvergleich/at.geizhals.pv'
p92
aS'/app/o2-priority-moments/com.goldengekko.o2pm'
p93
aS'/app/shopping-list/com.slava.buylist'
p94
aS'/app/1800flowers-mobile-app/com.flowers1800.androidapp2'
p95
aS'/app/1-klick-kleinanzeigen-free/de.koloch.kleinanzeigen.free'
p96
aS'/app/blockdroid-%28blocket-annonser%29/org.blockdroid'
p97
aS'/app/canadian-tire/com.simplygood.ct'
p98
aS'/app/tokobagus-com-%28official-app%29/com.app.tokobagus.betterb'
p99
aS'/app/best-deals/com.bestdeals'
p100
aS'/app/mcd-kupony-do-mcdonalds/appinventor.ai_prycpl.mcd_kupony'
p101
aS'/app/dealfish-co-th/com.app.dealfish.main'
p102
aS'/app/stocard-loyalty-card/de.stocard.stocard'
p103
aS'/app/coles-app/com.coles.android.shopmate'
p104
aS'/app/amazon-buyvip/com.amazon.buyvip'
p105
aS'/app/auto-parts-warehouse/com.apw.ui'
p106
aS'/app/myvouchercodes-co-uk-vouchers/com.vouchacha.mvc.vouchers'
p107
aS'/app/asda/com.asda.android'
p108
aS'/app/aldi-uk/de.apptiv.business.android.aldi_uk'
p109
aS'/app/topcashback/uk.co.topcashback.topcashback'
p110
aS'/app/discount-calculator/com.mobilelive.percentage'
p111
aS'/app/willys/se.axfood.willys'
p112
aS'/app/ibotta/com.ibotta.android'
p113
aS'/app/ngpay-mall-on-mobile/com.jigrahak.ngpay'
p114
aS'/app/guenstiger-de/de.guenstiger.android'
p115
aS'/app/vouchercodes-co-uk/uk.co.vouchercodes.android'
p116
aS'/app/shopping-list/com.DramaProductions.Einkaufen5'
p117
aS'/app/cardstar/com.cardstar.android'
p118
aS'/app/allegro/pl.allegro'
p119
aS'/app/autozone-for-android/com.autozone.mobile'
p120
aS'/app/dba-%E2%80%93-den-bl%C3%A5-avis/dk.dba.android'
p121
aS'/app/aldi-usa/de.apptiv.business.android.aldi_us'
p122
aS'/app/bonde-p%C3%A5-k%C3%B6pet/lrf.App.VagaFraga.MonoAndroid'
p123
aS'/app/muambator/br.com.muambator.android'
p124
aS'/app/aldi-nord/de.aldiNord.android'
p125
aS'/app/ebay-explorer/de.schnapper.eBayExplorer'
p126
aS'/app/gilt-for-android/com.gilt.android'
p127
aS'/app/%D7%96%D7%90%D7%A4-%D7%94%D7%A9%D7%95%D7%95%D7%90%D7%AA-%D7%9E%D7%97%D7%99%D7%A8%D7%99%D7%9D-%E2%80%93-zap-co-il/com.cellerium.client.zap'
p128
aS'/app/shop-india/com.apps.shoppingindia24'
p129
aS'/app/preis-de-preisvergleich/de.preis.android'
p130
aS'/app/mondo-volantino/mondo.volantino'
p131
aS'/app/%E9%9B%B2%E7%AB%AF%E6%89%BE%E4%BE%BF%E5%AE%9C%28%E8%B3%BC%E7%89%A9%E8%88%87%E6%AF%94%E5%83%B9%29/org.roger.buycloud2'
p132
aS'/app/free-mobile-recharge-on-the-go/com.freecharge.android'
p133
aS'/app/prisjakt-pricespy/se.petersson.prisjakt'
p134
aS'/app/trackpack-mail-tracking/br.com.tribotech.trackpack'
p135
aS'/app/pic2shop-barcode-qr-scanner/com.visionsmarts.pic2shop'
p136
aS'/app/shoprite/com.mywebgrocer.ShopRiteCircular'
p137
aS'/app/qvc-%28us%29/com.qvc'
p138
aS'/app/thefind-scan-search-shop/com.thefind.shoppingaio'
p139
aS'/app/bidi%3A-lector-qr-y-cod-barras/com.bidi'
p140
aS'/app/five-guys-burgers-fries/com.fiveguys.olo.android'
p141
aS'/app/shopping-list/ru.grocerylist.android'
p142
aS'/app/dhgate-mobile/com.honestwalker.kancart.DHgate.activity'
p143
aS'/app/menards%C2%AE/com.menards.mobile'
p144
aS'/app/rennes-alma/com.unibail.alma'
p145
aS'/app/fidme-loyalty-cards/fr.snapp.fidme'
p146
aS'/app/groupalia/com.groupalia.groupalia'
p147
aS'/app/tiffany-co-ring-finder/com.tiffany.engagement'
p148
aS'/app/yakaz-free-classifieds/com.yakaz'
p149
aS'/app/grocery-iq/com.coupons.GroceryIQ'
p150
aS'/app/vente-privee-com/com.cronostechnologies.ventesprivees'
p151
aS'/app/shopping-list/com.fivefly.android.shoppinglist'
p152
aS'/app/nextag-shopping/com.nextag.android'
p153
aS'/app/leitor-vivo%3A-qr-codes/com.scanbuy.leitorvivo'
p154
aS'/app/yard-sale-treasure-map/com.webmap'
p155
aS'/app/pricez/il.co.PriceZ.android'
p156
aS'/app/byggvaror/se.byggmax.byggvaror'
p157
aS'/app/shopping-uk/com.apps.shoppinguk24'
p158
aS'/app/brands4friends%3A-mode-lifestyle/com.brands4friends.b4f'
p159
aS'/app/lidl-uk-offers-%28beta%29/es.carmheso.lidlofeuk'
p160
aS'/app/garage-sale-rover-free/com.mx123.sales.navigationApp.free'
p161
aS'/app/aeropostale/com.usablenet.launchers.aeropostale'
p162
aS'/app/lidl-nl-offers-beta/es.carmheso.lidlofenl'
p163
aS'/app/grocery-smarts-coupon-shopper/com.grocerysmarts.grocerylist'
p164
aS'/app/souq-%D8%B3%D9%88%D9%82/com.wSouq'
p165
aS'/app/amazon-%E3%83%A2%E3%83%90%E3%82%A4%E3%83%AB-android%E3%82%A2%E3%83%97%E3%83%AA/jp.amazon.mShop.android'
p166
aS'/app/coupons-com/com.coupons.ciapp'
p167
aS'/app/mydealz-schn%C3%A4ppchen-gutscheine/com.tippingcanoe.mydealz'
p168
aS'/app/barcode-scanner-barcoo-qr/de.barcoo.android'
p169
aS'/app/pricerunner/com.pricerunner.android'
p170
aS'/app/savingstar-grocery-ecoupons/com.savingstar.SavingStar'
p171
aS'/app/whats-it-worth-on-ebay-free/de.koloch.evaluator.free'
p172
aS'/app/compare-prices-scan-barcodes/best.price.comparison.shopping'
p173
aS'/app/conrad/com.excelsisnet.android.conradshopping'
p174
aS'/app/padmapper/com.padmapper'
p175
aS'/app/dicks-sporting-goods-mobile/DsgUI.android'
p176
aS'/app/carrefour-saudi/com.app_carrefouren.layout'
p177
aS'/app/b-h-photo-video-pro-audio/com.bhphoto'
p178
aS'/app/priceon/com.codeagency.priceon'
p179
aS'/app/amazon-mobile-launcher/com.et.amazon'
p180
aS'/app/maroc-annonces/com.mobiacube.marocannonces'
p181
aS'/app/fast-food-coupons-pizza-more/com.ohapps.fastfood'
p182
aS'/app/%E5%8D%8A%E5%83%B9%E7%BE%8E%E9%A3%9F%E3%80%81%E4%BD%8F%E5%AE%BF%E5%88%B8%E2%80%A7gomaji%E5%9C%98%E8%B3%BC%E7%B6%B2/com.wantoto.gomaji2'
p183
aS'/app/virtualcards/ro.activesoft.virtualcard'
p184
aS'/app/shopping-list-ease-grocery/shopping.list.grocery.recipes.coupons'
p185
aS'/app/amazon-discount-finder/appinventor.ai_teamreviews.AmazonDiscountFinder'
p186
aS'/app/b-q-club/com.grapplemobile.bqclub'
p187
aS'/app/media-world/com.modomodo.mobile.mediaworldnew'
p188
aS'/app/simon-malls%3A-shopping-mall-app/com.simon.app.simonmalls'
p189
aS'/app/bier-aanbieding/com.wmapzz.bieraanbiedingen'
p190
aS'/app/aldi-australia/de.apptiv.business.android.aldi_au'
p191
aS'/app/qr-code-reader/org.mobpage.qrcode'
p192
aS'/app/2dehands-be/be.tweedehands.m'
p193
aS'/app/loftee-apparel/com.conduit.app_558e381ad00d4797a39c15be4525e85b.app'
p194
aS'/app/copart-mobile/com.copart.mobile'
p195
aS'/app/amazon-com-%28mobile-version%29/com.cs.amazon.com.v2'
p196
aS'/app/deal-drop-track-daily-deals/com.getidealyzer.pro'
p197
aS'/app/inodeals-daily-deals-shop-free/com.inoapp.inodeals.free'
p198
aS'/app/amazon-mobile-pour-android/fr.amazon.mShop.android'
p199
aS'/app/tehnomanija/rs.netlink.android'
p200
a.