(lp0
S'/app/mx-player/com.mxtech.videoplayer.ad'
p1
aS'/app/vlc-for-android-beta/org.videolan.vlc.betav7neon'
p2
aS'/app/%C2%B5torrent%C2%AE-beta-torrent-app/com.utorrent.client'
p3
aS'/app/mediaclip-download-videos/com.appseals.mediaclip.android'
p4
aS'/app/tube-video-downloader/com.acr.tubevideodownloader'
p5
aS'/app/hide-pictures-keepsafe-vault/com.kii.safe'
p6
aS'/app/youtube/com.google.android.youtube'
p7
aS'/app/freebox-free-full-movies/com.moviesdroid'
p8
aS'/app/movie-tube-hd-full-free-movies/com.media.movi.tube'
p9
aS'/app/mx-player-codec-%28armv7%29/com.mxtech.ffmpeg.v7_vfpv3d16'
p10
aS'/app/mx-player-codec-%28armv6-vfp%29/com.mxtech.ffmpeg.v6_vfp'
p11
aS'/app/bsplayer-free/com.bsplayer.bspandroid.free'
p12
aS'/app/ringdroid/com.ringdroid'
p13
aS'/app/realplayer%C2%AE/com.real.RealPlayer'
p14
aS'/app/ip-webcam/com.pas.webcam'
p15
aS'/app/online-tv/com.hacizade.canlitv'
p16
aS'/app/mp3-media-converter/com.MediaConverter'
p17
aS'/app/videoder-video-downloader/com.rahul.videoder'
p18
aS'/app/playtube-free-%28itube%29/com.tfsapps.playtube2'
p19
aS'/app/vplayer-video-player/me.abitno.vplayer.t'
p20
aS'/app/ttorrent-lite-torrent-client/hu.tagsoft.ttorrent.lite'
p21
aS'/app/pvstar-%28youtube-music-player%29/jp.co.asbit.pvstar'
p22
aS'/app/androvid-video-trimmer/com.androvid'
p23
aS'/app/armv7-neon-vidcon-codec/roman10.media.converter.v7neon'
p24
aS'/app/video-downloader/ru.lihmeh.videodownloader'
p25
aS'/app/media-converter/com.AndroidA.MediaConverter'
p26
aS'/app/hide-it-pro/com.smartanuj.hideitpro'
p27
aS'/app/vidtrim-video-trimmer/com.goseet.VidTrim'
p28
aS'/app/movie-tube/com.cloudfruit.english'
p29
aS'/app/vlc-direct-pro-free/com.vlcforandroid.vlcdirectprofree'
p30
aS'/app/official-xbmc-remote/org.xbmc.android.remote'
p31
aS'/app/hd-film-izle/com.filmihd.izle'
p32
aS'/app/ffmpeg-codec-arm-v7-neon/com.MediaConverter.ffmpegCodec.armV7n'
p33
aS'/app/filmon-family-tv/com.filmon.lenovo.livefreetv'
p34
aS'/app/ffmpeg-codec-arm-v7-neon/com.AndroidA.ffmpegCodec.armV7n'
p35
aS'/app/mx-player-codec-%28armv7-neon%29/com.mxtech.ffmpeg.v7_neon'
p36
aS'/app/online-german-tv/com.germany.tv'
p37
aS'/app/smart-swf-player-flash-viewer/com.andy.flash'
p38
aS'/app/imediashare-lite/com.bianor.ams'
p39
aS'/app/atorrent-torrent-downloader/com.mobilityflow.torrent'
p40
aS'/app/video-converter-android/roman10.media.converter'
p41
aS'/app/us-tv-radio-free/com.mdc.ustv'
p42
aS'/app/cinemagram/com.cinemagram.main'
p43
aS'/app/mediahouse-upnp-dlna-browser/com.dbapp.android.mediahouse'
p44
aS'/app/multiclip-pro%3Avideo-downloader/com.teamcapp.mclippro.android'
p45
aS'/app/ustream/tv.ustream.ustream'
p46
aS'/app/meridian-media-player-fusion/org.iii.romulus.meridian'
p47
aS'/app/speaker-boost/mobi.omegacentauri.SpeakerBoost'
p48
aS'/app/online-tv/com.itholster.onlinetv'
p49
aS'/app/%D1%82%D0%B5%D0%BB%D0%B5%D0%B2%D0%B8%D0%B7%D0%BE%D1%80/com.stiga.televizor'
p50
aS'/app/arabic-tv-hot-pro/minhlanh.tb.arabictvnewpro'
p51
aS'/app/general-downloader/com.generalworld.generalfiles'
p52
aS'/app/hubi-streaming-and-download/com.megadevs.hubi'
p53
aS'/app/google-play-movies-tv/com.google.android.videos'
p54
aS'/app/nexus-7-camera-starter/com.gn.android.nexus7camera'
p55
aS'/app/%C2%B5torrent%C2%AE-remote/com.utorrent.web'
p56
aS'/app/%D1%84%D0%B8%D0%BB%D1%8C%D0%BC%D1%8B-%D0%BE%D0%BD%D0%BB%D0%B0%D0%B9%D0%BD-%D0%B2%D0%B8%D0%B4%D0%B5%D0%BE%D0%BC%D0%B8%D0%BA%D1%81/by.movie.grabber.mix'
p57
aS'/app/swf-player-flash-file-viewer/com.issess.flashplayer'
p58
aS'/app/yatse-the-xbmc-remote/org.leetzone.android.yatsewidgetfree'
p59
aS'/app/multiclip-video-download/info.tablemount.multidl.android'
p60
aS'/app/sport-tv-original/sportonnet.com.sporttvorg'
p61
aS'/app/skifta/com.skifta.android.app'
p62
aS'/app/youtube-mp3-downloader/com.andromeda.youtubemp3'
p63
aS'/app/videomediaset/it.fabbricadigitale.android.videomediaset'
p64
aS'/app/tv-sideview/com.sony.tvsideview.phone'
p65
aS'/app/flv-video-player/air.br.com.bitlabs.FLVPlayer'
p66
aS'/app/twonky-beam/com.pv.twonkybeam'
p67
aS'/app/web-of-cam/com.webofcam'
p68
aS'/app/video-locker-hide-videos/com.handyapps.videolocker'
p69
aS'/app/alg%C3%A9rie-t%C3%A9l%C3%A9vision-en-direct/org.yildirim.networks.algeria'
p70
aS'/app/customizable-gallery-3d/com.omichsoft.gallery'
p71
aS'/app/podkicker-podcast-player/ait.podka'
p72
aS'/app/media-remote-for-android/com.sony.seconddisplay.view'
p73
aS'/app/moboplayer/com.clov4r.android.nil'
p74
aS'/app/ds-audio/com.synology.DSaudio'
p75
aS'/app/freedi-youtube-player/tw.com.freedi.youtube.player'
p76
aS'/app/%E9%A3%8E%E8%A1%8C%E7%94%B5%E5%BD%B1/com.funshion.video.mobile'
p77
aS'/app/ennahar-tv/com.madz.ennahartv'
p78
aS'/app/mindig-tv/com.ah.mindigtv'
p79
aS'/app/allmytv/com.iuculano.allmytv'
p80
aS'/app/yatse-stream-plugin/org.leetzone.android.yatsewidgetstreamplugin'
p81
aS'/app/tv-indonesia-streaming/com.ayuku.streaming'
p82
aS'/app/svt-play/air.se.svt.svti.android.svtplayer'
p83
aS'/app/movie-aid/com.asti.moviemaker'
p84
aS'/app/tsf-gallery-widget/com.tsf.shell.widget.gallery'
p85
aS'/app/mp3-cutter/com.beka.tools.mp3cutter'
p86
aS'/app/diceplayer/com.inisoft.mediaplayer.a'
p87
aS'/app/russian-live-tv-free/com.livetv.russia'
p88
aS'/app/ds-photo/com.synology.dsphoto'
p89
aS'/app/playmemories-mobile/com.sony.playmemories.mobile'
p90
aS'/app/remote-wave-free/com.toremote.audio.freeplayer'
p91
aS'/app/uitzending-gemist/nl.uitzendinggemist'
p92
aS'/app/kpn-itv-online/com.kpn.epg'
p93
aS'/app/super-video-floating-popup/gpc.myweb.hinet.net.PopupVideo'
p94
aS'/app/android-studio/com.kaushal.androidstudio'
p95
aS'/app/%D8%A7%D9%84%D9%82%D9%86%D9%88%D8%A7%D8%AA-%D8%A7%D9%84%D8%B9%D8%B1%D8%A8%D9%8A%D8%A9/com.andromo.dev217760.app207507'
p96
aS'/app/indonesia-tv-streaming/id.web.sinaryuda.android.tvstreaming'
p97
aS'/app/mx-player-codec-%28armv6%29/com.mxtech.ffmpeg.v6'
p98
aS'/app/wikimedia-commons/org.wikimedia.commons'
p99
aS'/app/pps%E5%BD%B1%E9%9F%B3%28hd%E7%89%88%29/tv.pps.tpad'
p100
aS'/app/bittorrent%C2%AE-torrent-app/com.bittorrent.client'
p101
aS'/app/mvideocut-video-editor/com.mvideocut'
p102
aS'/app/spy-camera/com.spawn.spy.camera'
p103
aS'/app/%E9%9B%BB%E8%A6%96%E9%80%A3%E7%BA%8C%E5%8A%87-%28%E6%9C%80%E6%96%B0%E5%8F%B0%E5%8A%87%E3%80%81%E9%9F%93%E5%8A%87%E3%80%81%E5%A4%A7%E9%99%B8%E5%8A%87%E3%80%81%E6%97%A5%E5%8A%87%29/com.jumplife.tvdrama'
p104
aS'/app/veetle/com.veetle.android.lite'
p105
aS'/app/photo-locker-hide-pictures/com.handyapps.photoLocker'
p106
aS'/app/youku-movie%EF%BC%8Ctv%EF%BC%8Ccartoon%EF%BC%8Cmusic/com.youku.phone'
p107
aS'/app/greek-live-tv/com.itholster.greektvlive'
p108
aS'/app/mitty-torrents/com.mitty.mobile'
p109
aS'/app/tinycam-monitor-free/com.alexvas.dvr'
p110
aS'/app/datpiff-mobile/com.datpiff.mobile'
p111
aS'/app/filmon-america-tv/com.ftv.america'
p112
aS'/app/%D0%BA%D0%B8%D0%BD%D0%BE%D1%82%D0%B5%D0%B0%D1%82%D1%80-ivi-ru-%D1%84%D0%B8%D0%BB%D1%8C%D0%BC%D1%8B-%D0%BE%D0%BD%D0%BB%D0%B0%D0%B9%D0%BD/ru.ivi.client'
p113
aS'/app/avd-download-video-downloader/com.myboyfriendisageek.videocatcher.demo'
p114
aS'/app/convert-video-to-mp3/com.keerby.videotomp3'
p115
aS'/app/livestream-for-producers/com.livestream.livestream'
p116
aS'/app/mx-player-codec-%28armv5%29/com.mxtech.ffmpeg.v5te'
p117
aS'/app/convert-video-to-mp3/tmn.videotomp3'
p118
aS'/app/podcast-addict/com.bambuna.podcastaddict'
p119
aS'/app/floating-youtube-popup-video/com.sudsoftware.floatingyoutubepopupplayer'
p120
aS'/app/sport-tv/com.itholster.sporttv'
p121
aS'/app/mini-karaoke/xxlsoft.tool.kara'
p122
aS'/app/online-tv-romania/com.alexd.tv.online'
p123
aS'/app/tvgoo-live-tv/com.muratkilic.tvgoo'
p124
aS'/app/maroc-tv-en-direct/org.yildirim.networks.maroc'
p125
aS'/app/my-vodobox-flash-server/my.vodobox'
p126
aS'/app/vu-player/com.vuplus.vuplusplayer'
p127
aS'/app/mediaclip-pro%3Avideo-downloader/info.beatapps.mdaclip.android'
p128
aS'/app/france-live-tv/com.itholster.francelivetv'
p129
aS'/app/sketchbook-express-for-tablets/com.adsk.sketchbookhdexpress'
p130
aS'/app/sketchbook-mobile-express/com.sketchbookexpress'
p131
aS'/app/hide-pictures-in-vaulty/com.theronrogers.vaultyfree'
p132
aS'/app/ver-peliculas-completas-2-0/com.mongi.zaidi.verpeliculascompletas'
p133
aS'/app/simple-tv/idevel.simpletv.go'
p134
aS'/app/%EB%84%A4%EC%9D%B4%EB%B2%84-%EB%AF%B8%EB%94%94%EC%96%B4-%ED%94%8C%EB%A0%88%EC%9D%B4%EC%96%B4/com.nhn.android.naverplayer'
p135
aS'/app/tv-thailand/com.iamm.android.tvthai'
p136
aS'/app/avia-media-player/com.videon.android.mediaplayer'
p137
aS'/app/all-video-downloader/com.mav.allvideodownloader'
p138
aS'/app/ds-video/com.synology.dsvideo'
p139
aS'/app/vine-flow-%28vine-video-app%29/com.thirtymatches.vineflow'
p140
aS'/app/arte/tv.arte.plus7'
p141
aS'/app/wondershare-player/com.wondershare.player'
p142
aS'/app/vine-eye-%28vine-app%29/com.nutshell.vineeye'
p143
aS'/app/daroon-player/com.daroonplayer.dsplayer'
p144
aS'/app/diceplayer-plugin-for-tegra2/com.inisoft.mediaplayer.tegra2'
p145
aS'/app/rtl-xl/com.tapptic.rtl5.rtlxl'
p146
aS'/app/yatse-unlocker/org.leetzone.android.yatsewidgetunlocker'
p147
aS'/app/hd-video-player-free/com.app.truong531developer.player'
p148
aS'/app/samsung-tv-media-player/com.zappotvsamsung'
p149
aS'/app/imgur-for-android/com.imgurforandroid'
p150
aS'/app/samsung-tv-media-player/com.zappotvsamsung'
p151
aS'/app/ringcut-ringtone-maker/com.ringcut'
p152
aS'/app/android-media-player/mobi.pixi.media.player'
p153
aS'/app/guitar-tuner/com.resoundspot.guitartuner.lite'
p154
aS'/app/mobile-video-surveillance/air.icamspy'
p155
aS'/app/best-of-youtube/com.bestofyoutube'
p156
aS'/app/sound-recorder/com.needom.recorder'
p157
aS'/app/tvitaliane-legacy-the-origin/com.iuculano.tvitaliane2'
p158
aS'/app/megogo-net-%D0%BE%D0%BD%D0%BB%D0%B0%D0%B9%D0%BD-%D0%BA%D0%B8%D0%BD%D0%BE%D1%82%D0%B5%D0%B0%D1%82%D1%80/com.megogo.application'
p159
aS'/app/movie-hd-player-mp4-avi-rmvb/com.Movie_HD_Player_MP4_AVI_RMVB_120415'
p160
aS'/app/stream-tv/com.itholster.streamtv'
p161
aS'/app/download-everything-next/com.rahul.DownloadEverythingNext'
p162
aS'/app/francetv-pluzz/fr.francetv.pluzz'
p163
aS'/app/iptv/ru.iptvremote.android.iptv'
p164
aS'/app/rmvb-avi-mp4-media-player/com.RMVB_AVI_MP4_Media_Player_120415'
p165
aS'/app/hd-live-tv/com.hdtv.live'
p166
aS'/app/my-mixtapez/me.musicfl.droid'
p167
aS'/app/appletv-airplay-media-player/com.zappotvapple'
p168
aS'/app/archos-video-player-free/com.archos.mediacenter.videofree'
p169
aS'/app/%D9%85%D8%B3%D9%84%D8%B3%D9%84%D8%A7%D8%AA/net.Nadsoft.moslslat'
p170
aS'/app/pel%C3%ADculas-completas-gratis/com.santi.pelisyoutube'
p171
aS'/app/doggcatcher-podcast-player/com.snoggdoggler.android.applications.doggcatcher.v1_0'
p172
aS'/app/al-baghdadia-tv-%D9%82%D9%86%D8%A7%D8%A9-%D8%A7%D9%84%D8%A8%D8%BA%D8%AF%D8%A7%D8%AF%D9%8A%D8%A9/alBaghdadia.Live'
p173
aS'/app/yelo-tv/be.telenet.yelo'
p174
aS'/app/viddy/com.viddy.Viddy'
p175
aS'/app/oman-tv/co.smart_app.OmanTv'
p176
aS'/app/scandinavian-tv/com.itholster.scandinaviantv'
p177
aS'/app/wevideo-video-editor/com.wevideo.mobile.android'
p178
aS'/app/seriesdroid/com.lowlevel.seriesdroid'
p179
aS'/app/%D9%83%D8%A7%D9%85%D9%84-%D9%85%D9%86-%D8%A3%D9%81%D9%84%D8%A7%D9%85/com.santi.arabe'
p180
aS'/app/tubebook-movie-downloader/mobi.hipipal.ysearch'
p181
aS'/app/free-internet-cam-%28web-of-cam%29/com.ivuu'
p182
aS'/app/chile-en-vivo-tv/org.yildirim.networks.chile'
p183
aS'/app/video-tube-%28youtube-player%29/com.xellentapps.videotube'
p184
aS'/app/kazoo/com.itholster.kazoo'
p185
aS'/app/best-free-movies/com.subapp.freemovie.youtube'
p186
aS'/app/plex-for-plexpass/com.plexapp.plex'
p187
aS'/app/media-server/es.mediaserver'
p188
aS'/app/youtube-player-smarttube/com.ohcorea.videodiscovery'
p189
aS'/app/qloud-media-gold/mobi.qiss.vega.pro.gold'
p190
aS'/app/droidiris/org.droidiris'
p191
aS'/app/seagate-media%E2%84%A2-app/com.seagate.goflexsatellite'
p192
aS'/app/hot-video/com.hot.video'
p193
aS'/app/pogoplug/com.pogoplug.android'
p194
aS'/app/ffmpeg-codec-arm-v7-vfp-v3/com.AndroidA.ffmpegCodec.armV7v3'
p195
aS'/app/bsplayer-armv7-vfp-cpu-support/com.bsplayer.bsplayeran.cpu.armv7v'
p196
aS'/app/tv-espa%C3%B1a/tvespana.droidmanagement'
p197
aS'/app/%D8%AA%D9%86%D8%B2%D9%8A%D9%84-%D8%A7%D9%81%D9%84%D8%A7%D9%85-%D8%B9%D8%B1%D8%A8%D9%8A%D8%A9-%D9%84%D9%84%D9%83%D8%A8%D8%A7%D8%B1-%D9%81%D9%82%D8%B7/com.greensoftware.arabicfilmnew'
p198
aS'/app/agamba-tv-chile/cl.agamba.tv'
p199
aS'/app/ratpoison-podcast-youtube/com.didueattherat'
p200
a.