(lp0
S'/app/pocket/com.ideashower.readitlater.pro'
p1
aS'/app/feedly-google-reader-news-rss/com.devhd.feedly'
p2
aS'/app/flipboard%3A-your-news-magazine/flipboard.app'
p3
aS'/app/android-updates-news-apps/com.drippler.android.updates'
p4
aS'/app/nos/nl.nos.app'
p5
aS'/app/the-guardian/com.guardian'
p6
aS'/app/yahoo/com.yahoo.mobile.client.android.yahoo'
p7
aS'/app/taptu-dj-your-news/com.taptu.streams'
p8
aS'/app/google-currents/com.google.android.apps.currents'
p9
aS'/app/undi-pru13-malaysian-election/com.appandus.ge13'
p10
aS'/app/reddit-is-fun/com.andrewshu.android.reddit'
p11
aS'/app/reader-for-google-news/com.abarakat.news'
p12
aS'/app/ultimate-galaxy-note-2-app/drippler.samsung.galaxy.noteii'
p13
aS'/app/ultimate-samsung-galaxy-s3-app/drippler.samsung.galaxy.siii'
p14
aS'/app/astroawani/my.com.astro.awani'
p15
aS'/app/listen-to-bbc/com.airfree.apps.bbcRadio'
p16
aS'/app/player-fm/fm.player'
p17
aS'/app/daily-mail-online/com.dailymail.online'
p18
aS'/app/%D8%B5%D8%AD%D9%8A%D9%81%D8%A9-%D8%B3%D8%A8%D9%82/com.baypars.android.sabq'
p19
aS'/app/bbc-news/bbc.mobile.news.uk'
p20
aS'/app/nytimes-for-android/com.nytimes.android'
p21
aS'/app/fox-news/com.foxnews.android'
p22
aS'/app/huffington-post-for-android/com.huffingtonpost.android'
p23
aS'/app/baconreader-for-reddit/com.onelouder.baconreader'
p24
aS'/app/fast-news/it.pinenuts.rassegnastampa'
p25
aS'/app/de-standaard-avond/com.twipemobile.dsavond'
p26
aS'/app/greader-%28google-reader-%7C-rss%29/com.noinnion.android.greader.reader'
p27
aS'/app/bbc-news/bbc.mobile.news.ww'
p28
aS'/app/%E7%A5%9E2ch%E3%81%BE%E3%81%A8%E3%82%81%E3%83%AA%E3%83%BC%E3%83%80%E3%83%BC%E5%BC%90%E5%8F%B7%E6%A9%9F%E3%80%9C%EF%BC%92%E3%81%A1%E3%82%83%E3%82%93%E3%81%AD%E3%82%8B%E3%81%AE%E9%9D%A2%E7%99%BD%E3%83%8B%E3%83%A5%E3%83%BC%E3%82%B9%E3%80%9C/com.marvelous.media.smartnich.summary'
p29
aS'/app/npr-news/org.npr.android.news'
p30
aS'/app/focus-online-nachrichten/de.cellular.focus'
p31
aS'/app/%E8%98%8B%E6%9E%9C%E6%97%A5%E5%A0%B1-appledaily/com.nextmedia'
p32
aS'/app/tgcom24/it.froggy.tgcom'
p33
aS'/app/jang-news/com.snr.jang.pk'
p34
aS'/app/%D8%B9%D8%A7%D8%AC%D9%84/com.weblanca.burnews'
p35
aS'/app/zinio/com.zinio.mobile.android.reader'
p36
aS'/app/al-arabiya-%D8%A7%D9%84%D8%B9%D8%B1%D8%A8%D9%8A%D8%A9/net.alarabiya.android.bo.activity'
p37
aS'/app/android-central-forums/com.quoord.tapatalkacf.activity'
p38
aS'/app/tagesschau/de.cellular.tagesschau'
p39
aS'/app/newshunt-%3A-india-news-%7C-jobs/com.eterno'
p40
aS'/app/lotto-results/com.mylottos.results'
p41
aS'/app/sabq-arabic-news-%D8%B5%D8%AD%D9%8A%D9%81%D8%A9-%D8%B3%D8%A8%D9%82/com.sabq.news'
p42
aS'/app/%D8%A3%D8%AE%D8%A8%D8%A7%D8%B1-%D8%A7%D9%84%D8%AA%D9%83%D9%86%D9%88%D9%84%D9%88%D8%AC%D9%8A%D8%A7/com.news.it'
p43
aS'/app/%D9%83%D9%8A%D9%88%D9%86%D9%88%D8%AA%D9%83-%D8%A3%D9%86%D8%AF%D8%B1%D9%88%D9%8A%D8%AF/com.cunotic.app'
p44
aS'/app/engadget/com.aol.mobile.engadget'
p45
aS'/app/al-alam-mobile/com.codeofzero.alalammobile'
p46
aS'/app/t%C3%BCm-gazeteler/com.mobikolik.tumgazeteler'
p47
aS'/app/cnn-app-for-android-phones/com.cnn.mobile.android.phone'
p48
aS'/app/the-verge/com.verge.android'
p49
aS'/app/%E0%B8%95%E0%B8%A3%E0%B8%A7%E0%B8%88%E0%B8%AB%E0%B8%A7%E0%B8%A2/nws.android.thaihuay'
p50
aS'/app/beyondpod-podcast-manager/mobi.beyondpod'
p51
aS'/app/alsumaria-tv/com.sumarya'
p52
aS'/app/t%C3%BDden%C3%ADk-dotyk/cz.triobo.reader.android.dotyk'
p53
aS'/app/ultimate-google-nexus-7-app/drippler.google.nexus7'
p54
aS'/app/euronews-express/com.euronews.express'
p55
aS'/app/simple-rss-widget/de.j4velin.rssWidget'
p56
aS'/app/spiegel-online/de.spiegel.android.app.spon'
p57
aS'/app/computer-idee-hd/com.floqr.computeridee'
p58
aS'/app/usa-today/com.usatoday.android.news'
p59
aS'/app/buzzfeed/com.buzzfeed.android'
p60
aS'/app/all-khmer-news-khmer-version/com.andromo.dev133664.app203688'
p61
aS'/app/umano%3A-news-read-to-you/com.sothree.umano'
p62
aS'/app/mako-mobile/com.goldtouch.mako'
p63
aS'/app/appy-geek/com.mobilesrepublic.appygeek'
p64
aS'/app/justundi-ge13-%28pru13%29/com.etoff.undilah'
p65
aS'/app/zdfheute/de.heute.mobile'
p66
aS'/app/quotidiani-italiani/air.apps.NewsEnterprise.quotidianiitaliani'
p67
aS'/app/metro-digital-edition/com.metro.metrotablet'
p68
aS'/app/newshog%3A-google-news-weather/net.solomob.android.newshog'
p69
aS'/app/the-economist/uk.co.economist'
p70
aS'/app/keputusan-keseluruhan-pru13/com.wKeputusanKeseluruhanPRU13'
p71
aS'/app/the-times-of-india/com.toi.reader.activities'
p72
aS'/app/ap-mobile/mnn.Android'
p73
aS'/app/food/com.mangolee.D10.arabic.food.recipe.dubai'
p74
aS'/app/ipp-podcast-player/com.itunestoppodcastplayer.app'
p75
aS'/app/reddit-sync/com.laurencedawson.reddit_sync'
p76
aS'/app/%D8%B3%D8%A8%D9%82-%D8%A7%D9%84%D8%A5%D9%84%D9%83%D8%AA%D8%B1%D9%88%D9%86%D9%8A%D8%A9/com.steptoapps.news.sabq'
p77
aS'/app/%D8%A7%D8%AE%D8%A8%D8%A7%D8%B1-%D8%A7%D9%84%D8%AA%D8%B7%D8%A8%D9%8A%D9%82%D8%A7%D8%AA-%D9%84%D9%84%D8%A7%D9%86%D8%AF%D8%B1%D9%88%D9%8A%D8%AF/com.aldiwanmobile.akhbareltatbekat'
p78
aS'/app/samsung-update/samsungupdate.com'
p79
aS'/app/android-news-updates/com.androidauthority'
p80
aS'/app/nu-nl/nl.peperzaken.android.nu'
p81
aS'/app/pas-touch-n-get/com.jitp.pas.touch.n.get'
p82
aS'/app/singapore-news/com.app.news.singapore'
p83
aS'/app/news-weather-%28beta%29/com.awnry.android.nawnry'
p84
aS'/app/nawa3em/com.nawa3em'
p85
aS'/app/minecraft-pe-cheats/com.uppsite.WordPressorg.MinecraftPocketEditionCheat125486'
p86
aS'/app/apps-updates-for-galaxy-note/drippler.samsung.galaxy.note'
p87
aS'/app/odd-curious/com.mangolee.D10.funny.odd.curious.facebook.youtube'
p88
aS'/app/%D9%86%D8%B8%D8%A7%D9%85-%D9%86%D9%88%D8%B1-%D9%86%D8%AA%D8%A7%D8%A6%D8%AC-%D8%A7%D9%84%D8%B7%D9%84%D8%A7%D8%A8-1434/cleopatra.webview.mos_app83'
p89
aS'/app/%D8%B5%D8%AD%D9%8A%D9%81%D8%A9-%D8%B3%D8%A8%D9%82/com.ultim8soft.android.web.app.sabq'
p90
aS'/app/%D8%B5%D8%AD%D9%8A%D9%81%D8%A9-%D8%B3%D8%A8%D9%82/com.ultim8soft.android.web.app.sabq'
p91
aS'/app/%D8%A7%D9%84%D8%B9%D8%B1%D8%A8%D9%8A%D8%A9-%D9%86%D8%AA/com.steptoapps.news.alarabia'
p92
aS'/app/the-wall-street-journal-mobile/wsj.reader_sp'
p93
aS'/app/droidsoft-fr-%3A-bons-plans-et/fr.keyup.droidsoft'
p94
aS'/app/malaysiakini-online/com.wMalaysiakiniOnline'
p95
aS'/app/phys-org-science-news-lite/com.PhysOrg.RssLite'
p96
aS'/app/a-bola-%7C-not%C3%ADcias-de-desporto/com.abolanoticias'
p97
aS'/app/%D8%A7%D9%84%D8%A3%D8%AE%D8%A8%D8%A7%D8%B1-%D8%A7%D9%84%D8%B9%D8%A7%D8%AC%D9%84%D8%A9/com.androyal.breakingnews'
p98
aS'/app/the-independent/com.freerange360.mpp.indy'
p99
aS'/app/ultimate-samsung-galaxy-s2-app/drippler.samsung.galaxy.sii'
p100
aS'/app/youm7-mob-%D8%A7%D9%84%D9%8A%D9%88%D9%85-%D8%A7%D9%84%D8%B3%D8%A7%D8%A8%D8%B9-%D9%85%D9%88%D8%A8%D8%A7%D9%8A%D9%84/youm7.mobile'
p101
aS'/app/geo-news/com.snr'
p102
aS'/app/detikcom/org.detikcom.rss'
p103
aS'/app/%E9%84%89%E6%B0%91%E6%99%9A%E5%A0%B1/com.moska.pnn'
p104
aS'/app/televideo/com.jappit.android.televideo'
p105
aS'/app/nra/air.org.nranews.airapp.NRAMobile'
p106
aS'/app/us-newspapers/com.barisefe.usnewspapers'
p107
aS'/app/daily-mail-online-tablet/com.dailymail.tablet'
p108
aS'/app/berita-baru-pru13/com.exgarage.beritabaru.app'
p109
aS'/app/useful/topdroidapps.tv.live.sport.guide'
p110
aS'/app/newspapers-uk-usa-world-news/uk.co.wikiapps.news'
p111
aS'/app/tweakers/com.icemobile.tweakers'
p112
aS'/app/androidpit/de.androidpit.app'
p113
aS'/app/yahoo-japan/jp.co.yahoo.android.yjtop'
p114
aS'/app/%D8%A7%D9%84%D8%AC%D8%B2%D9%8A%D8%B1%D8%A9/net.aljazeera.arabic'
p115
aS'/app/banoosh/banoosh.com'
p116
aS'/app/world-news-live24/com.application.worldnewslive24'
p117
aS'/app/financial-times/com.ft.news'
p118
aS'/app/nana10-%E2%80%93-%D7%A0%D7%A2%D7%A0%D7%A210/com.jvesoft.magazine.nana'
p119
aS'/app/coolpix/com.mangolee.d10.funny.hot.pics.arabic.flickr.instagram'
p120
aS'/app/pakistan-tv-live/com.kaashtv.pakistantvlive'
p121
aS'/app/chip-app-guide/de.chip.appguide'
p122
aS'/app/iltalehti-fi/fi.iltalehti.iltalehti'
p123
aS'/app/readability/com.readability'
p124
aS'/app/minecraft-pe-epic-seeds/com.wiziapp.app102153'
p125
aS'/app/white-house/gov.whitehouse'
p126
aS'/app/euronews-live/com.euronews.euronewslive'
p127
aS'/app/al-ahram/com.nazzelha.alahram.main'
p128
aS'/app/reddit-news/reddit.news'
p129
aS'/app/on-cc-%E6%9D%B1%E6%96%B9%E4%BA%92%E5%8B%95/com.news.on'
p130
aS'/app/%E9%80%B1%E5%88%8A%E8%AA%8C%E3%81%8C%E7%84%A1%E6%96%99%E3%81%A7%E8%AA%AD%E3%81%BF%E6%94%BE%E9%A1%8C/com.iwww.magazine'
p131
aS'/app/on-cc-%E6%9D%B1%E6%96%B9%E4%BA%92%E5%8B%95/com.news.on'
p132
aS'/app/rfi/com.rfi.androidapp'
p133
aS'/app/24-canal-24h-multipantalla/com.rtve.mas24'
p134
aS'/app/us-newspapers/com.lander.usnewspapers'
p135
aS'/app/giga/de.econa.giga.android'
p136
aS'/app/n-tv-nachrichten/de.lineas.lit.ntv.android'
p137
aS'/app/%D8%AA%D8%A7%D8%A8%D8%B9/com.topnews'
p138
aS'/app/naslovi/rs.netmark.naslovi'
p139
aS'/app/al-arabiya-net-%D8%A7%D9%84%D8%B9%D8%B1%D8%A8%D9%8A%D8%A9-%D9%86%D8%AA/alarabiya.net'
p140
aS'/app/bfmtv/com.nextradiotv.bfmtvandroid'
p141
aS'/app/ansa/ansa.app'
p142
aS'/app/india-today-hindi/com.magzter.indiatoday.hindi'
p143
aS'/app/sveriges-radio-play/se.sr.android'
p144
aS'/app/my-election-2013/com.and.rivansoft.ge13'
p145
aS'/app/al-jazeera-english/net.aljazeera.english'
p146
aS'/app/vab-magazine/com.magnusmedia.vab.magazine.android'
p147
aS'/app/reuters-news-pro/com.reuters.android.activities'
p148
aS'/app/sky-news/com.bskyb.skynews.android'
p149
aS'/app/%D9%85%D8%AC%D9%84%D8%A7%D8%AA-%D8%A7%D9%84%D9%85%D8%B1%D8%A3%D8%A9-%D8%A7%D9%84%D8%B9%D8%B1%D8%A8%D9%8A%D8%A9/com.wom.world'
p150
aS'/app/20-minuten-online/ch.iAgentur.i20Min'
p151
aS'/app/google-zeitgeist-2012/com.google.android.apps.zeitgeist'
p152
aS'/app/the-mirror-app/com.mirror.news'
p153
aS'/app/rthk-on-the-go/hk.rthk.fwRTHK01'
p154
aS'/app/cnnmoney-for-android-phones/com.cnn.cnnmoney'
p155
aS'/app/%D8%A3%D8%AE%D8%A8%D8%A7%D8%B1-%D9%85%D8%B5%D8%B1/masry.mobile'
p156
aS'/app/gujarati-news-daily/com.trackthebird.onlinegujaratinews'
p157
aS'/app/cbc-news/ca.cbc.mobile.android.cbcnewsandroidwebview'
p158
aS'/app/alsabaah-iraqi-newspaper/com.alsabaah.mobilenews'
p159
aS'/app/ge13/com.nerdattack.ge13'
p160
aS'/app/volkskrant-nl-mobile/be.persgroep.android.news.mobilevk'
p161
aS'/app/the-complete-alex-jones/com.droidworks.android.alexjones'
p162
aS'/app/gopetrescuesaga/com.gamerhook.gopetrescuesaga'
p163
aS'/app/dagens-nyheter/mobil.dn.se'
p164
aS'/app/time-mobile/com.Time'
p165
aS'/app/science-daily-news/com.bsp.sdnews'
p166
aS'/app/urdu-news-online/com.greatestwebapp.urdunewsonline'
p167
aS'/app/malaysia-news-online-%E9%A9%AC%E6%9D%A5%E8%A5%BF%E4%BA%9A%E6%96%B0%E9%97%BB/com.NewsOnline.MalaysiaNewsOnline'
p168
aS'/app/primera-hora/com.primera.android'
p169
aS'/app/android-news/it.pinenuts.androidnoticias'
p170
aS'/app/nos-teletekst/com.eoffice.android'
p171
aS'/app/latest-android-news/com.latest.android.news'
p172
aS'/app/cbs-news/com.treemolabs.apps.cbsnews'
p173
aS'/app/new-kompas-com-%28unofficial%29/com.salkuadrat.kompasdroid'
p174
aS'/app/onion-news-network/com.theonion.onn'
p175
aS'/app/ad-nl-mobile/be.persgroep.android.news.mobilead'
p176
aS'/app/cnet/com.treemolabs.apps.cnet'
p177
aS'/app/thai-news-%28%E0%B8%82%E0%B9%88%E0%B8%B2%E0%B8%A7-%E0%B8%AB%E0%B8%99%E0%B8%B1%E0%B8%87%E0%B8%AA%E0%B8%B7%E0%B8%AD%E0%B8%9E%E0%B8%B4%E0%B8%A1%E0%B8%9E%E0%B9%8C%29/com.thai_news'
p178
aS'/app/appy-geek-for-tablet/com.mobilesrepublic.appygeektablet'
p179
aS'/app/tablisto/com.yellowmind.tablisto.bruna'
p180
aS'/app/ultimate-galaxy-note-10-1-app/drippler.samsung.galaxy.note101'
p181
aS'/app/snarvei-vg-no/com.agens.android.vgsnarvei'
p182
aS'/app/%D8%B5%D8%AD%D9%8A%D9%81%D8%A9-%D8%B9%D9%83%D8%A7%D8%B8/masraim.webview.okaz'
p183
aS'/app/walla-%D7%95%D7%95%D7%90%D7%9C%D7%94/com.walla'
p184
aS'/app/lotto-thai/com.sanook.lottothai'
p185
aS'/app/frandroid/com.frandroid.app'
p186
aS'/app/nbc-news/com.zumobi.msnbc'
p187
aS'/app/ultimate-galaxy-nexus-app/drippler.samsung.galaxy.nexus'
p188
aS'/app/ultimate-galaxy-tab-2-7-0-app/drippler.samsung.galaxy.tab270'
p189
aS'/app/trouw-nl-mobile/be.persgroep.android.news.mobiletr'
p190
aS'/app/ultimate-galaxy-tab-2-7-0-app/drippler.samsung.galaxy.tab270'
p191
aS'/app/trouw-nl-mobile/be.persgroep.android.news.mobiletr'
p192
aS'/app/atext-tv/com.harjuconsulting.texttv'
p193
aS'/app/soundgecko/com.onetwoonecast.soundgecko'
p194
aS'/app/nrc/com.twipemobile.nrc'
p195
aS'/app/novinky-cz/cz.seznam.novinky'
p196
aS'/app/technology-and-science-news/eu.vesuviansoftware.onlynews.gossip'
p197
aS'/app/%E3%83%8B%E3%83%A5%E3%83%BC%E3%82%B9%E3%81%8C%E5%BF%AB%E9%81%A9%E3%81%AB%E8%AA%AD%E3%82%81%E3%82%8B%EF%BC%81smartnews%EF%BC%8F%E3%82%B9%E3%83%9E%E3%83%BC%E3%83%88%E3%83%8B%E3%83%A5%E3%83%BC%E3%82%B9/jp.gocro.smartnews.android'
p198
aS'/app/%D9%87%D9%8A%D9%85%D9%86-%D9%84%D9%84%D8%A3%D9%86%D8%AF%D8%B1%D9%88%D9%8A%D8%AF-himan-magazine/com.andromo.dev99819.app106325'
p199
aS'/app/breaking-news/com.breakingnews'
p200
a.