(lp0
S'/app/dictionary-com/com.dictionary'
p1
aS'/app/sky-map/com.google.android.stardroid'
p2
aS'/app/wikipedia/org.wikipedia'
p3
aS'/app/kindle/com.amazon.kindle'
p4
aS'/app/aldiko-book-reader/com.aldiko.android'
p5
aS'/app/bible/com.sirma.mobile.bible.android'
p6
aS'/app/audible-for-android/com.audible.application'
p7
aS'/app/quran-android/com.quran.labs.androidquran'
p8
aS'/app/google-play-books/com.google.android.apps.books'
p9
aS'/app/cool-reader/org.coolreader'
p10
aS'/app/english-dictionary-offline/livio.pack.lang.en_US'
p11
aS'/app/%D8%A7%D9%84%D8%A5%D9%86%D9%80%D8%AC%D9%84%D9%8A%D8%B2%D9%8A%D8%A9-%D8%A8%D8%AF%D9%88%D9%86-%D9%85%D8%B9%D9%84%D9%85/com.ibs.learnenglish'
p12
aS'/app/dictionary-merriam-webster/com.merriamwebster'
p13
aS'/app/offline-dict-en-ar/bz.ddd.engarbdict'
p14
aS'/app/dictionary/com.tfd.mobile.TfdSearch'
p15
aS'/app/whitepages/com.whitepages.search'
p16
aS'/app/goodreads/com.goodreads'
p17
aS'/app/moon-reader/com.flyersoft.moonreader'
p18
aS'/app/kobo/com.kobobooks.android'
p19
aS'/app/french-dictionary/livio.pack.lang.fr_FR'
p20
aS'/app/free-books-stories-wattpad/wp.wattpad'
p21
aS'/app/knots-guide/com.max.KnotsGuide'
p22
aS'/app/%D8%AA%D9%81%D8%B3%D9%8A%D8%B1-%D8%A7%D9%84%D8%A3%D8%AD%D9%84%D8%A7%D9%85-%D9%84%D8%A7%D8%A8%D9%86-%D8%B3%D9%8A%D8%B1%D9%8A%D9%86/com.tafseer.ahlam'
p23
aS'/app/spanish-translator/pl.pleng.spanish'
p24
aS'/app/urban-dictionary-%28official%29/com.urbandictionary.android'
p25
aS'/app/quotable/com.bluepandaapps.quoteoftheday'
p26
aS'/app/%D8%A7%D9%84%D9%82%D8%B1%D8%A3%D9%86-%D8%A7%D9%84%D9%83%D8%B1%D9%8A%D9%85-%D9%83%D8%A7%D9%85%D9%84%D8%A7/com.mobiarabia.quranApp'
p27
aS'/app/fbreader/org.geometerplus.zlibrary.ui.android'
p28
aS'/app/offline-dictionaries/fr.nghs.android.dictionnaires'
p29
aS'/app/ifixit%3A-repair-manual/com.dozuki.ifixit'
p30
aS'/app/nook/bn.ereader'
p31
aS'/app/universal-book-reader/com.mobisystems.ubreader_west'
p32
aS'/app/%D8%B5%D8%AD%D9%8A%D8%AD-%D8%A7%D9%84%D8%A8%D8%AE%D8%A7%D8%B1%D9%8A-%D9%83%D8%A7%D9%85%D9%84%D8%A7/com.reda.sahihbukhari'
p33
aS'/app/paginebianche/it.seatpg.paginebianche'
p34
aS'/app/galaxy-note-ii-users-digest/kr.co.samsung.note_2'
p35
aS'/app/periodic-table/com.socratica.mobile.chemistry'
p36
aS'/app/colordict-dictionary-wikipedia/com.socialnmobile.colordict'
p37
aS'/app/%D8%B5%D8%AD%D9%8A%D8%AD-%D9%85%D8%B3%D9%84%D9%85-%D9%83%D8%A7%D9%85%D9%84%D8%A7/com.reda.sahihmuslim'
p38
aS'/app/grondwet/com.itude.mobile.bt.grondwet'
p39
aS'/app/overdrive-media-console/com.overdrive.mobile.android.mediaconsole'
p40
aS'/app/%D9%85%D9%88%D8%B7%D8%A3-%D8%A7%D9%84%D8%A5%D9%85%D8%A7%D9%85-%D9%85%D8%A7%D9%84%D9%83/com.reda.malek'
p41
aS'/app/quran-%D8%A7%D9%84%D9%82%D8%B1%D8%A2%D9%86-%D8%A7%D9%84%D9%83%D8%B1%D9%8A%D9%85/com.aboYazn.Quran'
p42
aS'/app/%D8%AA%D9%81%D8%B3%D9%8A%D8%B1-%D8%A7%D9%84%D8%A7%D8%AD%D9%84%D8%A7%D9%85-%D8%A8%D8%A7%D9%84%D8%AD%D8%B1%D9%88%D9%81/com.codendot.tafsiralahlam'
p43
aS'/app/german-translator/pl.pleng.german'
p44
aS'/app/%D8%A7%D9%84%D8%B7%D8%B1%D9%8A%D9%82-%D8%A5%D9%84%D9%89-%D8%A7%D9%84%D9%86%D8%AC%D8%A7%D8%AD-%D8%AF-%D8%A7%D9%84%D9%81%D9%82%D9%8A/abboudi.aliwi.dr.fiqi'
p45
aS'/app/arabic-french-dictionary-free/com.vpdevelopment.dict.arabfr.free'
p46
aS'/app/bible-study/biblereader.olivetree'
p47
aS'/app/%D8%AD%D9%83%D9%85-%D8%A7%D9%84%D8%A7%D9%85%D8%A7%D9%85-%D8%B9%D9%84%D9%8A-%D8%B9%D9%84%D9%8A%D9%87-%D8%A7%D9%84%D8%B3%D9%84%D8%A7%D9%85/com.almulla.ali2'
p48
aS'/app/mysword-bible/com.riversoft.android.mysword'
p49
aS'/app/camdictionary/com.intsig.camdict'
p50
aS'/app/galaxy-s%E2%85%B2-user%E2%80%99s-digest/kr.co.samsung.galaxys3'
p51
aS'/app/%D8%A7%D9%84%D9%83%D8%AA%D8%A8-%D8%A7%D9%84%D9%85%D8%AF%D8%B1%D8%B3%D9%8A%D8%A9/com.nthinkers.ksamoe'
p52
aS'/app/duckduckgo-search/com.duckduckgo.mobile.android'
p53
aS'/app/audiobooks/com.audiobooks.androidapp'
p54
aS'/app/wordreference-com-dictionaries/com.wordreference'
p55
aS'/app/bing/com.microsoft.bing'
p56
aS'/app/scribd/com.scribd.app.reader0'
p57
aS'/app/talking-translator-dictionary/com.greenleaf.android.translator.enes.a'
p58
aS'/app/cleverbook-a-minecraft-guide/com.makru.minecraftbook'
p59
aS'/app/army-survival-guide/com.androidtrainer.survive'
p60
aS'/app/idioms-and-phrases-dictionary/com.ani.apps.idioms.and.phrases'
p61
aS'/app/plants-vs-zombies-tricks/com.a182305308517478677b4725a.a45507022a'
p62
aS'/app/italian-dictionary/livio.pack.lang.it_IT'
p63
aS'/app/%D9%81%D8%AA%D8%A7%D9%88%D9%8A-%D8%A7%D8%A8%D9%86-%D8%B9%D8%AB%D9%8A%D9%85%D9%8A%D9%86/com.rootdev.binothaymeen'
p64
aS'/app/alquran-bahasa-indonesia/com.martinvillar.android.quranindonesia'
p65
aS'/app/wikipedia-beta/org.wikipedia.beta'
p66
aS'/app/gamefront%3A-video-walkthroughs/com.breakmedia.gamefront.walkthroughs'
p67
aS'/app/kenteken-opzoeken/com.beetstra.licenseplate'
p68
aS'/app/%D9%88%D8%B5%D9%81%D8%A7%D8%AA-%D8%A7%D9%84%D9%85%D8%B7%D8%A8%D8%AE-%D8%A7%D9%84%D8%B9%D8%B1%D8%A8%D9%8A/com.mobiarabia.cookingApp'
p69
aS'/app/daily-bible/joansoft.dailybible'
p70
aS'/app/librivox-audio-books-free/biz.bookdesign.librivox'
p71
aS'/app/thai-dict/info.thana.thaidict'
p72
aS'/app/holy-quran/com.hamdyghanem.holyquran'
p73
aS'/app/wiki-encyclopedia-4-wikipedia/uk.co.exelentia.wikipedia'
p74
aS'/app/advanced-english-thesaurus/com.mobisystems.msdict.embedded.wireless.wordnet'
p75
aS'/app/laudate-%231-free-catholic-app/com.aycka.apps.MassReadings'
p76
aS'/app/gamoos-arabic-english-dict/com.gamoos.gmsdictar'
p77
aS'/app/%D8%A7%D9%84%D8%A3%D8%AD%D8%A7%D8%AF%D9%8A%D8%AB-%D8%A7%D9%84%D9%82%D8%AF%D8%B3%D9%8A%D8%A9-%D9%85%D8%B9-%D8%A7%D9%84%D8%B4%D8%B1%D8%AD/com.reda.holyhadiths'
p78
aS'/app/%D8%A7%D9%84%D9%82%D8%B1%D8%A7%D9%86-%D8%A7%D9%84%D9%83%D8%B1%D9%8A%D9%85-%D9%83%D8%A7%D9%85%D9%84%D8%A7-%D9%84%D9%80-40-%D9%82%D8%A7%D8%B1%D8%A6/com.andromo.dev102375.app144618'
p79
aS'/app/leo-dictionary/org.leo.android.dict'
p80
aS'/app/%D8%A7%D9%84%D9%81-%D8%B3%D9%86%D8%A9-%D9%81%D9%8A-%D8%A7%D9%84%D9%8A%D9%88%D9%85-sunnah-1000/com.thousandsunnah.sam'
p81
aS'/app/i%CC%87ngilizce-t%C3%BCrk%C3%A7e-s%C3%B6zl%C3%BCk/paket.bolum2'
p82
aS'/app/alreader/com.neverland.alreader'
p83
aS'/app/%D9%82%D8%B5%D8%B5-%D8%A7%D9%84%D8%A7%D9%86%D8%A8%D9%8A%D8%A7%D8%A1-%D9%84%D8%A8%D9%86-%D9%83%D8%AB%D9%8A%D8%B1/net.bahja.kotob.kesasAnbya'
p84
aS'/app/mushaf-quran-kareem/com.wailbusaied.alquranalkareem'
p85
aS'/app/bible-gateway/com.csnmedia.android.bg'
p86
aS'/app/%D9%85%D9%88%D8%B3%D9%88%D8%B9%D8%A9-%D8%A7%D9%84%D8%B7%D8%A8%D8%AE/com.encycloapp.cooking'
p87
aS'/app/dict-cc-dictionary/cc.dict.dictcc'
p88
aS'/app/smart-audiobook-player/ak.alizandro.smartaudiobookplayer'
p89
aS'/app/koleksi-doa-doa-harian-v1/appinventor.ai_amernikolai.KoleksiDoaHarianV1'
p90
aS'/app/wolframalpha/com.wolfram.android.alpha'
p91
aS'/app/lds-gospel-library/org.lds.ldssa'
p92
aS'/app/%D8%A7%D9%84%D8%B4%D8%B9%D8%B1-%D8%A7%D9%84%D8%B9%D8%B1%D8%A8%D9%8A/com.mego.adab'
p93
aS'/app/hanping-chinese-dictionary/com.embermitre.hanping.app.lite'
p94
aS'/app/holy-bible-%28niv%29/com.solvus_lab.android.BibleEN_niv'
p95
aS'/app/czech-english-offline-dict/com.dic_o.dico_cze_eng'
p96
aS'/app/%D9%83%D8%AA%D8%A7%D8%A8-%D8%AA%D9%81%D8%B3%D9%8A%D8%B1-%D8%A7%D9%84%D8%A3%D8%AD%D9%84%D8%A7%D9%85/net.bahja.kotob.tafseerAhlam'
p97
aS'/app/panduan-mandi-wajib-dan-sunat/com.mandiwajib'
p98
aS'/app/the-law-of-attraction-book/ebook.generico.law.of.atraction'
p99
aS'/app/%D8%A7%D9%84%D8%A3%D8%B1%D8%A8%D8%B9%D9%88%D9%86-%D8%A7%D9%84%D9%86%D9%88%D9%88%D9%8A%D8%A9-%D9%85%D8%B3%D9%85%D9%88%D8%B9%D8%A9-%D8%B4%D8%B1%D8%AD/com.reda.nawawiforty'
p100
aS'/app/minidict-arabic-english/com.parfield.minidict'
p101
aS'/app/ebook-reader/com.ebooks.ebookreader'
p102
aS'/app/100-house-plans-in-pdf-and-cad/com.andromo.dev195447.app186059'
p103
aS'/app/brilliant-quotes-quotations/lammar.quotes'
p104
aS'/app/bible-jfa-offline/com.bestweatherfor.bibleoffline_pt_ra'
p105
aS'/app/namaz-vakitleri/com.simsekburak.android.namazvakitleri'
p106
aS'/app/livebible-free-bible/com.Ernzo.LiveBible'
p107
aS'/app/%D8%A7%D9%84%D9%83%D8%A8%D8%A7%D8%A6%D8%B1/com.rootdev.alkabaer'
p108
aS'/app/sky-maps/com.isitbroken.android.stardroid'
p109
aS'/app/bing-on-vzw/com.microsoft.mobileexperiences.bing'
p110
aS'/app/urdu-dictionary/net.halalit.urdudict'
p111
aS'/app/chanakya-niti-in-hindi/com.sachi.chankya_niti_in_hindi.AOUAWDMETEVASQBZY'
p112
aS'/app/yahoo-search-application/com.yahoo.mobile.client.android.search'
p113
aS'/app/%E0%B8%84%E0%B8%A7%E0%B8%B2%E0%B8%A1%E0%B8%A3%E0%B8%B9%E0%B9%89%E0%B8%A3%E0%B8%AD%E0%B8%9A%E0%B8%95%E0%B8%B1%E0%B8%A7-2556/com.naritasoft.thaiknowledge'
p114
aS'/app/autoreader-3d-free/com.webstunning.fc'
p115
aS'/app/islam%3A-the-quran/com.chaks.quran'
p116
aS'/app/10000-free-ebooks-reader/com.clcepbreader.app001'
p117
aS'/app/galaxy-s-best-apps/com.crazymobapps.galaxybestapps'
p118
aS'/app/%D8%A7%D9%84%D8%A8%D8%A7%D8%AD%D8%AB-%D8%A7%D9%84%D9%82%D8%B1%D8%A2%D9%86%D9%8A/com.Alquran.quran'
p119
aS'/app/chinese-dictionary-flashcards/com.molatra.trainchinese'
p120
aS'/app/english-phrasal-verbs/com.dreamob.android.enphv'
p121
aS'/app/bible-kjv/com.gyc.ace.kjv'
p122
aS'/app/quran-kareem-brown-pages/com.wailbusaied.qkareempagesbrown'
p123
aS'/app/pleco-chinese-dictionary/com.pleco.chinesesystem'
p124
aS'/app/minerguide-for-minecraft/com.pxstudios.minecraftpro'
p125
aS'/app/al-quran-al-karim/com.yallasoft.quran'
p126
aS'/app/neosoar-ebooks-pdf-epub-reader/com.neosoar'
p127
aS'/app/quickdic-offline-dictionary/com.hughes.android.dictionary'
p128
aS'/app/mushaf-tajweed-holy-quran/ramadan.mushaftajweed'
p129
aS'/app/%D8%B7%D8%B1%D9%82-%D8%AD%D9%81%D8%B8-%D8%A7%D9%84%D9%82%D8%B1%D8%A2%D9%86-%D8%A7%D9%84%D9%83%D8%B1%D9%8A%D9%85/com.alabdelaziz.quran.tahfeez'
p130
aS'/app/dolphin-webzine/com.dolphin.browser.magazines'
p131
aS'/app/army-combatives-fm3-25-150/com.appopus.combatives_3_25_150'
p132
aS'/app/%D8%B7%D8%B1%D9%82-%D8%AD%D9%81%D8%B8-%D8%A7%D9%84%D9%82%D8%B1%D8%A2%D9%86-%D8%A7%D9%84%D9%83%D8%B1%D9%8A%D9%85/com.alabdelaziz.quran.tahfeez'
p133
aS'/app/ayat-al-kursi-%28throne-verse%29/com.chaks.ayatkursi'
p134
aS'/app/french-translator-dictionary/com.greenleaf.android.translator.enfr.c'
p135
aS'/app/iquran-lite/com.guidedways.iQuran'
p136
aS'/app/czech-german-offline-dict/com.dic_o.dico_cze_ger'
p137
aS'/app/%E2%80%AAarmy-survival-guide-fm3-05-70/com.appopus.survival_3_05_70'
p138
aS'/app/%D0%B1%D0%B0%D0%BB%D1%8C%D0%B7%D0%B0%D0%BA-%D0%B8%D0%B7%D0%B1%D1%80%D0%B0%D0%BD%D0%BD%D0%BE%D0%B5-%D1%82%D0%BE%D0%BC-1/com.specialbooks.classiclit.AOTTAFUGIUFHDQXUJ'
p139
aS'/app/200-%D8%B3%D8%A4%D8%A7%D9%84-%D9%88-%D8%AC%D9%88%D8%A7%D8%A8-%D9%81%D9%8A-%D8%A7%D9%84%D8%B9%D9%82%D9%8A%D8%AF%D8%A9/net.bahja.akeda200qa'
p140
aS'/app/audubon-insects-spiders/com.audubon.insects.mobile.android'
p141
aS'/app/islamic-ebooks/com.eAlimTech.eBooks'
p142
aS'/app/hindu-calendar/com.alokmandavgane.hinducalendar'
p143
aS'/app/chord-free-%28guitar-chords%29/com.rabugentom.chordfree'
p144
aS'/app/%D8%A7%D9%84%D9%82%D8%A7%D9%85%D9%88%D8%B3-%D8%A7%D9%84%D9%85%D8%AD%D9%8A%D8%B7/com.ikitab.apps.book_353cdc441185e3d9f21b5340a98a8e72'
p145
aS'/app/voorlees-verhaaltjes/sa.voorleesVerhaaltjes'
p146
aS'/app/%D8%A7%D9%84%D8%AF%D8%B9%D8%A7%D8%A1-%D9%85%D9%86-%D8%A7%D9%84%D9%83%D8%AA%D8%A7%D8%A8-%D9%88%D8%A7%D9%84%D8%B3%D9%86%D8%A9/com.rootdev.ad3ya'
p147
aS'/app/kamusku-%28inggris-indonesia%29/com.dridev.kamusku'
p148
aS'/app/satellite-ar/com.agi.android.augmentedreality'
p149
aS'/app/just-me-and-my-mom/com.oceanhouse_media.booklcjustmeandmymom_app'
p150
aS'/app/wpbeta/wp.wpbeta'
p151
aS'/app/%EB%8B%A4%EC%9D%8C-daum/net.daum.android.daum'
p152
aS'/app/%D8%A5%D8%B9%D8%B1%D8%A7%D8%A8-%D8%A7%D9%84%D9%82%D8%B1%D8%A2%D9%86-%D8%A7%D9%84%D9%83%D8%B1%D9%8A%D9%85/com.i3rabi.quran'
p153
aS'/app/english-idioms-dictionary/com.kreatorz.englishidioms.free'
p154
aS'/app/lds-hymns-with-notes/com.LDSdudes.ldshfree'
p155
aS'/app/english-hindi-dictionary-free/com.movinapp.dict.enhi.free'
p156
aS'/app/polskie-kodeksy/com.kodeksy'
p157
aS'/app/hebrew-english-translator/com.rustybrick.hebrewtranslator'
p158
aS'/app/%D8%AD%D8%B5%D9%86-%D8%A7%D9%84%D9%85%D8%B3%D9%84%D9%85/com.ahlalhdeeth.arabicReader'
p159
aS'/app/cadrebible-bible-software/com.cadreworks.cadrebible'
p160
aS'/app/%D8%AA%D8%AD%D9%81%D9%8A%D8%B8-%D8%A7%D9%84%D9%82%D8%B1%D8%A2%D9%86-%D8%A7%D9%84%D9%83%D8%B1%D9%8A%D9%85-%D9%84%D9%84%D8%A3%D8%B7%D9%81%D8%A7%D9%84-%D8%B9%D9%85/com.osama.learnQuranAmma'
p161
aS'/app/%D9%83%D8%AA%D8%A7%D8%A8-%D8%A7%D9%84%D9%81%D9%88%D8%A7%D8%A6%D8%AF-%D9%84%D8%A8%D9%86-%D9%82%D9%8A%D9%85-%D8%A7%D9%84%D8%AC%D9%88%D8%B2%D9%8A%D8%A9/net.bahja.kotob.alfwaed'
p162
aS'/app/wikihow-the-how-to-manual/com.wikihow.wikihowapp'
p163
aS'/app/%D8%A7%D9%84%D9%82%D8%B1%D8%A2%D9%86-%D8%A7%D9%84%D9%83%D8%B1%D9%8A%D9%85/com.qtech.holyquran'
p164
aS'/app/dictionary-wordweb/com.wordwebsoftware.android.wordweb'
p165
aS'/app/wapedia%3A-wikis-encyclopedias/com.taptu.wapedia.android'
p166
aS'/app/%D1%80%D0%B5%D1%86%D0%B5%D0%BF%D1%82%D1%8B-%D0%BA-%D0%BF%D0%B0%D1%81%D1%85%D0%B5/com.recipes.recipesforeaster'
p167
aS'/app/sundroid-free-sunrise-sunset/uk.co.sundroid.free'
p168
aS'/app/holy-quran-moshaf-al-madeena/com.maher4web.quran'
p169
aS'/app/%EB%B0%A5%EB%A8%B9%EC%9E%90/com.batholomew.skyfood'
p170
aS'/app/gchord-%28guitar-chord-finder%29/jp.ne.asoft.android.gchord'
p171
aS'/app/english-spanish-dict-free/com.movinapp.dict.enes.free'
p172
aS'/app/wikidroid-%28wikipedia-browser%29/com.isaacwaller.wikipedia'
p173
aS'/app/one-coptic-library-%D9%85%D9%83%D8%AA%D8%A8%D8%A9-%D9%82%D8%A8%D8%B7%D9%8A%D8%A9/com.shenouda.coptic.CopticLibrary'
p174
aS'/app/surah-yasin-dan-terjemahan/com.m3tech.yasin'
p175
aS'/app/%D8%A7%D9%84%D9%85%D9%83%D8%AA%D8%A8%D8%A9-%D8%A7%D9%84%D8%AC%D8%A7%D9%85%D8%B9%D8%A9/com.aljam3alibrary.aljam3alibrary'
p176
aS'/app/diccionario-de-la-rae/es.grupoplaneta.diccionario.RAE'
p177
aS'/app/galaxy-note-10-1-user%E2%80%99s-digest/kr.co.samsung.galaxy.note10_1'
p178
aS'/app/nwt-bible-lite/kst.NWTBibleLite'
p179
aS'/app/english-khmer-dictionary/ndt.mobile.dictionary.offline.enkh'
p180
aS'/app/the-night-sky-lite/com.icandiapps.thenightskylite'
p181
aS'/app/%D8%B9%D8%B0%D8%A7%D8%A8-%D8%A7%D9%84%D9%82%D8%A8%D8%B1-%D9%88%D8%A3%D9%87%D9%88%D8%A7%D9%84%D9%87/Rass.Book029'
p182
aS'/app/free-books-for-kindle/com.wynsoft.fkb'
p183
aS'/app/%D8%AD%D9%82%D9%8A%D9%82%D8%A9-%D8%A7%D9%84%D8%B4%D9%8A%D8%B9%D8%A9/com.xatta6.shiatruth'
p184
aS'/app/%EB%84%A4%EC%9D%B4%EB%B2%84-naver/com.nhn.android.search'
p185
aS'/app/free-english-dictionary/com.oeri.activities'
p186
aS'/app/craft-manual/minecraft.manual.sitarg'
p187
aS'/app/the-law-guide-dictionary/com.quoord.lawGuide'
p188
aS'/app/mantano-ebook-reader-lite/com.mantano.reader.android.lite'
p189
aS'/app/%D9%86%D9%87%D8%AC-%D8%A7%D9%84%D8%A8%D9%84%D8%A7%D8%BA%D8%A9/com.androidbook.balagha'
p190
aS'/app/coptic-reader/com.app.copticreader'
p191
aS'/app/pocket-english-idioms/dx.EnglishIdioms'
p192
aS'/app/czech-slovak-namedays-widget/eu.apksoft.android.svatky'
p193
aS'/app/english-to-kannada-dictionary/com.mydcnpackage'
p194
aS'/app/philippine-laws-vol-1/com.rainbowworks.book.AOUEZFFHJNWESKQK'
p195
aS'/app/ebook%3A-200-secrets-of-success/com.cpviet.ebook.secrets_of_success'
p196
aS'/app/solat-dan-terjemahannya/com.apps4islam.solatdanterjemahannya'
p197
aS'/app/islamobile/com.as91.IslaMobilesV2'
p198
aS'/app/%D8%A7%D9%84%D8%A8%D8%B7%D8%A9-%D8%A7%D9%84%D9%82%D8%A8%D9%8A%D8%AD%D8%A9/com.lisbonlabs.bedtimexpress.ar.h14'
p199
aS'/app/idegen-szavak-gy%C5%B1jtem%C3%A9nye/hu.idegenszavak'
p200
a.