(lp0
S'/app/file-manager/com.rhmsoft.fm'
p1
aS'/app/kingsoft-office-5-5%28free%29/cn.wps.moffice_eng'
p2
aS'/app/arcnote/com.arcsoft.arcnote'
p3
aS'/app/facebook-pages-manager/com.facebook.pages.app'
p4
aS'/app/es-task-manager/com.estrongs.android.taskmanager'
p5
aS'/app/vault-hide-sms-pics-videos/com.netqin.ps'
p6
aS'/app/box/com.box.android'
p7
aS'/app/job-search/com.indeed.android.jobsearch'
p8
aS'/app/documents-to-go-3-0-main-app/com.dataviz.docstogo'
p9
aS'/app/officesuite-viewer-7-pdf-hd/com.mobisystems.office'
p10
aS'/app/square-register/com.squareup'
p11
aS'/app/camcard-free-business-card-r/com.intsig.BCRLite'
p12
aS'/app/proven-job-search/com.proven.jobsearch'
p13
aS'/app/%D9%85%D8%AD%D8%AF%D8%AB-%D8%A7%D9%84%D8%A3%D8%B1%D9%82%D8%A7%D9%85/com.tarmeez.android.updater'
p14
aS'/app/olive-office-premium-%28free%29/com.olivephone.edit'
p15
aS'/app/opendocument-reader/at.tomtasche.reader'
p16
aS'/app/pocketcloud-remote-rdp-vnc/com.wyse.pocketcloudfree'
p17
aS'/app/lync-2013/com.microsoft.office.lync15'
p18
aS'/app/file-manager-hd-%28tablet%29/com.rhmsoft.fm.hd'
p19
aS'/app/jump-desktop-free-%28rdp-vnc%29/com.p5sys.android.jump.free'
p20
aS'/app/lync-2010/com.microsoft.office.lync'
p21
aS'/app/mobile-doc-scanner-lite/com.stoik.mdscanlite'
p22
aS'/app/cisco-webex-meetings/com.cisco.webex.meetings'
p23
aS'/app/paypal-here-credit-card-reader/com.paypal.here'
p24
aS'/app/installer-install-apk/com.rhythm.hexise.inst'
p25
aS'/app/concur/com.concur.breeze'
p26
aS'/app/printershare%E2%84%A2-mobile-print/com.dynamixsoftware.printershare'
p27
aS'/app/software-data-cable/com.lyy.softdatacable'
p28
aS'/app/fill-and-sign-pdf-forms/biz.binarysolutions.fasp'
p29
aS'/app/splashtop-2-remote-desktop/com.splashtop.remote.pad.v2'
p30
aS'/app/adp-mobile-solutions/com.adpmobile.android'
p31
aS'/app/2x-client-rdp-remote-desktop/com.tux.client'
p32
aS'/app/citrix-receiver/com.citrix.Receiver'
p33
aS'/app/kingsoft-office-%28multi-lan%29/cn.wps.moffice_i18n'
p34
aS'/app/ups-mobile/com.ups.mobile.android'
p35
aS'/app/task-manager/com.rhythm.hexise.task'
p36
aS'/app/snafu/com.snafuscan.android'
p37
aS'/app/mind-tools/com.mindtools'
p38
aS'/app/touchdown-for-smartphones/com.nitrodesk.droid20.nitroid'
p39
aS'/app/sendhub%3A-free-business-phone/com.sendhub'
p40
aS'/app/scan-master/com.scan.master'
p41
aS'/app/trackchecker/com.app.grandag.trackchecker'
p42
aS'/app/sahibinden-com/com.basarimobile.android.sahibinden'
p43
aS'/app/touchdown-hd/com.nitrodesk.honey.nitroid'
p44
aS'/app/quickoffice-google-apps/com.quickoffice.android'
p45
aS'/app/usps-mobile%C2%AE/com.usps'
p46
aS'/app/exchange-by-touchdown-key/com.nitrodesk.touchdownpro'
p47
aS'/app/office-documents-viewer-%28free%29/de.joergjahnke.documentviewer.android.free'
p48
aS'/app/smart-office-lite/com.picsel.tgv.app.smartofficelite'
p49
aS'/app/intuit-gopayment-card-reader/com.intuit.intuitgopayment'
p50
aS'/app/call-blocker/com.netqin.mm'
p51
aS'/app/vault-%D1%80%D1%83%D1%81%D1%81%D0%BA%D0%B8%D0%B9-%D1%8F%D0%B7%D1%8B%D0%BA%D0%BE%D0%B2%D0%BE%D0%B9-%D0%BF%D0%B0%D0%BA%D0%B5%D1%82/com.netqin.ps.language.russian'
p52
aS'/app/samsung-anyconnect/com.cisco.anyconnect.vpn.android.samsung'
p53
aS'/app/rop-royal-oman-police/pkg.rop'
p54
aS'/app/triplog-gps-mileage-tracker/com.esocialllc.vel'
p55
aS'/app/exchange-rate-all-currency/free.exrate.rivex'
p56
aS'/app/quickbooks-mobile-%E2%80%93-invoice/com.intuit.quickbooks'
p57
aS'/app/office-reader-doc-ppt-xls/com.threebirds.officereader'
p58
aS'/app/moffice-outlook-sync/com.innov8tion.isharesync'
p59
aS'/app/adobe%C2%AE-connect%E2%84%A2-mobile/air.com.adobe.connectpro'
p60
aS'/app/jobb%C3%B6rse/de.arbeitsagentur.jobboerse'
p61
aS'/app/private-sms-call/com.superdroid.spc'
p62
aS'/app/worldictionary-free/com.penpower.worldictionaryLite'
p63
aS'/app/loopnet-commerical-real-estate/com.loopnet.android'
p64
aS'/app/saudi-e-government-mobile-app/org.mcit.yesser.saudi'
p65
aS'/app/business-card-reader-lite/com.abbyy.mobile.bcr.lite'
p66
aS'/app/my-calculator/air.Calculator'
p67
aS'/app/easy-installer-install-apk/mobi.infolife.installer'
p68
aS'/app/super-security-standard/com.superdroid.security2'
p69
aS'/app/canada-post-corporation/com.canadapost.android'
p70
aS'/app/efax-mobile-phone-fax-app/com.j2.efax'
p71
aS'/app/iamresponding-%28iar%29/com.pkg.ir'
p72
aS'/app/anyconnect-ics/com.cisco.anyconnect.vpn.android.avf'
p73
aS'/app/citrix-receiver-beta/com.citrix.labs.Receiver'
p74
aS'/app/speak-chinese-free/com.benjaminholfeld.speakchinesefree'
p75
aS'/app/accc-shopper/au.gov.accc.shopper'
p76
aS'/app/autoscout24-schweiz/ch.autoscout24.autoscout24'
p77
aS'/app/doc-to-pdf-converter/com.samyak'
p78
aS'/app/emc-world-2013/com.activenetwork.mobile.emcworld13'
p79
aS'/app/uae-yellowpages/com.uae.yellowpages'
p80
aS'/app/apps-2-sd-%28move-app-2-sd%29/com.IQBS.android.app2sd'
p81
aS'/app/master-design-furnish/com.tips.android.masterdesign'
p82
aS'/app/eagleeyes%28lite-%29/push.lite.avtech.com'
p83
aS'/app/scrum-poker-cards-%28agile%29/artarmin.android.scrum.poker'
p84
aS'/app/jobrio-ultimate-job-search/bostone.android.hireadroid'
p85
aS'/app/jobstreet-job-search/com.jobstreet.jobstreet'
p86
aS'/app/shop-and-ship/net.aramex.sas'
p87
aS'/app/magicbricks-property-search/com.timesgroup.magicbricks'
p88
aS'/app/local-html-viewer/jp.ne.shira.html.viewer'
p89
aS'/app/ibm-sametime/com.ibm.android.sametime'
p90
aS'/app/officesuite-pro-7-%28trial%29/com.mobisystems.editor.office_with_reg'
p91
aS'/app/superpagespr-com/com.superpagespr.activities'
p92
aS'/app/yammer/com.yammer.v1'
p93
aS'/app/superlivepro/com.tvt.network'
p94
aS'/app/jobsdb/com.jobsdb'
p95
aS'/app/application-mobile-p%C3%B4le-emploi/com.poleemploi.pemobile'
p96
aS'/app/plan-start-small-business/com.problemio'
p97
aS'/app/chatter/com.salesforce.chatter'
p98
aS'/app/%D8%A8%D9%88%D8%A7%D8%A8%D8%A9-%D8%AF%D9%88%D9%84%D8%A9-%D8%A7%D9%84%D9%83%D9%88%D9%8A%D8%AA-%D8%A7%D9%84%D8%B1%D8%B3%D9%85%D9%8A%D8%A9/com.appbuilder.u261371p453064'
p99
aS'/app/jabber/com.cisco.jabber'
p100
aS'/app/interactive-employment-service/com.labour.ies'
p101
aS'/app/mailchimp/com.mailchimp'
p102
aS'/app/ratsit-se/se.ratsit.android.app'
p103
aS'/app/curso-de-excel-2010/com.tecstar.com.exceldiez'
p104
aS'/app/4sale/com.forsale.forsale'
p105
aS'/app/seconds-clock-widget/jp.co.intri.second.clock'
p106
aS'/app/ntguru/lt.appcamp.ntguru'
p107
aS'/app/antivirus-anti-adware/com.secore.privacyshield'
p108
aS'/app/cisco-technical-support/com.cisco.swtg_android'
p109
aS'/app/hancomoffice-hanword-viewer/kr.co.hancom.hancomviewer.androidmarket'
p110
aS'/app/basic-docx-reader/couchDev.tools.DocxParser'
p111
aS'/app/mcdelivery/sg.com.mcdelivery'
p112
aS'/app/steve-jobs-on-business/com.appmk.book.AOUEQCUFBXDZJQSR'
p113
aS'/app/akatastr/cz.jprochazka.katastr'
p114
aS'/app/bayt-com/com.bayt'
p115
aS'/app/wordreader-read-ms-word-files/com.threebirds.wordreader'
p116
aS'/app/rooted-anyconnect/com.cisco.anyconnect.vpn.android.rooted'
p117
aS'/app/camcard-bcr-%28western%29/com.intsig.BCRLatam'
p118
aS'/app/monster-job-search/com.monster.android.Views'
p119
aS'/app/spiceworks-mobile/com.spiceworks'
p120
aS'/app/monster-job-search/com.monster.android.Views'
p121
aS'/app/tip-calculator-ad-free/mobi.infolife.itip'
p122
aS'/app/excel-to-pdf-converter/patil.rakesh.excel2pdf'
p123
aS'/app/mobile%40work/com.mobileiron'
p124
aS'/app/mobile-doc-scanner-free/com.stoiktechnology.mdscanlite'
p125
aS'/app/boat-cloud-print-add-on/com.boatbrowser.free.addon.gcp'
p126
aS'/app/glassdoor%3A-jobs-salaries/com.glassdoor.app'
p127
aS'/app/alfa/com.apps2you.alfa'
p128
aS'/app/officedrop/com.officedrop.applicationactivity'
p129
aS'/app/mobile-doc-scanner-%28mdscan%29/com.stoik.mdscan'
p130
aS'/app/thailand-post-track-trace/com.trackandtrace.lazylist'
p131
aS'/app/zoolz-go/com.Genie9.ZoolzGO'
p132
aS'/app/how-to-make-money-101-ideas/com.mobincube.android.sc_8AH9T.app_39268'
p133
aS'/app/entry-manager/com.eventbrite.organizer'
p134
aS'/app/fonduri-europene/com.andromo.dev8656.app8257'
p135
aS'/app/jobs-notifier/com.lebhr.jobsnotifier'
p136
aS'/app/smalljob/com.netensify.smalljob'
p137
aS'/app/smart-device-print/com.neusoft.quickprint'
p138
aS'/app/free-activedir-manager/net.bealsystems.ADUserManagerFree'
p139
aS'/app/business-organizer/net.powerandroid.organizer'
p140
aS'/app/vuescan-mobile-free/com.hamrick.vsmobile.free'
p141
aS'/app/get-a-job/com.jds.jobdroid'
p142
aS'/app/latest-gold-prices/com.joksolutions.gold'
p143
aS'/app/info-pln/com.conduit.app_ee0d81575cb84a8cb3db877db28a15ff.app'
p144
aS'/app/management-tips/com.monkeyapps.croftandroidfree'
p145
aS'/app/eagleview/com.eagleview.mobile'
p146
aS'/app/workday/com.workday.workdroidapp'
p147
aS'/app/3cx-remote-android-desktop/com.MarcelloAlbano.LazyDroidServer'
p148
aS'/app/vin-scanner-appraiser/com.seligtech.vinviper'
p149
aS'/app/3d-voice-assistant/com.brainyfriends.voice.virtual.friend'
p150
aS'/app/livehome/com.mo.android.livehome'
p151
aS'/app/latin-emoji-keyboard-to-iphone/me.jetho.pckeyboard'
p152
aS'/app/lets-print-droid/com.blackspruce.lpd'
p153
aS'/app/grainger-mobile/com.grainger.mobile.android'
p154
aS'/app/%D8%AF%D9%84%D9%8A%D9%84-%D8%A7%D9%84%D9%8A%D9%85%D9%86-%D8%A7%D9%84%D8%AA%D8%AC%D8%A7%D8%B1%D9%8A-m-daleely/com.catalyst.mobilydaleely'
p155
aS'/app/manheim/com.manheim.mobile'
p156
aS'/app/foursquare-for-business/com.foursquare.merchant'
p157
aS'/app/spconnect-sharepoint-%28beta%29/com.acquirednotions.spconnect3'
p158
aS'/app/meinestadt-de-job-app/com.allesklar.job'
p159
aS'/app/aao-annual-session/com.mtribeapps.aao'
p160
aS'/app/spconnect-sharepoint-%28beta%29/com.acquirednotions.spconnect3'
p161
aS'/app/meinestadt-de-job-app/com.allesklar.job'
p162
aS'/app/cisco/com.cisco.androidcisco'
p163
aS'/app/resume/theappsters.resume'
p164
aS'/app/dejaoffice-crm-outlook-sync/com.companionlink.clusbsync'
p165
aS'/app/roadsync-2-5-main-app-%28demo%29/com.dataviz.stargate'
p166
aS'/app/calculator-or-spreadsheet/com.onesoftmob.calc1.free'
p167
aS'/app/jobmo-job-search/kiefer.JobMo'
p168
aS'/app/cashapp/nl.cash.cashapp'
p169
aS'/app/mileage-logbook/eu.whistlerconsulting.apps.android.mlb'
p170
aS'/app/3cx-mobile-device-manager/com.tcx.mdm'
p171
aS'/app/web-to-pdf-converter/patil.rakesh.url2pdf'
p172
aS'/app/jobs-job-search-careers/com.careerjet.android'
p173
aS'/app/comed/com.comed.mobile'
p174
aS'/app/advanced-wireless-forms/com.actsoft.awf'
p175
aS'/app/divis-dvr-viewer/com.divisdvr'
p176
aS'/app/call-record-pro/info.phpart.callrec'
p177
aS'/app/fcc-international/com.freeconferencecall.sipphone.fccinternational'
p178
aS'/app/xtrakk%E2%84%A2-gps-tracker/com.gpslogik'
p179
aS'/app/camcard-hd-free-bizcard-reader/com.intsig.camcardhd'
p180
aS'/app/recruit-com-hk/com.recruit.android'
p181
aS'/app/latest-update-checker-%28news%29/com.bartoloni.latestupdate'
p182
aS'/app/advanced-wireless-forms/com.actsoft.awf'
p183
aS'/app/oil-and-gas-job-search/allthetopbananas.oilandgas'
p184
aS'/app/pdfprint-print-pdf/com.threebirds.pdfprint'
p185
aS'/app/business-chinese/com.bravolol.bravoLang.chinaBusiness'
p186
aS'/app/super-meye/xunshian.com'
p187
aS'/app/documentstogo-full-version-key/com.dataviz.docstogoapp'
p188
aS'/app/shareplus-lite%3A-sharepoint-app/com.southlabs.android.SharePlusLite'
p189
aS'/app/call-record-pro/info.phpart.callrec'
p190
aS'/app/leadership-qualities/com.andromo.dev4168.app7224'
p191
aS'/app/zoho-projects/com.zoho.projects'
p192
aS'/app/mietrecht/de.law_connect.mietrecht'
p193
aS'/app/i-smart-viewer/com.livezen.iSmartView'
p194
aS'/app/yabiladeal/hardtask.yabilaDeal.hardlogic'
p195
aS'/app/%D7%94%D7%9E%D7%A7%D7%A6%D7%95%D7%A2%D7%A0%D7%99%D7%9D-%E2%80%93-%D7%91%D7%A2%D7%9C%D7%99-%D7%9E%D7%A7%D7%A6%D7%95%D7%A2-%D7%9E%D7%95%D7%9E%D7%9C%D7%A6%D7%99%D7%9D/il.co.opentech.thepros'
p196
aS'/app/netprint/jp.co.fujixerox.np.activity'
p197
aS'/app/official-indiamart-app/com.indiamart.m'
p198
aS'/app/prince2-project-mgt-resource/com.spoce.PMResource'
p199
aS'/app/ikatastr/com.stoneapp.ikatastr'
p200
a.