(lp0
S'/app/zedge%E2%84%A2/net.zedge.android'
p1
aS'/app/photosphere-live-wallpaper/fishnoodle.photospherewp_free'
p2
aS'/app/galaxy-s4-leaf-live-wallpaper/com.androidwasabi.livewallpaper.s4leaf'
p3
aS'/app/elegant-go-launcher-theme/com.gau.go.launcherex.theme.FD.ELEGANT.free'
p4
aS'/app/gfarm-go-super-theme/com.gau.go.launcherex.theme.gfarm'
p5
aS'/app/iron-man-3-live-wallpaper/cellfish.ironman3wp'
p6
aS'/app/whatsapp-wallpaper/com.whatsapp.wallpaper'
p7
aS'/app/go-locker/com.jiubang.goscreenlock'
p8
aS'/app/zsky-go-locker-weather-theme/com.jiubang.goscreenlock.theme.sky.getjar'
p9
aS'/app/beautiful-widgets-free/com.levelup.beautifulwidgets.free'
p10
aS'/app/nova-launcher/com.teslacoilsw.launcher'
p11
aS'/app/d-nighe-go-sms-theme-ex/com.jb.gosms.theme.getjar.dnight'
p12
aS'/app/go-sms-pro-emoji-plugin/com.jb.gosms.emoji'
p13
aS'/app/love-petal-super-theme/com.gau.go.launcherex.theme.lovepetal2'
p14
aS'/app/backgrounds-and-wallpapers-hd/com.ogqcorp.bgh'
p15
aS'/app/go-launcher-ex/com.gau.go.launcherex'
p16
aS'/app/best-wallpapers-backgrounds/com.appspot.swisscodemonkeys.wallpaper'
p17
aS'/app/next-time-tunnel-livewallpaper/com.gtp.nextlauncher.liverpaper.tunnelbate'
p18
aS'/app/adw-launcher/org.adw.launcher'
p19
aS'/app/ultimate-custom-widget-%28uccw%29/in.vineetsirohi.customwidget'
p20
aS'/app/picspeed-hd-wallpapers-500-000/com.srsdev.wallpapers'
p21
aS'/app/go-launcher-ex-ui3-0-theme/com.gau.go.launcherex.theme.defaultthemethree'
p22
aS'/app/photo-fx-live-wallpaper/slide.photoWallpaper'
p23
aS'/app/device-info-live-wallpaper/jp.main.kurousa.android.livewallpaper.DeviceInfo'
p24
aS'/app/galaxy-s4-rain-n-grass-lwp/com.galaxys4rainngrasslwp.obermaster'
p25
aS'/app/everything-me-home-%28beta%29/me.everything.launcher'
p26
aS'/app/mycolorscreen-for-android-free/dev.blacksheep.mycolorscreen.free'
p27
aS'/app/water-live-wallpaper/com.kiwilwp.livewallpaper.water'
p28
aS'/app/vybe-%E2%80%93-custom-vibrations/com.itchyfingerzfree.vybe'
p29
aS'/app/paperland-live-wallpaper/com.joko.paperland'
p30
aS'/app/hd-wallpapers-for-android/com.caiguda.hdwallpapers'
p31
aS'/app/apex-launcher/com.anddoes.launcher'
p32
aS'/app/lightning-launcher-home/net.pierrox.lightning_launcher'
p33
aS'/app/atom-launcher/com.dlto.atom.launcher'
p34
aS'/app/a-i-type-emoji-plugin/com.aitype.android.emoji'
p35
aS'/app/koi-free-live-wallpaper/fishnoodle.koipond_free'
p36
aS'/app/xperia-z-live-wallpaper/com.androidwasabi.livewallpaper.xperiaz'
p37
aS'/app/dcikonz-adw-apex-nova-go-theme/com.czarnomorski.theme.dcikonz'
p38
aS'/app/toy-story%3A-live-wallpaper/disney.toystorywp_goo'
p39
aS'/app/black-go-locker-theme/com.jiubang.goscreenlock.theme.x.black'
p40
aS'/app/dashclock-widget/net.nurik.roman.dashclock'
p41
aS'/app/pimp-my-rom-%28beta%29/com.androguide.pimpmyrom'
p42
aS'/app/colourform-%28hd-widgets-theme%29/cloudtv.hdthemes.colourform'
p43
aS'/app/delicate-go-reward-theme/com.gau.go.launcherex.theme.FDMD.delicate.fourinone'
p44
aS'/app/digi-clock-widget/sk.michalec.SimpleDigiClockWidget'
p45
aS'/app/nova-launcher-prime/com.teslacoilsw.launcher.prime'
p46
aS'/app/cyber-planet-super-theme-go/com.gau.go.launcherex.theme.cyberplanet'
p47
aS'/app/hd-full-screen-caller-id/tw.nicky.HDCallerID'
p48
aS'/app/go-multiple-wallpaper/com.go.multiplewallpaper'
p49
aS'/app/galaxy-s4-live-wallpaper/com.androidwasabi.livewallpaper.s4'
p50
aS'/app/my-theme-go-reward-theme/com.gau.go.launcherex.theme.MyTheme.fourinone'
p51
aS'/app/pixel-rain-live-wallpaper/gilleland.software.pixelrain'
p52
aS'/app/almotlaq-font-4-galaxy/com.monotype.android.font.Emot.AlMotlaQ'
p53
aS'/app/next-honeycomb-live-wallpaper/com.gtp.nextlauncher.liverpaper.honeycomb'
p54
aS'/app/my-17th-go-launcher-theme/com.gau.go.launcherex.theme.vztjzq.ffwyae.advanced'
p55
aS'/app/espier-screen-locker/mobi.espier.launcher.plugin.screenlocker'
p56
aS'/app/next-launcher-luxury-3dd-theme/com.gtp.nextlauncher.theme.luxury3ddark'
p57
aS'/app/earth-hd-free-edition/ru.gonorovsky.kv.livewall.earthhd'
p58
aS'/app/colorbox-next-launcher-theme/com.gtp.nextlauncher.theme.Colorbox'
p59
aS'/app/kii-keyboard/com.zl.inputmethod.latin'
p60
aS'/app/atom-all-in-one-widgets/com.dlto.atom.widget'
p61
aS'/app/forest-live-wallpaper-3d/com.forestlivewallpaper3d.dokaapps'
p62
aS'/app/gothic-pack-for-flipfont%C2%AE-free/com.monotype.android.font.pack.gothic'
p63
aS'/app/droid-dna-live-wallpaper/com.androidwasabi.livewallpaper.dna'
p64
aS'/app/water-drop-live-wallpaper/com.androidwasabi.livewallpaper.waterdrop'
p65
aS'/app/dryad%28go-launcher-super-theme%29/com.gau.go.launcherex.theme.Dryad2'
p66
aS'/app/smart-launcher/ginlemon.flowerfree'
p67
aS'/app/handwriting-for-flipfont%C2%AE-free/com.monotype.android.font.pack.hand'
p68
aS'/app/fancy-widgets/com.anddoes.fancywidgets'
p69
aS'/app/eva-super-theme-go-launcher-ex/com.gau.go.launcherex.theme.eva'
p70
aS'/app/clock-now/pastrylab.clocknow'
p71
aS'/app/the-fox-go-reward-theme/com.gau.go.launcherex.theme.thefoxxxx.fourinone'
p72
aS'/app/galaxy-s4-bubbles-top-lwp/com.galaxys4bubblestoplwp.dokaapps'
p73
aS'/app/multipicture-live-wallpaper/org.tamanegi.wallpaper.multipicture'
p74
aS'/app/hong-kong-live-wallpaper/com.hamid.hongkong'
p75
aS'/app/jelly-bean-apex-nova-theme/com.photox.jbhd'
p76
aS'/app/soul-go-reward-theme/com.gau.go.launcherex.theme.FD.SOUL.fourinone'
p77
aS'/app/iphone-5-launcher/com.easyandroid.free.ilauncher'
p78
aS'/app/themebox-hd/com.tsf.shell.themes.hd.box'
p79
aS'/app/k-iron-go-launcherex-theme/com.gau.go.launcherex.theme.gnslar.qtqmrt.advanced'
p80
aS'/app/smartlauncher-theme-ubuntu/ginlemon.sltheme.ubuntu'
p81
aS'/app/graphics-art-go-launcher-theme/com.gau.go.launcherex.theme.Graphicsart.free'
p82
aS'/app/funny-sms-ringtones/com.sancronringtones.funnysmssb'
p83
aS'/app/buzz-launcher-beta/com.buzzpia.aqua.launcher'
p84
aS'/app/sketch-go-launcher-theme/com.gau.go.launcherex.theme.sketcht.free'
p85
aS'/app/stainedglass-go-launcher-theme/com.gau.go.launcherex.theme.xiay.free'
p86
aS'/app/galaxy-s4-sky-n-bubbles-lwp/com.galaxys4skynbubbleslwp.scorp971'
p87
aS'/app/spagiric-go-launcher-theme/com.gau.go.launcherex.theme.spagiric.theoya'
p88
aS'/app/atom-store/com.dlto.atom.store'
p89
aS'/app/gt-launcher-prime/com.launcher.GTlauncher2'
p90
aS'/app/rain-drop-live-wallpaper/com.raindroplivewallpaper.obermaster'
p91
aS'/app/simple-text-text-icon-creator/com.redphx.simpletext'
p92
aS'/app/tsf-pendant-widget/com.tsf.shell.widget.adornment'
p93
aS'/app/galaxy-note-2-live-wallpaper/com.androidwasabi.livewallpaper.feather'
p94
aS'/app/galaxy-s4-space-live-wallpaper/com.galaxys4spacelivewallpaper.dokaapps'
p95
aS'/app/meng-go-reward-theme/com.gau.go.launcherex.theme.fdmd.meng.fourinone'
p96
aS'/app/ray-next-launcher-3d-theme/com.gtp.nextlauncher.theme.ray'
p97
aS'/app/jumpgate-free-live-wallpaper/fishnoodle.jumpgate_free'
p98
aS'/app/whatsapp-wallpaper-themes/com.yoero.droidero.aWhatsApp'
p99
aS'/app/nexus-revamped-live-wallpaper/com.stealthcopter.nexusrevamped'
p100
aS'/app/roboform/com.siber.roboform'
p101
aS'/app/aesthetic-wallpaper-hd/com.droid.livewallpaper.grass0516'
p102
aS'/app/galaxy-sparkle-live-wallpaper/com.lwstudio.galaxysparkle'
p103
aS'/app/darkmagic-super-theme-go/com.gau.go.launcherex.theme.darkmagicex'
p104
aS'/app/pattrn/org.lucasr.pattrn'
p105
aS'/app/westernstyle-go-reward-theme/com.gau.go.launcherex.theme.Westernstyle.ling.fourinone'
p106
aS'/app/big-launcher-free-demo/name.kunes.android.launcher.demo'
p107
aS'/app/91-launcher/com.nd.android.launcher91'
p108
aS'/app/ice-cream-sandwich-%28theme%29/kov.theme.ics'
p109
aS'/app/future-next-launcher-3d-theme/com.gtp.nextlauncher.theme.future'
p110
aS'/app/metrostation-icon-pack/jp.u1aryz.products.metrostation'
p111
aS'/app/%D8%AE%D9%84%D9%81%D9%8A%D8%A7%D8%AA-%D8%AB%D9%84%D8%A7%D8%AB%D9%8A%D8%A9-%D8%A7%D9%84%D8%A7%D8%A8%D8%B9%D8%A7%D8%AF/com.talentedapp.wp_3d'
p112
aS'/app/buzz-custom-widget-beta/com.buzzpia.aqua.appwidget.clock'
p113
aS'/app/touchwhiz-apex-nova-theme/com.photox.touchwhiz'
p114
aS'/app/galaxy-s4-clock/com.GoeloeDesigns.GS4clock'
p115
aS'/app/electric-plasma-live-wallpaper/mjp.android.wallpaper.plasma'
p116
aS'/app/acid-planet-super-theme-go/com.gau.go.launcherex.theme.acidplanet2'
p117
aS'/app/rainbow-go-reward-theme/com.gau.go.launcherex.theme.fdmd.rainbow.fourinone'
p118
aS'/app/alive-video-wallpaper/com.alivewallpaper.free'
p119
aS'/app/forest-morning-live-wallpaper/com.forestmorninglivewallpaper.dokaapps'
p120
aS'/app/wipe-go-locker-theme/com.jiubang.goscreenlock.theme.wipe'
p121
aS'/app/glasklart-go-apex-theme/com.go.launcherex.theme.kxnt.glasklart'
p122
aS'/app/x-subtle-go-launcher-ex-theme/com.gau.go.launcherex.theme.z.xsubtle'
p123
aS'/app/free-app-icons-icon-packs-%E2%96%BA/com.jellytap.cooliconfinder'
p124
aS'/app/galaxy-s3-s4-live-wallpaper/com.androidwasabi.livewallpaper.dandelion'
p125
aS'/app/beautiful-live-weather/com.levelup.beautifullive'
p126
aS'/app/espier-notifications/mobi.espier.launcher.plugin.notifications'
p127
aS'/app/spectrum-ics-live-wallpaper/com.xllusion.livewallpaper.spectrum'
p128
aS'/app/dcwallpaperz/com.czarnomorski.dcwallchooser'
p129
aS'/app/marvel-heroes-live-wallpaper/com.happ.marvel'
p130
aS'/app/galaxy-s3-drop-live-wallpaper/com.androidwasabi.livewallpaper.drop'
p131
aS'/app/retro-clock-widget/nl.jsource.retroclock.android'
p132
aS'/app/smartlauncher-theme-sense/ginlemon.sltheme.sense'
p133
aS'/app/vita-go-reward-theme/com.gau.go.launcherex.theme.vita.fourinone'
p134
aS'/app/adw-theme-samoled/saf.adw.theme.samoled'
p135
aS'/app/cool-fonts-for-whatsapp-sms/com.cool.fonts.texting.galaxy.changer'
p136
aS'/app/super-clock-wallpaper-free/mx.livewallpaper.clocklight'
p137
aS'/app/glass-widgets/dk.nicolai.buch.andersen.glasswidgets'
p138
aS'/app/zen-garden-fall-%5Bfl-ver-%5D/uistore.fieldsystem.autumngarden'
p139
aS'/app/slidezip-go-locker-theme/com.jiubang.goscreenlock.theme.slidezip.locoya'
p140
aS'/app/love-pack-for-flipfont%C2%AE-free/com.monotype.android.font.pack.love'
p141
aS'/app/beehive-go-locker-reward-theme/com.jiubang.goscreenlock.theme.beehive.getjar'
p142
aS'/app/ironman-j-q-uccw-skin-theme/yau.QNBT.JARVISQ'
p143
aS'/app/smartcar-next-launcher-theme/com.gtp.nextlauncher.theme.smartcar'
p144
aS'/app/zh-steampunk-go-locker-theme/com.jiubang.goscreenlock.theme.steampunk'
p145
aS'/app/clockq-digital-clock-widget/cz.kinst.jakub.clockq'
p146
aS'/app/sl-theme-metal/ginlemon.sltheme.morph'
p147
aS'/app/cosmos-go-reward-theme/com.gau.go.launcherex.theme.Cosmos.fourinone'
p148
aS'/app/hd-caller-id/com.full.screen.caller.id.hd'
p149
aS'/app/picsay-pro-font-pack-a/com.shinycore.fonts.kimberlygeswein.a'
p150
aS'/app/magic-of-nature-hd-wallpapers/ua.in.android_wallpapers.nature'
p151
aS'/app/tsf-notepad-widget/com.tsf.shell.widget.memo'
p152
aS'/app/smartlauncher-theme-miui/ginlemon.sltheme.miui'
p153
aS'/app/nexus-4-dot-live-wallpaper/com.androidwasabi.livewallpaper.nexusdot'
p154
aS'/app/holo-icons-%28nova-apex-go-adw%29/com.unseenvision.mnml'
p155
aS'/app/3d-home/com.borqs.se'
p156
aS'/app/picsay-pro-font-pack-b/com.shinycore.fonts.dietersteffmann.b'
p157
aS'/app/espier-launcher/mobi.espier.launcher'
p158
aS'/app/water-live-wallpaper/com.xllusion.livewallpaper.water'
p159
aS'/app/live-wallpaper-butterfly-x/com.xffect.livewallpaperbutterflyx'
p160
aS'/app/miui-v5-go-nova-holo-adw-theme/com.fsproductions.theme.miui.v5'
p161
aS'/app/next-launcher-3d-trial-version/com.gtp.nextlauncher.trial'
p162
aS'/app/space-go-locker/com.jiubang.goscreenlock.theme.Space.dante'
p163
aS'/app/go-sms-pro-theme-maker-plug-in/com.jiubang.gosms.wallpaperplugin'
p164
aS'/app/smartlauncher-theme-kde-oxygen/ginlemon.sltheme.oxygen'
p165
aS'/app/galaxy-s4-wallpapers/com.steptoapps.wallpaper.galaxys4'
p166
aS'/app/update-me-smartphone/com.acquariusoft.UpdateMeSmartphone'
p167
aS'/app/iphone-drop-live-wallpaper/com.androidwasabi.livewallpaper.iphonedrop'
p168
aS'/app/paper-go-reward-theme/com.gau.go.launcherex.theme.Paper.fourinone'
p169
aS'/app/penman-pack-for-flipfont%C2%AE-free/com.monotype.android.font.pack.penman'
p170
aS'/app/space-galaxy-live-wallpaper/de.toar.livewallpaper.spacelive.free'
p171
aS'/app/transparent-wallpaper-camera/gfm.camera.packge'
p172
aS'/app/adw-theme-macos/akglo.themes.macos'
p173
aS'/app/panoramic-screen/com.hamsterbeat.wallpapers.fx.panorama'
p174
aS'/app/plate-theme-4-go-launcher-ex/com.wed.go.launcherex.theme.plate'
p175
aS'/app/tiny-white-icon-pack/com.samanthaconner.tinywhite'
p176
aS'/app/amazing-spider-man-3d-live-wp/cellfish.spidermanlwp'
p177
aS'/app/alpha-over-please-install-beta/com.androguide.pimp.my.rom'
p178
aS'/app/fireworks-live-wallpaper/org.jaeger.wallpaper.fireworks'
p179
aS'/app/sole-go-launcher-theme/com.gau.go.launcherex.theme.SimpleMing.free'
p180
aS'/app/xperia-apex-nova-theme/com.photox.xperia'
p181
aS'/app/autumn-live-wallpaper/com.live.wallpaper.autumn'
p182
aS'/app/window-go-launcher-theme/com.gau.go.launcherex.theme.F.D.window.free'
p183
aS'/app/settle-go-launcher-theme/com.gau.go.launcherex.theme.settle.theoya'
p184
aS'/app/glass-go-launcher-ex-theme/com.gau.go.launcherex.theme.trueglass'
p185
aS'/app/zfatewheel-locker-theme/com.jiubang.goscreenlock.theme.fatewheel.getjar'
p186
aS'/app/rain-drop-n-flower-lwp/com.raindropnflowerlwp.dokaapps'
p187
aS'/app/minimal-ui-go-nova-apex-theme/com.launchertheme.kxnt.ui'
p188
aS'/app/cracked-screen-live-wallpaper/com.androidwasabi.livewallpaper.crackedscreen'
p189
aS'/app/zharajukustarry-go-rewardtheme/com.gau.go.launcherex.theme.zharajuku.fourinone'
p190
aS'/app/dog-licks-screen-lwp-free/com.gironacci.dog.licks.free'
p191
aS'/app/minimalistic-text/de.devmil.minimaltext'
p192
aS'/app/galactic-core-free-wallpaper/fishnoodle.spacescapewallpaper_free'
p193
aS'/app/galaxy-s4-locksceen-original/com.nodev.s4locker'
p194
aS'/app/uccw-skin-sense-5-clock/sense5clock.uccwskin.dsaif'
p195
aS'/app/poweramp-ics-skin-theme/com.ikorolkov.poweramp.skins.ics'
p196
aS'/app/icon-changer-for-android/net.iconchanger'
p197
aS'/app/mobile9/com.mobile9.market.ggs'
p198
aS'/app/fish-tank-android-wallpaper/com.fishtankandroidwallpaper.scorp971'
p199
aS'/app/freshday-go-reward-theme/com.gau.go.launcherex.theme.freshdayriceriver.fourinone'
p200
a.