((S'Title'
p0
S'10000+ Free eBooks Reader '
p1
tp2
(S'Description:'
p3
S'10000+ free ebooks reader is the best ebook reader for android device,we provide more than 10000 most popular books and all of them are free for download. It will be your best choice if you love reading.'
p4
tp5
tp6
.