((S'Title'
p0
S'1-Klick Kleinanzeigen FREE '
p1
tp2
(S'Description:'
p3
S'Mit einer App bei eBay Kleinanzeigen, dhd 24, markt.de und Quoka suchen, sowie bei eBay Kleinanzeigen und Quoka inserieren.Foto schie\xc3\x9fen, Beschreibung eingeben, best\xc3\xa4tigen, FERTIG!Funktionen:==================* Inserate gleichzeitig bei eBay Kleinanzeigen und Quoka schalten* Eigene Inserate l\xc3\xb6schen/deaktivieren/aktivieren* Anbindung an "Verkaufswert Rechner" um realistischen Marktwert zu ermitteln* Speichern von Anzeigen als Vorlage f\xc3\xbcr sp\xc3\xa4tere Fertigstellung oder um neu einzustellen* Gemeinsame Suche \xc3\xbcber alle 4 Kleinanzeigenportale (eBay, dhd24, Quoka, markt.de)* Merkliste mit KommentarfunktionVorteile der Vollversion================================* keine Werbung* Integration in das Kontextmen\xc3\xbc von Bildern* Automatische Fu\xc3\x9fzeile und Impressum* Hinweis auf die App unter der Anzeige abschaltbarWICHTIG - BITTE LESEN:======================Verbesserungsvorschl\xc3\xa4ge per eMail sind willkommen! Wenn Sie Freude an dieser App haben, w\xc3\xbcrde ich mich \xc3\xbcber eine positive Bewertung sehr freuen :-)Auf Grund der Funktionsweise der App und der st\xc3\xa4ndigen Weiterentwicklung, sind regelm\xc3\xa4\xc3\x9fige (w\xc3\xb6chentliche) Updates die Regel. F\xc3\xbcr wen das ein Problem darstellt, der sollte diese App nicht nutzen!Falls die App doch mal abst\xc3\xbcrzen sollte, bitte auf "Bericht senden" klicken, damit ich den Fehler nachvollziehen und beheben kann.Bitte keine Fehler \xc3\xbcber den Market-Kommentar melden, da ich darauf nicht reagieren kann. Einfach eine eMail schreiben und der Fehler wird bald behoben.=====================eBay (R) ist eingetragenes Warenzeichen der eBay Inc.Nutzung des Markennamens dhd24 mit freundlicher Genehmigung von "der heisse draht Verlagsgesellschaft mbH & Co. KG". Quoka ist eingetragenes Warenzeichen der Quoka GmbH. markt.de ist eingetragenes Warenzeichen der markt.de GmbH & Co. KG.Dieses Programm ist ein rein privates Projekt und steht in keinerlei Beziehung zur eBay Inc., zu Marktplaats B.V., dem Betreiber der eBay Kleinanzeigen, zu dhd24.com (der heisse draht Verlagsgesellschaft mbH & Co. KG), zu markt.de GmbH & Co. KG oder zu Quoka GmbH.Recent changes:1.7.14- Holo Theme auf Android >= 4.0- Inserieren bei Quoka sollte nun wieder gehen, falls nicht, bitte umgehend melden!- Inserieren bei dhd24 musste leider bis auf weiteres deaktiviert werden, da die Schnittstelle wegen Spammern gesperrt wurde1.7.12- Fehler beim Abrufen der eigenen Quoka Artikel behoben- Kleinere Optimierungen'
p4
tp5
tp6
.