((S'Title'
p0
S'365Scores:Sports Scores & News '
p1
tp2
(S'Description:'
p3
S"Choose your favorite teams and leagues to get your own customized sport app including all scores, standings, news, tweets and highlights All in ONE PLACE with a unique experience.NFL , MLB , NBA , NHL , MLS, NCAA and thousands of different leagues across the globe \xe2\x98\x85\xe2\x98\x85\xe2\x98\x85\xe2\x98\x85\xe2\x98\x85 Top rated sport app in Google Play!\xe2\x9c\x93 PERSONALIZED sports  scores, aggregated sports news, alerts and videos in real time \xe2\x9c\x93 Fastest push notification with real time updates from your preferred teams and leagues\xe2\x9c\x93 Get all your sports news from your favorite local sport sites in one place \xe2\x9c\x93 In-depth game coverage, players statistics, schedules, league standings and sports videosSee what real fans have said in our 5-star app's reviews:\xe2\x98\x85\xe2\x98\x85\xe2\x98\x85\xe2\x98\x85\xe2\x98\x85 Amazingly perfect, best scoreboards app, fast push notifications within seconds of real events and the best part (free nba highlights). Well done Extremely recommended\xe2\x98\x85\xe2\x98\x85\xe2\x98\x85\xe2\x98\x85\xe2\x98\x85 Wow, after defining Lakers, Red Sox and Patriots, ... I get the scoreboard , news , tweets and videos in one place , amazing, Contains everything I'm looking for in an app\xe2\x98\x85\xe2\x98\x85\xe2\x98\x85\xe2\x98\x85\xe2\x98\x85 MLB scores, NFL scores, NBA scores and college football scores - all scoreboards and fixtures in one place with news, nba highlights and player tweets... fantasticCompletely customizable push notifications, define by league, game or event (goal, touchdown, yellow card, tennis serve break etc.)Supports 7 different sports: Soccer, Tennis, Basketball, Ice Hockey, Baseball, Volleyball, and Football Enjoy over 1000 leagues and teams from around the globe: La Liga, FA Cup, Champions League ,Seria A ,Uefa , Bundesliga , NBA playoffs , Davis Cup, Grand Slam , NFL , NBA , MLB , NHL , NCAA , MLS,San Diego Chargers, New England Patriots, Boston Celtics, Cleveland Cavaliers, New York Yankees, Philadelphia Phillies,  Orlando Magic, Los Angeles Lakers, Los Angeles Dodgers, Seattle Mariners , Miami Marlins , Philadelphia Phillies and much more!Tweets from your favorite players: LeBron James, Shaquille O'Neil, Dwyane Wade , Kevin Durant, Dwight Howard , Lamar Odom , Carmelo Anthony , Paul Pierce , Kobe Bryant , Pau Gasol , Rafael Nadal , Serena Williams , Novak Djokovic , Andy Murray , Juan Mart\xc3\xadn del Potro , Andy Roddick, Oeiras, Portugal Open, Munich , BMW Open and much more!For feedback or questions please email us or visit us on Facebook: www.facebook.com/365scoresRecent changes:- Performance improvement - Bug Fixes"
p4
tp5
tp6
.