((S'Title'
p0
S'3D Magic Princess '
p1
tp2
(S'Description:'
p3
S'The Beautiful Fairy wallpapers and backgrounds app for your Android!wallpapers library has 2000+ wallpapers for free.Get your next background from this huge collection of beautiful free wallpapers:- Browse many popular backgrounds categories with our fast browsing interface- See the current and all-time popular backgrounds- Favorite & save wallpapers for later on the SD cardRecent changes:Optimized UI.'
p4
tp5
tp6
.