((S'Title'
p0
S'4 Pics 1 Word '
p1
tp2
(S'Description:'
p3
S'\xe2\x98\x85\xe2\x98\x85\xe2\x98\x85\xe2\x98\x85\xe2\x98\x85 Whats the word we are looking for? \xe2\x98\x85\xe2\x98\x85\xe2\x98\x85\xe2\x98\x85\xe2\x98\x85Each puzzle contains four pictures that have something in common - what is it? Find out why everyone loves this game and join the fun now! \xe2\x98\x85PURE, INSTANT FUN\xe2\x98\x85No registration, no complicated rules. Just start playing and have fun! \xe2\x98\x85CAN YOU GUESS THEM ALL?\xe2\x98\x85Can you guess all words and unlock all levels? Countless puzzles from easy to tricky are waiting for you! \xe2\x98\x85SIMPLE AND HIGHLY ADDICTIVE GAMEPLAY\xe2\x98\x85What\xe2\x80\x99s the word? Look at the four pictures, find out what they have in common. Win!Recent changes:- Jay! We have integrated push notifications to keep you informed about new updates and much more. :)- more new puzzles!'
p4
tp5
tp6
.