((S'Title'
p0
S'90elf Fussball Bundesliga Live '
p1
tp2
(S'Description:'
p3
S'ALLE SPIELE der 1. und 2. Bundesliga, DFB-Pokal sowie ausgew\xc3\xa4hlte Spiele der Champions League und Europa League LIVE, KOSTENLOS UND IN VOLLER L\xc3\x84NGE.Das Stadion f\xc3\xbcr die Hosentasche! Die neue 90elf App f\xc3\xbcr Dein Android. Damit kannst du jederzeit \xc3\xbcberall mobil die Spiele deiner Mannschaft h\xc3\xb6ren. Fu\xc3\x9fball-Genuss total, quasi die Dauerkarte f\xc3\xbcrs Stadion!*****90elf ist Deutschlands erstes Fussball-Radio und offizieller Rechtepartner der Deutschen Fu\xc3\x9fball Liga (DFL). *****Wir haben sie alle: die Spiele der 1. und 2. Bundesliga live und in voller L\xc3\xa4nge. Fans erleben 90 Minuten Emotionen und Leidenschaft - ohne Unterbrechung. Sei hautnah dabei, wenn dein Verein spielt, entweder im Einzelspiel oder in der Konferenz. Dazu der DFB-Pokal live sowie ausgew\xc3\xa4hlte Spiele der Champions League und Europa League. Dar\xc3\xbcber hinaus findest Du in unserer interaktiven Fu\xc3\x9fball-Talkshow \xe2\x80\x9eBolzplatz\xe2\x80\x9c Berichte zu Weltmeisterschaft (WM, Worldcup) und Europameisterschaft (EM), sowie Infos und Fakten aus den europ\xc3\xa4ischen Top-Ligen (PremierLeague, S\xc3\xbcper Lig, Primera Division, Serie A, Ligue 1) und von Spitzen-Clubs, wie z.B. Real Madrid, Manchester United, FC Barcelona, FC Liverpool, Arsenal London oder Chelsea FC.Au\xc3\x9ferdem: News, Tabellen, Spielplan, Nachrichten, alle Tore, Stars, Ticker und vieles mehr!90elf ist die Applikation f\xc3\xbcr echte Fu\xc3\x9fball-Fans: Spieler, Trainer, Manager, Football Coaches, Kicker, Freunde des runden Leders und alle, die Sport, ihren Klub, Soccer und Fussball lieben.Mach aus Deinem Handy ein Fu\xc3\x9fballstadion - ran an die App! Bei 90elf h\xc3\xb6rst Du live die Spiele folgender Vereine der 1. & 2. Bundesliga:1. FC N\xc3\xbcrnberg, SPVGG Greuther F\xc3\xbcrth, 1. FSV Mainz 05, 1899 Hoffenheim, Fortuna D\xc3\xbcsseldorf, Bayer 04 Leverkusen, Borussia Dortmund, Borussia M\xc3\xb6nchengladbach, Eintracht Frankfurt, FC Bayern M\xc3\xbcnchen, FC Schalke 04, FC St. Pauli, Hamburger SV, Hannover 96, SC Freiburg, SV Werder Bremen, VfB Stuttgart, VFL Wolfsburg, 1. FC Union Berlin, Hertha BSC Berlin, FC Augsburg, FC Energie Cottbus, 1. FC K\xc3\xb6ln, FSV Frankfurt, MSV Duisburg, 1. FC Kaiserslautern, Rot-Weiss Oberhausen, SC Paderborn 07, TSV M\xc3\xbcnchen 1860, VFL Bochum 1848, Eintracht Braunschweig, FC Erzgebirge Aue, SG Dynamo Dresden, FC Ingolstadt 04, FSV Frankfurt, SV Sandhausen, Jahn Regensburg, VfR Aalen*****Werde jetzt auch Fan von 90elf auf Facebook - unter www.facebook.com/90elf und folge uns bei Twitter: www.twitter.com/90elf90elf h\xc3\xb6rst Du auch online gratis, im Internet als Audio Stream unter www.90elf.de*****Hinweise:90elf kann mit dieser Applikation sowohl \xc3\xbcber WLAN als auch 3G/UMTS empfangen (Stream) werden. Die Empfangsm\xc3\xb6glichkeit bei EDGE-Verbindungen kann eingeschr\xc3\xa4nkt sein. Bei der Nutzung von 90elf k\xc3\xb6nnen Datenverbindungskosten bei deinem Netzbetreiber entstehen. Bitte testet mit der App "Speed Test", ob eure Bandbreite ausreichend ist, um 90elf zu h\xc3\xb6ren.Die App gilt die gesamte Saison 2012/13.Wir sind unabh\xc3\xa4ngig und stehen in keinem Zusammenhang zu: ARD, ZDF, ran Sat.1, kicker, Eurosport, Sport1, Spox, Liga Entertain, Liga Total, PES, iLiga, 11 Freunde, Pocket Liga, UEFA, FIFA, Sportschau, Mein Klub, BILD, Fussball.de, Sky TV.Noch eine Bitte: da wir auf Kritik in den Kommentaren /Reviews nicht direkt antworten k\xc3\xb6nnen, w\xc3\xbcrden wir uns freuen, wenn ihr Fehler oder Anregungen direkt an geschaeftsstelle@90elf.de sendet, bevor ihr uns eine schlechte Wertung gebt. Wir antworten dann direkt und k\xc3\xbcmmern uns um eine L\xc3\xb6sung. Besten Dank! Bitte testet mit der App "Speed Test", ob eure Bandbreite ausreichend ist, um 90elf zu h\xc3\xb6ren.Recent changes:+++ Liebe 90elf-H\xc3\xb6rer, mit dieser App-Version sollte es nun einfacher sein, direkt zu updaten, ohne die App neu installieren zu m\xc3\xbcssen. +++Saisonfinale in der Bundesliga! Bayern und Dortmund im Viertelfinale der Champions League! Mit dem neuen Update verpasst ihr kein Spiel und keine Tore.'
p4
tp5
tp6
.