((S'Title'
p0
S'9GAG - Official 9GAG app '
p1
tp2
(S'Description:'
p3
S'Laugh more.9GAG is your best source of fun. Share anything you find interesting, get real responses from people all over the world, and discover what makes you laugh.Have all the latest and funniest photos and videos on your Android phones! Full 9GAG experience on your device!\xe2\x80\xa2 Featuring the best collection of Rage comics, memes, fail image, cute pets video, demotivational pictures, killing time just got a whole lot funnier\xe2\x80\xa2 Be forever alone no more! Share joke and pics with the world on Facebook, Twitter or email\xe2\x80\xa2 Browse and vote your way through picture on Hot, Trending and Vote, and leave commentsDownload the official 9GAG app now!Tags: 9gag, 9gags, 9gag.com, app, best, buzz, comics, twitter, funny, pic, photo, college, comical, facebook, fun, funniest, gag, gags, videogag, videogags, laugh, lol, loud, meme, memes, free 9gag, free gag viewer, igag, hot, trending, vote, memebase, epicfail, failblog, reddit, damnlol, ifunny, trolls, photobombs, verydemotivational, smartphowned, will ferrell, memecenter, i am bored, leragecomics, leninja, izismile, cuantocabron, ebaumsworld, demotivation, thechive, taringa, quickmeme, imgur, funnyjunk, scumbag, steve, bad luck brian, philosoraptor ,success kid, oag, overly attached girlfriend, socially awkward penguin, confession bear, obama, unsafe, censored, nsfw, videos, rage comics, cute, geek, pictures, reader, share, video, viewerRecent changes:1.3.0 (2013-05-02)- Google Plus integration- Fixed post list decode fail- Fixed volume navigation bug- A notification will be displayed after saving photo'
p4
tp5
tp6
.