((S'Title'
p0
S'Aboalarm K\xc3\x83\xc2\xbcndigungsmaschine '
p1
tp2
(S'Description:'
p3
S'Was sagen unsere User? \xe2\x80\x9eEinfacher geht\xe2\x80\x99s nicht! Funktioniert perfekt und spart massig Zeit und Geld! Eindeutig eine der n\xc3\xbctzlichsten Apps, die ich bis jetzt gefunden habe.\xe2\x80\x9c (Thomas Kowalski)\xe2\x80\x9eNoch nie war das K\xc3\xbcndigen so einfach. Super einfach zu bedienen!\xe2\x80\x9c (Christine Heide)\xe2\x80\x9eHabe es gleich ausprobiert  (Bahncard gek\xc3\xbcndigt) und nur einen Tag sp\xc3\xa4ter kam die Best\xc3\xa4tigung der K\xc3\xbcndigung der Deutschen Bahn. Bin begeistert, sehr empfehlenswert!\xe2\x80\x9c (Gregor Anderl)Endlich f\xc3\xbcr Android! Mit der Aboalarm App k\xc3\xb6nnen Sie alle Ihre Vertr\xc3\xa4ge (z.B. Handy, DSL) sofort per Fax k\xc3\xbcndigen oder sich per Email an K\xc3\xbcndigungsfristen erinnern lassen. Aboalarm wurde von Apple zur \xe2\x80\x9eApp der Woche\xe2\x80\x9c gek\xc3\xbcrt und u.a. von Computerbild, Chip.de, 3sat, WDR uvm. empfohlen!Nach 300.000 Downloads f\xc3\xbcr das iPhone endlich auch f\xc3\xbcr Android Smartphones.Der Download der Aboalarm-App f\xc3\xbcr Android im Market ist kostenlos. In der Einf\xc3\xbchrungsphase bleibt auch das Faxen \xc3\xbcber die App  kostenlos. Bei \xc3\xbcber 1 Millionen Vertragsk\xc3\xbcndigungen hat Aboalarm schon geholfen: Das Wichtigste schnell im \xc3\x9cberblick:- vorformulierte K\xc3\xbcndigungsschreiben erstellen - 750 Anbieter-Adressen inkl. Faxnummern in qualit\xc3\xa4tsgepr\xc3\xbcfter Datenbank- kostenloser PDF Export der K\xc3\xbcndigungsschreiben- K\xc3\xbcndigungserinnerung anlegen und per E-Mail an Fristen erinnert werden.- Verkn\xc3\xbcpfung und Synchronisation mit Aboalarm-Konto oder Facebook\xe2\x80\xa8- vier-stelliger Sperrcode- Touch-UnterschriftenfunktionZu den Kernfunktionen im Detail:A) Versand der K\xc3\xbcndigungsschreiben per Fax- direkt von Ihrem Android Smartphone- mit dem Finger unterschreiben- Gratis-Fax f\xc3\xbcr jeden NutzerB) K\xc3\xbcndigungserinnerung- Per EMail-Benachrichtung - Rechtzeitig vor Ablauf der K\xc3\xbcndigungsfristMit Aboalarm haben Sie alle Vertr\xc3\xa4ge im Griff (Handy, DSL,Versicherung, etc) und sparen bis zu \xe2\x82\xac 2.000 pro Jahr an unn\xc3\xb6tigenVertragskosten.Hinweis:Mit dem Download best\xc3\xa4tigen Sie, dass SieIhre Vertr\xc3\xa4ge frist- und formgerecht k\xc3\xbcndigen. Die Form- undFristvorschriften sind den AGB Ihres Vertragspartners zu entnehmen.Ein mit Hilfe der App unterschriebenes K\xc3\xbcndigungsschreibenentspricht nicht der strengen Schriftform (auch wenn hierzu noch keinrichterliches Urteil vorliegt) und kann daher vom Anbieter abgelehntwerden, wenn dieser die Schriftform f\xc3\xbcr K\xc3\xbcndigungsschreiben in seinenAGB festlegt. Um sicherzustellen, dass Ihre K\xc3\xbcndigung auchtats\xc3\xa4chlich akzeptiert wird, solle man rechtzeitig (z.B. 4 Wochen vorEnde der K\xc3\xbcndigungsfrist) sein K\xc3\xbcndigungsschreiben \xc3\xbcber Aboalarm versenden.Recent changes:- Unterst\xc3\xbctzung f\xc3\xbcr den S-PEN der Galaxy Note Ger\xc3\xa4te- "Server nicht erreichbar" Bug behoben- Kleine Fehlerbehebungen'
p4
tp5
tp6
.