((S'Title'
p0
S'AddMe To Bring Followers '
p1
tp2
(S'Description:'
p3
S'What is ADD ME FAST?ADD ME FAST simply helps you gain more publicity on social networks, it shows you a smooth and simple way to grow the number of followers on Twitter and Instagram, it helps you get more viewers on YouTube, and more likes and admirations to your Facebook page and/or your Google circles.Features of this app:1 - Supports different screen sizes.2 - Multilingual.3 - The program supports explanation with how the application for better and faster performance.Benefits of this app:1 - Explains to you the fastest way to bring Likes to your Facebook page.2 - Explains to you the fastest way to publicize your publications on Facebook.3 - Explains to you the fastest way to bring followers to you on Facebook.4 - Explains to you the fastest way to bring post share on Facebook.5 - Explains to you the fastest way to bring followers on Twitter.6 - Explains how to deploy your tweet you choose.7 - Tells you how to make people Re-Tweet your Tweets.8 - Tells you how to make people favorite your tweet.9 - Explains to you the fastest way to get hits on your YouTube channel.10 - Explains to you the fastest way to get more subscribers on YouTube.11 - Explains to you the fastest way to get Likes to the video you have chosen.12 - Explains to you the fastest way to get Followers on Google Circles (Google Plus).13 - Explains to you the fastest way to get followers on Instagram.Register for the service and begin to gain followers.http://admf.co/?MUC190ZRecent changes:If you do not know how to use the application please send us an e-mail to communicate with you and provide appropriate explanationBut do not judge on the application like a foiled app just because you not know how to used because Many now got the lot of followers'
p4
tp5
tp6
.