((S'Title'
p0
S'Adobe\xc3\x82\xc2\xae Connect\xc3\xa2\xe2\x80\x9e\xc2\xa2 Mobile '
p1
tp2
(S'Description:'
p3
S"Host, attend, present, and completely drive collaboration in Adobe\xc2\xae Connect\xe2\x84\xa2 meetings or training - anywhere, anytime.  Download the FREE Adobe Connect Mobile application, which brings nearly all capabilities from the desktop to your mobile device, enabling you to drive collaboration directly from your Android tablet or smartphone. Launch meetings and administer with control over attendee access rights, recordings, audio conferencing, and layouts. Share presentations, documents and multimedia content saved on your device or from your library in the cloud, and easily annotate with your finger. Participate in multi-point video conferencing, with 2-way video, using your device\xe2\x80\x99s camera. Watch all the activities happening in the meeting at once, see who is in the meeting, collaborate with others using live text chat, and respond to polls. Use VoIP meeting audio to broadcast straight to your tablet or phone over a WiFi or 3G connection, or chose to join a telephone conference if the option is provided by the meeting host.  Don't have an Adobe Connect Account? Adobe Connect Mobile lets you join meetings run by anyone with an Adobe Connect account. If you want to run your own meetings for others to join from their computers or mobile devices, sign up for a FREE 30 day trial here: http://www.adobe.com/go/try_adobeconnectNEW FEATURES: (Most new features apply to tablets only; \xe2\x80\x9cB\xe2\x80\x9d indicates both smartphone and tablet) \xe2\x80\xa2 Manage meeting audio \xe2\x80\xa2 Invite others to the meeting \xe2\x80\xa2 Start, stop, pause and resume recordings (pause and resume on Adobe Connect 9) \xe2\x80\xa2 Enable Web Camera rights for all participants at once \xe2\x80\xa2 Switch between layouts in the meeting room \xe2\x80\xa2 Share content from share history \xe2\x80\xa2 Share content from Adobe Connect content library \xe2\x80\xa2 Share content from local device photo library or file storage (SD Card) \xe2\x80\xa2 Use drawing tools (pencil, highlighter, shapes) on whiteboard and on top of shared files \xe2\x80\xa2 Use emoticons: Raise Hand (B), Agree / Disagree (B), Speak Louder / Speak Softer, Speed Up / Slow Down, Laughter, Applause \xe2\x80\xa2 Stepped away indication appears when multi-tasking away from app \xe2\x80\xa2 Device phone number detected and populated when joining audio \xe2\x80\xa2 Participate in breakout rooms REQUIREMENTS: Software: Adobe AIR for mobile installed (AIR 3.2 or later); Android 2.2/FroYo (or later) Validated devices: \xe2\x80\xa2 Samsung Galaxy Tab 2    \xe2\x80\xa2 Samsung Galaxy Tab \xe2\x80\xa2 Google Nexus 7\xe2\x80\xa2 ASUS Transformer \xe2\x80\xa2 Motorola Xoom \xe2\x80\xa2 Motorola Xoom 2 \xe2\x80\xa2 HTC One X\xe2\x80\xa2 Samsung Galaxy SIII\xe2\x80\xa2 Samsung Galaxy Note\xe2\x80\xa2 Motorola DROID RAZR 4G LTE by VerizonRecent changes:- Manage audio- Invite others- Control recordings- Switch layouts- Share content from the cloud- Share local files and photos- Use drawing tools on your slides and images- Use emoticons- Quickly join conference calls - have the meeting call you and skip the dialing codes- Participate in breakout rooms"
p4
tp5
tp6
.