((S'Title'
p0
S'AirDroid '
p1
tp2
(S'Description:'
p3
S"Your Android, on the WebAirDroid is a free and fast app that helps you manage your Android from a desk web browser, all over the air. AirDroid philosophy: \xe2\x80\xbb One less cable. Move things on and off your Android device without a USB cable. Even when the device is not nearby.\xe2\x80\xbb One less screen. Send and receive SMS from your big-screen computer, without being distracted by the small-screen thing.\xe2\x80\xbb One less worry. Locate and lock your Android when it\xe2\x80\x99s lost. Cannot get it back? Simply wipe all data remotely.Media coverage:\xe2\x80\xbb \xe2\x80\x9cThis app allows you to take complete control of your Android device via your computer's Web browser.\xe2\x80\x9d - PCWorld\xe2\x80\xbb \xe2\x80\x9cI'm sending text SMS messages from my Android phone via my browser. I can't stress how great that is.\xe2\x80\x9d - Gizmodo\xe2\x80\xbb \xe2\x80\x9cIt's a remarkably comprehensive app, operates securely, and is a free download.\xe2\x80\x9d - Lifehacker\xe2\x80\xbb \xe2\x80\x9cIt's all the little things, the things that make AirDroid a joy to use, which make it the app of the year.\xe2\x80\x9d - Android PoliceKey features:\xe2\x80\xbb Desktop SMSSend & receive SMS from the comfort of your computer. Faster typing and navigation with the full keyboard and large screen.\xe2\x80\xbb Files and MediaMove photos, videos, ringtones and any other files on and off Android, all without a USB cable.\xe2\x80\xbb Find PhoneLocate and lock your Android when it\xe2\x80\x99s lost. Cannot get it back? Simply wipe all data remotely.\xe2\x80\xbb Manage AppsEasier way of app search, installation and apk export.\xe2\x80\xbb Camera and ScreenshotSee through the lens of your Android camera, front and back. Or stream the screen of your Android in nearly real-time.\xe2\x80\xbb Phone Calls, Clipboard , Url transfer and moreCall contact, share clipboard content, push url to Android and more features awaiting your discovery.AirDroid community:\xe2\x80\xbb Interact with the AirDroid team and other users:http://forum.airdroid.comhttp://Twitter.com/AirDroidTeamhttp://Facebook.com/AirDroidhttp://Gplus.to/AirDroidhttp://YouTube.com/user/AirDroidTeam*We may not be able to reply to all the messages we receive, but we definitely try to read all of them. Thanks!\xe2\x80\xbb Thanks to our enthusiastic users around the world, AirDroid is speaking and learning new languages everyday: http://crowdin.net/project/airdroid/activity_stream\xe2\x80\xbb Join the community and improve AirDroid translation here: http://airdroid.com/forum/categories/localizationYou might also be searching for us using the following keywords:desktop sms, web sms, install apk, manage apk, export apk, file manager, file browser, sd card, transfer file, export photo, upload photo, sync photo, export music, upload music, sync music, contact manager, take screenshot, real time screenshot, record screen, remote camera, cctv, sync, ftp, remote desktopRecent changes:1. Fixed bugs causing issues under certain environment that when signing into web.airdroid.com AirDroid connects the device via Remote Connection Mode instead of LAN Connection Mode.2. Fixed bugs causing FC for certain devices.3. Other bugs fixes and improvements."
p4
tp5
tp6
.