((S'Title'
p0
S'A.I.type Keyboard Free '
p1
tp2
(S'Description:'
p3
S'The best keyboard on the Android Market! *** Trial version - text prediction will be available for 14 days only (other great features are unlimited!). ***Tablet user? Download FloatNSplit Tablet Keyboard and get a whole new experience in typing!So, what makes A.I.type Keyboards simply THE BEST?* It\xe2\x80\x99s smart! The keyboard suggests your next word, completes your current word and corrects your typos based on the context of what you are writing (limited to 14 days on free version).* It gets smarter! As you type, the keyboard learns your common words, phrases and style, and improves its text prediction accordingly. We call it \xe2\x80\x93 MyType (limited to 14 days on free version).* It\xe2\x80\x99s accurate! You don\xe2\x80\x99t have to be very precise with the keys you hit. Even if you miss keys frequently, the keyboard will understand and correct you (limited to 14 days on free version).* It\xe2\x80\x99s coooooool! You can change colors, themes, background images, fonts! You can resize the keyboard by dragging the resize key! You can make you keyboard look exactly like iPhone4, Windows Phone 7 or ICS (and more!)\xe2\x80\xa6* It\xe2\x80\x99s efficient! You have navigation buttons, you can undo and redo your changes, copy, cut and paste from the keyboard and more. ***And the newest feature: just swipe up to get a numeric / navigation / symbols row!**** It supports so many languages! The keyboard has over 35 keyboard layouts, and other than in English, text prediction is provided in Spanish, German, French, Italian, Arabic, Russian, Dutch, Korean, Greek, Swedish and Hebrew.* It\xe2\x80\x99s safe! A.I.type never collects, analyzes or sends your personal information, passwords, credit card numbers etc. * It warns you when it corrects your text! Well, it may sound trivial, but getting corrected without a notice is so annoying\xe2\x80\xa6 So you get a visual indication before auto-correction is applied, and a beep after the correction.A.I.type is the next word in predicting your next word!Privacy notice: while installing A.I.type Keyboard, you will receive a warning message about collecting sensitive data. This is the standard general-purpose Android message issued for any downloaded keyboard and it does not pertain to A.I.type. Our keyboard DOES NOT COLLECT YOUR SENSITIVE DATA.Psychic word completions and predictions are generated by A.I.type\xe2\x80\x99s servers on the Cloud. When the device is offline or Internet connection is too slow, or if you disabled Cloud-based prediction, word suggestions will be generated by the device only.Because A.I.type keeps improving, it\xe2\x80\x99s recommended that you enable auto-update on Android Market so you always have the latest version.Note: always download you\xe2\x80\x99re a.I.type applications only from Google Play! (Can you really trust anonymous hackers and crackers not to steal your private data?)Please contact support@aitype.com with any feedback, issue or suggestion.Writing has never been easier!\xd9\x84\xd9\x88\xd8\xad\xd8\xa9\xd8\xa7\xd9\x84\xd9\x85\xd9\x81\xd8\xa7\xd8\xaa\xd9\x8a\xd8\xad,\xd9\x83\xd9\x8a\xd8\xa8\xd9\x88\xd8\xb1,teclat,kl\xc3\xa1vesnice,tastatur,\xcf\x80\xce\xbb\xce\xb7\xce\xba\xcf\x84\xcf\x81\xce\xbf\xce\xbb\xcf\x8c\xce\xb3\xce\xb9\xce\xbf,teclado,\xd8\xb5\xd9\x81\xd8\xad\xd9\x87 \xda\xa9\xd9\x84\xdb\x8c\xd8\xaf,n\xc3\xa4pp\xc3\xa4imist\xc3\xb6,clavier,\xd7\x9e\xd7\xa7\xd7\x9c\xd7\x93\xd7\xaa,billenty\xc5\xb1zet,tastiera,\xe1\x83\x99\xe1\x83\x9a\xe1\x83\x90\xe1\x83\x95\xe1\x83\x98\xe1\x83\x90\xe1\x83\xa2\xe1\x83\xa3\xe1\x83\xa0\xe1\x83\x98\xe1\x83\xa1,\xed\x82\xa4\xeb\xb3\xb4\xeb\x93\x9c,tastat\xc5\xabra,klaviat\xc5\xabra,toetsenbord,klawiatura,\xd0\xba\xd0\xbb\xd0\xb0\xd0\xb2\xd0\xb8\xd0\xb0\xd1\x82\xd1\x83\xd1\x80\xd0\xb0,\xd1\x82\xd0\xb0\xd1\x81\xd1\x82\xd0\xb0\xd1\x82\xd1\x83\xd1\x80\xd0\xb0,tangentbord,\xe0\xb9\x81\xe0\xb8\x9b\xe0\xb9\x89\xe0\xb8\x99\xe0\xb8\x9e\xe0\xb8\xb4\xe0\xb8\xa1\xe0\xb8\x9e\xe0\xb9\x8c,klavye,\xd0\xba\xd0\xbb\xd0\xb0\xd0\xb2\xd1\x96\xd0\xb0\xd1\x82\xd1\x83\xd1\x80\xd0\xb0Tags: keyboards best android gingerbread texting pro T9 compact better than multiling touchpal go hackers swiftkey slideit smart perfect Ice Cream Sandwich ICS Thumb Jelly BeanRecent changes:New activation wizard and application screensSupport new iOS 6 and jelly bean emoji plugin with more than 800 icons - need to download separatelyFixed color preference preview for JBFix custom colors (for caps-lock, numpad and emoji selected key)Fix Del when clicking Shift + BackspaceFix Auto-Text saving problem Polish PredictionaryLocal UI in - Spanish, Italian, Arabic, polish, Swedish, Russian Korean shift fixRussian layout fix'
p4
tp5
tp6
.