((S'Title'
p0
S'Aldi, Tchibo & 300 mehr: 2013 '
p1
tp2
(S'Description:'
p3
S'MeinProspekt XT 2013 installieren und ordentlich sparen!Liebe User, anbei f\xc3\xbcr Euch unsere neue \xc3\xbcberarbeitete MeinProspekt XT App. Mit unserem neuen Bl\xc3\xa4ttertool k\xc3\xb6nnt Ihr Euch nicht nur noch schneller einen \xc3\x9cberblick \xc3\xbcber die besten Schn\xc3\xa4ppchen verschaffen, sondern auch noch besser sparen!Aldi, Lidl, Tchibo & 300 weitere ...Wir w\xc3\xbcnschen Euch viel Spa\xc3\x9f mit der MeinProspekt XT 2013! Und freuen uns \xc3\xbcber Eurer Feedback an feedback@meinprospekt.deEuer Team von MeinProspektwww.meinprospekt.deAktuelle Angebote und Werbeprospekte direkt am Handy oder Tablet aufrufen und bl\xc3\xa4ttern. Kauf da wo Du die besten Preise bekommst!\xe2\x80\xa8================================Die aktuellen Angebote und Werbeprospekte vieler Handelsunternehmen k\xc3\xb6nnen ab sofort abgerufen, durchsucht und durchgebl\xc3\xa4ttert werden. Das sind die lokalen Sonderangebote von \xc3\xbcber 100.000 Gesch\xc3\xa4ften/Filialen in Deutschland, Schweiz und \xc3\x96sterreich: z.B. f\xc3\xbcr Berlin, M\xc3\xbcnchen, Wien, Z\xc3\xbcrich und ca. 20.000 weitere St\xc3\xa4dte/Orte.Jetzt mit verbesserter Zooming-Funktion!Die aktuellen Sonderangebote oder \xc3\x96ffnungszeiten und Filialen von \xc3\xbcber 300 Handelsunternehmen:DISCOUNTER: Aldi, Lidl, Netto ... \xe2\x80\xa8FOOD: Edeka, real, Hit, V-Markt, Tchibo ... \xe2\x80\xa8BIO: BioMarkt, Alnatura, Basic ... \xe2\x80\xa8TECHNIK: MediaMarkt, Saturn, ProMarkt, Expert, Conrad, Gravis ... \xe2\x80\xa8DROGERIE: Schlecker, Rossmann, Ihr Platz ... \xe2\x80\xa8MODE: Deichmann, Hirmer, Ernsting\xc2\xb4s Family ... \xe2\x80\xa8KAUFHAUS: Karstadt, Kaufhof, SportScheck ... \xe2\x80\xa8EINRICHTUNG: Ikea, Depot, Kare, H\xc3\xb6ffner ... \xe2\x80\xa8BAUMARKT: Praktiker, Obi, Baywa, Hagebau ... \xe2\x80\xa8ZOO: Fressnapf, Futterhaus, Zoo & Co ... \xe2\x80\xa8FASTFOOD: Burger King, Mc Donald\xe2\x80\xa8usw.St\xc3\xa4dte:\xe2\x80\xa8Berlin, Hamburg, M\xc3\xbcnchen, K\xc3\xb6ln, Frankfurt, Essen, Dortmund, Stuttgart, D\xc3\xbcsseldorf, Bremen, Hannover, Duisburg, Leipzig, N\xc3\xbcrnberg, Dresden, Bochum, Wuppertal, Bielefeld, Mannheim, Bonn, etc.HINWEIS: \xe2\x80\xa8Die Anzahl der gezeigten H\xc3\xa4ndler und Prospekte kann sich jederzeit \xc3\xa4ndern. Wir sind bem\xc3\xbcht m\xc3\xb6glichst viele Prospekte aufzunehmen, sind dabei aber auf die Kooperation der Unternehmen angewiesen.STATUS: \xe2\x80\xa8Die App l\xc3\xa4uft auf allen leistungsf\xc3\xa4higen Android-Plattformen. Gr\xc3\xb6\xc3\x9fere Bugs sind uns zur Zeit nicht bekannt.WICHTIG: \xe2\x80\xa8Bei Euren Kommentaren zu Problemen im Store oder per Mail bitte unbedingt mit angeben (1) auf welchem Ger\xc3\xa4t es die Probleme gibt (2) welche Android-Version Ihr einsetzt (3) Welche MeinProspekt Version Ihr verwendet. Vielen Dank!Falls Ihr noch Fragen oder Featurew\xc3\xbcnsche habt, dann bitte ein Mail anfeedback@meinprospekt.de und das Problem, die Idee oder die Frage kurz schildern. Wir antworten so schnell es geht. Vielen Dank!www.meinprospekt.de\xe2\x80\xa8Ein paar Meinungen unserer User zu der iPhone/iPad App\xe2\x80\xa8================================\xe2\x9e\x80 Toll - \xe2\x98\x85\xe2\x98\x85\xe2\x98\x85\xe2\x98\x85\xe2\x98\x85\xe2\x80\xa8by Jojin345 - Version 4.02 - 09 November 2011\xe2\x80\xa8Ich finde die APP Super somit kann ich meine Reklame direkt in den Container werfen u habe diesen l\xc3\xa4stigen M\xc3\xbcll nicht mehr . Alle Angebote in einer App einfach zu bedienen und sehr \xc3\xbcbersichtlich.\xe2\x9e\x81 Super App, aber nur fast perfekt - \xe2\x98\x85\xe2\x98\x85\xe2\x98\x85\xe2\x98\x85\xe2\x80\xa8by Warklan - Version 2.10 - 22 April 2011\xe2\x80\xa8Benutze mein Prospekt schon sehr lange auf\'m iPhone und jetzt seit einiger Zeit auch auf\'m iPad 2 und bin sehr zufrieden damit, jedoch gibt es auch zwei Punkte, die mich ziemlich nerven. Positiv: - Sehr umfangreiches Angebot an H\xc3\xa4ndlern, vorallem im Vergleich zu anderen Apps wie z.B. KaufDA Negativ: - Keine Favouriten, was aber nicht so schlimm w\xc3\xa4re, wenn man unter \'mein Ort\' sowas wie \'meine Region\' einstellen k\xc3\xb6nnte. \'Mein Ort\' mag in einer gr\xc3\xb6\xc3\x9feren Stadt ok sein, aber in einer kleineren Stadt oder auf dem Land schr\xc3\xa4nkt das die H\xc3\xa4ndler in den \'quasi Favouriten\' schon sehr ein. - KEIN QUERFORMAT - Bei einer iPad App mit Verwendung des Smart Cover f\xc3\xbcr das iPad 2 zur leichten Schr\xc3\xa4glage zum Lesen ist das schon sehr nervig! Fazit: F\xc3\xbcr mich leider nur vier \xee\x8c\xb5\xee\x8c\xb5\xee\x8c\xb5\xee\x8c\xb5, weil es zwei kleine, aber f\xc3\xbcr mich sehr nervige Kritikpunkte gibt.Recent changes:-Verbessertes Bl\xc3\xa4ttern-Neue Kontoverwaltung: Synchronisiere Favoriten auf allen Ger\xc3\xa4ten-Neue Angebote-\xc3\x9cbersicht: Online-Shops & station\xc3\xa4re H\xc3\xa4ndler-Neuer Warenkorb:Speichere Deine Lieblingsartikel auf dem Smartphone und setze Deinen Einkauf am Computer fort.-Berechtigung "Netzwerkkonnektivit\xc3\xa4t \xc3\xa4ndern": Wir \xc3\xa4ndern nichts, aber beheben den Fehler, dass trotz funktionierender Verbindung manchmal eine Fehlermeldung gezeigt wurde (requestRouteToHost http://goo.gl/bkLsJ)-5.5.3 kleinere Bugfixes'
p4
tp5
tp6
.