((S'Title'
p0
S'Alg\xc3\x83\xc2\xa9rie t\xc3\x83\xc2\xa9l\xc3\x83\xc2\xa9vision en direct '
p1
tp2
(S'Description:'
p3
S"Alg\xc3\xa9rie t\xc3\xa9l\xc3\xa9vision en direct.Les cha\xc3\xaenes nationales TV du Alg\xc3\xa9rie. Cette application contient un grand nombre de cha\xc3\xaenes nationales et r\xc3\xa9gionales tv.Vous pouvez regarder la TV en utilisant cette application gratuite.Cette application utilise la connexion Internet.Sports, jeux, \xc3\xa9conomie tous les programmes TV sont maintenant disponibles pour vous.Certaines des \xc3\xa9missions de t\xc3\xa9l\xc3\xa9vision peuvent \xc3\xaatre indisponibles en raison de probl\xc3\xa8mes de r\xc3\xa9seau.S'il vous pla\xc3\xaet \xc3\xaatre patient. S'il vous pla\xc3\xaet nous soutenir. Nous nous effor\xc3\xa7ons de faire une meilleure application.Cette application est beta.Cette application est un service de la culture libre. Les personnes vivant au Alg\xc3\xa9rie peuvent utiliser cette application. Aussi, les personnes vivant \xc3\xa0 l'ext\xc3\xa9rieur Alg\xc3\xa9rie Alg\xc3\xa9rie regardent \xc3\xa9galement avec cette application."
p4
tp5
tp6
.