((S'Title'
p0
S'AliExpress HD '
p1
tp2
(S'Description:'
p3
S"Note: This version (AliExpress HD) is for phones and tablets with Android 4.0 or above installed. The AliExpress HD Android App allows you to access China\xe2\x80\x99s leading online wholesale marketplace wherever you are. Search products, find promotions, contact suppliers and check your orders all from the palm of your hand! The app is designed based on the UI guideline for Android 4.0+ (Ice Cream Sandwich or above), and works for phones or tablets with Android 4.0+ OS. Key features:\xe2\x80\xa2         Search products, browse product information,  read product and seller reviews, add products to wish list, and buy with just a few taps\xe2\x80\xa2         Pay for items securely with encrypted credit card payment\xe2\x80\xa2         Check and respond to sellers\xe2\x80\x99 messages wherever you are\xe2\x80\xa2         Track package shipments to find out where your item is (available on selected shipping methods)\xe2\x80\xa2         Stay up to date with promotions and deals. Overview of AliExpress.com:AliExpress brings you quality products at wholesale prices on even the smallest orders. AliExpress is a part of Alibaba.com and offers minimum orders as low as 1 item, secured payment and buyer protection. AliExpress has over 30 million product listings from more than 44 different categories, including the following: Apparel & Accessories, Automobiles & Motorcycles, Cell Phones, Computer Hardware & Software, Electronics, Health & Beauty, Lights & Lighting, Luggage, Bags & Cases, Security & Protection, Shoes & Accessories, Toys & Hobbies, Watches & Jewelry and Wedding Supplies.----------------------Wholesale, Dropship, Promotion, Wholesalers, Aliexpress, China Products, China Wholesalers, HD, AliExpress for tablets, Online Shopping, Online marketingRecent changes:What's new in 1.5.2 (April 16, 2013):1. Add two important search filters:     1) 1 piece only: allow users to narrow down the search result to items that have minimum order quantity of    1 piece;     2\xef\xbc\x89 sale items: allow users to get to items that offer a price discount or other promotional offers;2. Minor bug fixes"
p4
tp5
tp6
.