((S'Title'
p0
S'ALL CURRENCY CONVERTER '
p1
tp2
(S'Description:'
p3
S"ALL Currency Converter151 of currency exchange rates and the exchange rate lookup and calculation comparison list \\ n\xe2\x97\x8f Currency Converter\tAED - UAE DIRHAM\tAFA - AFGHANISTAN AFGHANI\tALL - ALBANIAN LEK\tANG - NETH ANTILLES GUILDER\tARS - ARGENTINE PESO\tAUD - AUSTRALIAN DOLLAR\tAWG - ARUBA FLORIN\tBBD - BARBADOS DOLLAR\tBDT - BANGLADESH TAKA\tBHD - BAHRAINI DINAR\tBIF - BURUNDI FRANC\tBMD - BERMUDA DOLLAR\tBND - BRUNEI DOLLAR\tBOB - BOLIVIAN BOLIVIANO\tBRL - BRAZILIAN REAL\tBSD - BAHAMIAN DOLLAR\tBTN - BHUTAN NGULTRUM\tBWP - BOTSWANA PULA\tBZD - BELIZE DOLLAR\tCAD - CANADIAN DOLLAR\tCHF - SWISS FRANC\tCLP - CHILEAN PESO\tCNY - CHINESE YUAN\tCOP - COLOMBIAN PESO\tCRC - COSTA RICA COLON\tCUP - CUBAN PESO\tCVE - CAPE VERDE ESCUDO\tCYP - CYPRUS POUND\tCZK - CZECH KORUNA\tDJF - DIJIBOUTI FRANC\tDKK - DANISH KRONE\tDOP - DOMINICAN PESO\tDZD - ALGERIAN DINAR\tEEK - ESTONIAN KROON\tEGP - EGYPTIAN POUND\tETB - ETHIOPIAN BIRR\tEUR - EURO\tFKP - FALKLAND ISLANDS POUND\tGBP - BRITISH POUND\tGHC - GHANIAN CEDI\tGIP - GIBRALTAR POUND\tGMD - GAMBIAN DALASI\tGNF - GUINEA FRANC\tGTQ - GUATEMALA QUETZAL\tGYD - GUYANA DOLLAR\tHKD - HONG KONG DOLLAR\tHNL - HONDURAS LEMPIRA\tHRK - CROATIAN KUNA\tHTG - HAITI GOURDE\tHUF - HUNGARIAN FORINT\tIDR - INDONESIAN RUPIAH\tILS - ISRAELI SHEKEL\tINR - INDIAN RUPEE\tIQD - IRAQI DINAR\tISK - ICELAND KRONA\tJMD - JAMAICAN DOLLAR\tJOD - JORDANIAN DINAR\tJPY - JAPANESE YEN\tKES - KENYAN SHILLING\tKHR - CAMBODIA RIEL\tKMF - COMOROS FRANC\tKPW - NORTH KOREAN WON\tKRW - KOREAN WON\tKWD - KUWAITI DINAR\tKYD - CAYMAN ISLANDS DOLLAR\tKZT - KAZAKHSTAN TENGE\tLAK - LAO KIP\tLBP - LEBANESE POUND\tLKR - SRI LANKA RUPEE\tLRD - LIBERIAN DOLLAR\tLSL - LESOTHO LOTI\tLTL - LITHUANIAN LITA\tLVL - LATVIAN LAT\tLYD - LIBYAN DINAR\tMAD - MOROCCAN DIRHAM\tMDL - MOLDOVAN LEU\tMGF - MALAGASY FRANC\tMKD - MACEDONIAN DENAR\tMMK - MYANMAR KYAT\tMNT - MONGOLIAN TUGRIK\tMOP - MACAU PATACA\tMRO - MAURITANIA OUGULYA\tMTL - MALTESE LIRA\tMUR - MAURITIUS RUPEE\tMVR - MALDIVES RUFIYAA\tMWK - MALAWI KWACHA\tMXN - MEXICAN PESO\tMYR - MALAYSIAN RINGGIT\tMZM - MOZAMBIQUE METICAL\tNAD - NAMIBIAN DOLLAR\tNGN - NIGERIAN NAIRA\tNIO - NICARAGUA CORDOBA\tNOK - NORWEGIAN KRONE\tNPR - NEPALESE RUPEE\tNZD - NEW ZEALAND DOLLAR\tOMR - OMANI RIAL\tPAB - PANAMA BALBOA\tPEN - PERUVIAN NUEVO SOL\tPGK - PAPUA NEW GUINEA KINA\tPHP - PHILIPPINE PESO\tPKR - PAKISTANI RUPEE\tPLN - POLISH ZLOTY\tPYG - PARAGUAYAN GUARANI\tQAR - QATAR RIAL\tROL - ROMANIAN LEU\tRUB - RUSSIAN ROUBLE\tSAR - SAUDI ARABIAN RIYAL\tSBD - SOLOMON ISLANDS DOLLAR\tSCR - SEYCHELLES RUPEE\tSDD - SUDANESE DINAR\tSEK - SWEDISH KRONA\tSGD - SINGAPORE DOLLAR\tSHP - ST HELENA POUND\tSIT - SLOVENIAN TOLAR\tSKK - SLOVAK KORUNA\tSLL - SIERRA LEONE LEONE\tSOS - SOMALI SHILLING\tSRG - SURINAM GUILDER\tSTD - SAO TOME DOBRA\tSVC - EL SALVADOR COLON\tSYP - SYRIAN POUND\tSZL - SWAZILAND LILAGENI\tTHB - THAI BAHT\tTND - TUNISIAN DINAR\tTOP - TONGA PA\\'ANGA\tTRL - TURKISH LIRA\tTRY - TURKEY LIRA\tTTD - TRINIDAD TOBAGO DOLLAR\tTWD - TAIWAN DOLLAR\tTZS - TANZANIAN SHILLING\tUAH - UKRAINE HRYVNIA\tUGX - UGANDAN SHILLING\tUSD - U.S. DOLLAR\tUYU - URUGUAYAN NEW PESO\tVEB - VENEZUELAN BOLIVAR\tVND - VIETNAM DONG\tVUV - VANUATU VATU\tWST - SAMOA TALA\tXAF - CFA FRANC (BEAC)\tXAG - SILVER OUNCES\tXAU - GOLD OUNCES\tXCD - EAST CARIBBEAN DOLLAR\tXOF - CFA FRANC (BCEAO)\tXPD - PALLADIUM OUNCES\tXPF - PACIFIC FRANC\tXPT - PLATINUM OUNCES\tYER - YEMEN RIYAL\tYUM - YUGOSLAV DINAR\tZAR - SOUTH AFRICAN RAND\tZMK - ZAMBIAN KWACHA\tZWD - ZIMBABWE DOLLAR- Real-time update rate\xe2\x97\x8f Currency ListCurrency List\xe2\x97\x8f Settings   - Currency Converter Overview  Currency Converter provides introductions and a brief guide  - Currency Converter Settings   set the status bar   set the background theme   Options"
p4
tp5
tp6
.