((S'Title'
p0
S'Android Updates, News & Apps '
p1
tp2
(S'Description:'
p3
S'\xe2\x98\x85\xe2\x98\x85\xe2\x98\x85\xe2\x98\x85\xe2\x98\x85Drippler is "A must-have for Android owners" (TheNextWeb)Make your Android even more awesome! Download Drippler to get the latest Android updates, Android news and new Android apps, specific to your Android phone or tablet. Join millions of users getting the latest:\xe2\x9c\x93 Software updates \xe2\x9c\x93 New Android apps & games\xe2\x9c\x93 Android news\xe2\x9c\x93 Android tips & tricks\xe2\x9c\x93 Android accessories\xe2\x9c\x93 Android wallpapers\xe2\x9c\x93 Android themes \xe2\x9c\x93 Android widgets\xe2\x9c\x93 Android tools\xe2\x9c\x93 Android manuals and guides \xe2\x9c\x93 Android secrets\xe2\x9c\x93 Firmware updates\xe2\x98\x85 Media Coverage\xe2\x9c\x93 "Drippler just became a new must install app" - GigaOm\xe2\x9c\x93 "A must-have for Android owners" - TheNextWeb\xe2\x9c\x93 "Drippler offers news on Android updates and useful apps" - The New York Times\xe2\x9c\x93 "This is a big deal... people don\'t know all this!" - TechCrunch\xe2\x9c\x93 Featured by Samsung, Verizon and AT&T\xe2\x98\x85 User Reviews\xe2\x9c\x93 "I knew about Android Jelly Bean Update before everyone thanks to Drippler!"\xe2\x9c\x93 "Drippler Does It All! One of only a handful of new Android apps that provide you with truly useful Android info that is first previewed for your quick reading and which you can explore further by opening the feature. Great stuff!\xe2\x9c\x93 "Love this app! New phone? No problem! Drippler keeps you informed about android apps, updates, tips and cool features your phone can do that you may not know about. I have Drippler on both my Android tablet and Android phone"\xe2\x98\x85 Drippler\'s Leading Sources: \xe2\x9c\x93 OEMs: Samsung, Motorola, HTC, LG, Nexus, Sony \xe2\x9c\x93 Carriers: AT&T, Verizon, Sprint, T-Mobile, TracFone, MetroPCS \xe2\x9c\x93 News Sites: Engadget, Gizmodo, MakeUseOf, TechCrunch, TheNextWeb, TechRadar, LifeHacker, Wired\xe2\x9c\x93 Android blogs: Android Police, AndroidZoom, Android Central, AndroidPit, eHow, Slashgear, Android and Me, The Verge\xe2\x98\x85 Drippler supports the following Android Software versions:Android 2.1 and up - Android Froyo (Android 2.2), Android Gingerbread (Android 2.3 update), Android Honeycomb (Android 3.0 - Android 3.2), Android Ice Cream Sandwich Update (ICS) Update (Android update 4.0) and Android Jelly Bean Update (Android 4.1 and 4.2 updates)\xe2\x98\x85 Tested on: Samsung Galaxy S2, Samsung Galaxy S3, Samsung Galaxy S4, Samsung Galaxy Note, Samsung Galaxy Note 2, Google Nexus 7, Google Nexus 10, Google Nexus 5, HTC One X, HTC Evo 3D, Keywords: Dripler, Dripper, Upgrade Android JellyBean, Update Android Wallpapers, Firmware Updates for android Widgets, Android Upgrade Version, Upgrade My Android, Update Android Version Firmware, Samsung Updates, Update Software, Upgrade For Android Tablet Apps, Software Upgrade Games, New Android Apps, Andriod Themes, Upgrade Android FirmwareRecent changes:1.82.7* No confirmation on exit* Bug fixes1.82.5*Bug fixes1.82.3* Featured apps tab* Bug fixes1.82.2* Navigation buttons in drips* Bug fixes1.82.0* Notification bug fix1.81.9 * Navigation buttons in drips* Bug fixes1.81.6* Show/hide game drips (under settings menu)* Quick download button for app and game drips* Facebook sharing button bug fix* Bug fixes1.80.5* Bug fixes1.80.4* Improved notification design* Smoother scrolling and swiping'
p4
tp5
tp6
.