((S'Title'
p0
S'Android Weather & Clock Widget '
p1
tp2
(S'Description:'
p3
S'Android Weather, the quick and accurate weather app, provides detailed weather for all cities worldwide, it searches your address and locates cities quickly, and provides the current temperature, current weather condition, humidity and wind speed and direction, in addition, five, ten days and hourly weather forecast. Android Weather, is 100% free, and it comes with many cool widgets, portrait and landscape user interface.Android Weather comes with different widget sizes, 2x1, 4x1 and 4x2 for normal screens, and 5x1 and 5x2 for large screens like Galaxy Note and tablets.Android Weather supports a wide range of Android phones; it supports Android Version 2.2 and higher.Features:- Provides current weather condition and five days weather forecast- 10-Day and Hourly Weather- Sunrise and Sunset time- Temperature in status bar- Share weather and location information with friends.- Home screen widgets, 5x2, 5x1 for large screen only and 4x2, 4x1 and 2x1 for all screens.- Searches for all cities in the world by country and city or zip code- Ability to set your internet source to Wi-Fi only- Ability to disable internet access from operators while you are in roaming- Ability to set your preferred temperature unit, Celsius or Fahrenheit- Automatic update intervals are: 15 min, 30 min, 1, 3, 6, 9, 12 hours and Manual update.- Auto location detection- Up to 10 different locations- Weather map with ability to add any city to your city list- Notification alerts (with option disable it)- Localized to English, Dansk, Deutsch, \xce\x95\xce\xbb\xce\xbb\xce\xb7\xce\xbd\xce\xb9\xce\xba\xce\xac, \xd0\x91\xd1\x8a\xd0\xbb\xd0\xb3\xd0\xb0\xd1\x80\xd1\x81\xd0\xba\xd0\xb8, Suomi, Nederlands, Sloven\xc4\x8dina, Sloven\xc5\xa1\xc4\x8dina, Rom\xc3\xa2n\xc4\x83, \xd8\xa7\xd9\x84\xd8\xb9\xd8\xb1\xd8\xa8\xd9\x8a\xd8\xa9, Fran\xc3\xa7ais, Hrvatski, T\xc3\xbcrk\xc3\xa7e, \xc4\x8ce\xc5\xa1tina, Espa\xc3\xb1ol, Italiano, Portugu\xc3\xaas, Magyar, P\xd1\x83\xd1\x81\xd1\x81\xd0\xba\xd0\xb8\xd0\xb9, Polski, Portugu\xc3\xaas(Brasil), Lietuvi\xc5\xb3 kalba and \xe4\xb8\xad\xe6\x96\x87.Recent changes:- Note:* If the widgets are not listed, check if the app is installed on SD card, move it to phone, if not, just reboot.* According to feedbacks, there is a known issue\xc2\xa0 with Jelly Bean Network location service, it needs a reboot every few days. App Permissions:- location permission to detect your location.- Network access for Internet access .- Storage to save screen shot in order to share it.- Hardware Controls to allow vibration with Alerts'
p4
tp5
tp6
.