((S'Title'
p0
S'Android Forums '
p1
tp2
(S'Description:'
p3
S"Android Forums is brought to you by AndroidForums.com and Phandroid, the first, largest, and most trusted source for everything Android related including news, reviews, discussion, tips, tricks, tutorials, rumors, support, trouble shooting and much more!Whether you're looking to get some help with your Android Phone or Android Tablet, or want to be on the cutting edge of what's cool in the Android World, Android Forums is sure to have what you're looking for.Join our community of Android lovers who will make sure we're all getting the most out of our Android devices!Recent changes:Initial release."
p4
tp5
tp6
.