((S'Title'
p0
S'android-vnc-viewer '
p1
tp2
(S'Description:'
p3
S"See and control your computer's desktop from your phone, from anywhere.androidVNC is the Open Source (GPL) remote desktop program for Android devices.  Connects to most VNC servers: incl TightVNC, RealVNC on Win and Linux, x11vnc, and Apple Remote Desktop on OS/X.0.5.0 -- Will preserve sent text from session to session (optionally; there is a new button to send text without remembering it); Import/Export settings to a file on SD card (Can import from URL; useful when deploying to many devices with same configuration); add button in zoom control to bring up keyboard; Hungarian translation; no longer prefers to install to SD card because that was causing problems"
p4
tp5
tp6
.