((S'Title'
p0
S'Android File Manager '
p1
tp2
(S'Description:'
p3
S'Android File Manager application is the Android Explorer.   Multi-select feature has been improved.  \xe2\x97\x8f Explorer (File Manager)  - Introducing the top menu \xe2\x96\xb7 HOME Go to the top of the Root Path of smart devices.  \xe2\x96\xb7SDCARD  Go to the top path of external storage space on the SD card.  \xe2\x96\xb7 Up  Move to the top of the folder.  \xe2\x96\xb7 BACK  Move to the previous folder. (The same equipment and features of the Back button)  \xe2\x96\xb7 GALLERY  Go to the location, cameras and video files are saved .  \xe2\x96\xb7 DOWNLOAD  Go to the location, downloaded files are stored on the Internet  \xe2\x96\xb7 REFRESH  Refresh the page.  \xe2\x96\xb7 RESET SEARCHSearch mode when the button is activated. Button is pressed, the search is initiated. - Introducing the top multi menu\xe2\x96\xb7 Copy\xe2\x96\xb7 Move\xe2\x96\xb7 Delete\xe2\x96\xb7 Compress\xe2\x96\xb7 Select all\xe2\x96\xb7 Unselect all\xe2\x96\xb7 Paste\xe2\x96\xb7 Exit multi menu- Introducing the bottom menu  \xe2\x96\xb7 ADD FOLDER  Create a new folder in the path.  \xe2\x96\xb7 SEARCH  search queries entered in the appropriate folder, and proceed.  \xe2\x96\xb7 Quick Links\xe2\x96\xb7 SYSTEM INFORMATION  Move to the System Information page.  \xe2\x96\xb7 SETTINGS  introduction, app settings, go to System Settings page.  \xe2\x96\xb7 Run Camera\xe2\x96\xb7 Run Gallery\xe2\x96\xb7 Run Music player\xe2\x96\xb7TASK MANAGER  Run Android Task Manager or Go to market.  \xe2\x96\xb7 APP MANAGER  Run Android App Manager or Go to market.  \xe2\x96\xb7 NOTEPAD  Run NOTEPAD or Go to market.   \xe2\x97\x8f Real-time Process- Real-time memory, CPU information- Task execution capabilities- End Task function\xe2\x97\x8f System Information (System info)   - Battery information (battery temperature - Celsius, Fahrenheit)   battery life history information   battery usage information  - Ram Information (Total, Used, Available)  - Internal storage space information (Total, Used, Available)  - External storage space information - SD Card (Total, Used, Available)  - CPU status information  - System / platform information  \xe2\x97\x8f Settings   - Android File Manager Overview  Android File Manager provides introductions and a brief guide  - Android File Manager Settings   set the status bar   set the background theme   Option   Services shortcut links  - Frequently used part of the instrument settings   volume control   the screen brightness   wireless network   set my location (network, GPS)   Bluetooth Settings   language set   the date and time    \xe2\x97\x8f Home screen widget - Widget Update Time Adjustable- Widget Theme(Yellow, Red, Black)- Internal Storage / External Storage Info(2\xc3\x971)- Battery status(1\xc3\x971)\xe2\x97\x8f Plug-in Text ViewerImage ViewerNOTICE \xe2\x98\x86  If you do not know about the Android file system, you do not move or delete files. Be especially careful to use application.Android platform 2.1(Eclair) supportAndroid platform 2.2(Froyo) supportAndroid platform 2.3(Gingerbread) supportAndroid platform 2.3.3 supportAndroid platform 3.0(Honeycomb) supportAndroid platform 3.1 supportAndroid platform 4.0(Icecream sandwich) supportAndroid platform 4.1(Jelly Bean) supportAndroid platform 4.2 supportRecent changes:Changed UI.Fixed a bug.'
p4
tp5
tp6
.