((S'Title'
p0
S'Android Forum '
p1
tp2
(S'Description:'
p3
S'Android.net is a worldwide Android Forum and News Site covering all Android Phones. Our new Android App allows you to browse thousands of Android discussions with ease over your phone.  If you have questions about your Android Device or just looking to talk with other Android Enthusiasts, then Android.net is the place to be. Enjoy free downloads for custom roms, custom themes, wallpapers, and more.To participate in discussions, you must register here: (FREE) http://www.android.net/forum/register.php'
p4
tp5
tp6
.