((S'Title'
p0
S'Animated Photo Frame Widget '
p1
tp2
(S'Description:'
p3
S'\xe2\x98\x85 The most gorgeous, the most powerful photo slideshow application.\xe2\x98\x85 The best Photo Widget with lots of elegant photo frames on Google Play.Animated Photo Frame Widget can help you to create your own unique photo widget.It differs from other photo widgets and offers up to 20 picture frames and 7 display modes during slideshow process.It can enhance the diversity of your desktop and make your album choosing more conveniently by its\' photo selector.\xe3\x80\x8aMain Features of Animated Photo Frame Widget\xe3\x80\x8b\xe2\x97\x86 \xe3\x80\x8cSmooth in passing to next slide with wonderful transition effects\xe3\x80\x8d : 7 options availableNo Animation, Fade in/out, slide, scale, rotate, page down, page turning\xe2\x97\x86 \xe3\x80\x8cZooms in and out without damaging the image quality\xe3\x80\x8d: Any size can be supported by Animated Photo Frame Widget.Free adjustment and place of your frame Personalization (2*2 minimum , no restriction on maximum )\xe2\x97\x86 \xe3\x80\x8cQuick speed on selecting the whole album or photos\xe3\x80\x8d : No need to assign specific path/route or to select photos by other tools.Built-in album selector can list all of your photos in an easy way.\xe2\x97\x86 \xe3\x80\x8cConsiderate power-saving design\xe3\x80\x8d : It would automatically stop updating when you close the screen without consuming the electricity of device.It will automatically launch update function when you open the screen.After comparison test of all photo widgets on Google Play.Animated Photo Frame Widget is the most energy-efficient photo widget.So don\'t worry about it.\xe2\x97\x86 \xe3\x80\x8cConsole panel\xe3\x80\x8d :Easily stop the auto-play function anytime and skim photos manually by widget.\xe2\x97\x86 \xe3\x80\x8cRandom play / Shuffle\xe3\x80\x8d :  You can play any album in shuffle or directly play all photos saved in the device.\xe2\x97\x86 \xe3\x80\x8cIndependent Widget\xe3\x80\x8d :You can place some widgets on the desktop. Each of them works independently.If you want to support us, You can choose Animated Photo Frame Widget + with more features.\xe2\x80\xbb Paid version features\xe2\x97\x8f Slideshow interval can be choosed\xe2\x97\x8f One click shuffle all your photos\xe2\x97\x8f 4 in 1 photo frame widget\xe2\x97\x8f Future update functions and more than 30 kinds of different design photo frame.\xe2\x97\x8f New rich design sense of the time panel\xe2\x97\x8f Simultaneously select multiple albums playbackLink : http://goo.gl/rpS8T\xe3\x80\x90Attentions\xe3\x80\x91After install app, you must start with few steps.(It doesn\xe2\x80\x99t exist in app list.)Home -> Apps -> Widget -> Animated Photo Frame Widget -> Drag it to homeOrLong click home -> Widget -> Animated Photo Frame Widget -> Drag it to home\xe3\x80\x90Technical info\xe3\x80\x91We recommend installing Android OS 3.0 or higher.In order to the simple operation, not included in the photo cropping function.It already contains picture zoom adjustment function.Try to adjust the picture frame size.Thanks for reading and we hope you enjoy Your Animated Photo Frame Widget.If you have any problems, please contact uscorphikaru@gmail.comIf you like this widget, please give 5 stars.Your support is my greatest motivation. \xe3\x80\x8aKeywords\xe3\x80\x8bdiversity, console, shuffle, transition, animation, frame, animated, selector, independent widgetRecent changes:If you can not find this app in the widget list after installation, plz "reboot" or "restart your launcher".After install app, you must start with few steps.Home -> Apps -> Widget -> Animated Photo Frame WidgetOrLong click home -> Widget -> Animated Photo Frame Widget\xe2\x97\x8f Long Click widget can adjust widget to any sizes.V 3.3 :1. The new \xe3\x80\x90page turning\xe3\x80\x91 animation.V 3.2 :1. Improve widget performance.'
p4
tp5
tp6
.