((S'Title'
p0
S'Anime beauty '
p1
tp2
(S'Description:'
p3
S'1 anime album, this is the animation beautiful picture, high-definition, you sure like cartoon characters!Recent changes:Speed \xe2\x80\x8b\xe2\x80\x8bup the application to open the speed!'
p4
tp5
tp6
.