((S'Title'
p0
S'Antivirus Security - FREE '
p1
tp2
(S'Description:'
p3
S"Free, top-rated, real-time antivirus and anti-theft protection for Android\xe2\x84\xa2 devices.AVG AntiVirus FREE for Android\xe2\x84\xa2 protects you from harmful viruses, malware, spyware and text messages and helps keep your personal data safe.Download Free Now!Over 70,000,000 people already installed AVG\xe2\x80\x99s AntiVirus mobile security apps.  Join them now and:\xe2\x96\xba Scan apps, settings, files, and media in real time\xe2\x96\xba Enable finding/locating your lost or stolen phone via Google Maps\xe2\x84\xa2\xe2\x96\xba Lock/wipe your device to protect your privacy\xe2\x96\xba Kill tasks that slow your device \xe2\x96\xba Browse the Web safely and securely\xe2\x96\xba Monitor battery, storage and data package usageAVG Antivirus FREE \xe2\x80\x93 mobile security software for Android. Quick & easy protection for your device!With the AVG Android app you\xe2\x80\x99ll receive effective, easy-to-use virus and malware protection, as well as a real-time app scanner, phone locator, task killer, app locker, and local device wipe to help shield you from threats to your privacy and online identity.Real-time security scanner protection keeps you protected from downloaded apps and games.AVG Anti-Virus FREE also:\xe2\x96\xba Defends against malicious apps, viruses, malware and spyware\xe2\x96\xba Identifies unsecure device settings and advises how to fix them\xe2\x96\xba Helps ensure contacts, bookmarks and text messages are safe\xe2\x96\xba Checks media files for malicious software and security threats\xe2\x96\xba Guards you from phishing attacks\xe2\x96\xba Can be scheduled to run daily, weekly, or on demandApp Features:Anti-theft & Phone Location:\xe2\x96\xba Locate your lost or stolen device and get help finding it via Google Maps\xe2\x84\xa2\xe2\x96\xba Lock your device remotely via our Anti-theft service or by sending it a text message\xe2\x96\xba Set a lock screen message to help the locator find you\xe2\x96\xba Make your device ring even if it is on silent modeSafe Web Surfing: * Applicable to Android's default browser\xe2\x96\xba Search, shop and use social networks with peace of mind knowing your identity and personal data are protected from phishing and malware\xe2\x96\xba Scan websites for harmful threats. If a suspicious URL is detected, you will be redirected to a \xe2\x80\x9cSafe Page\xe2\x80\x9dPerformance: Monitor Battery, Storage and Mobile Data Package to Optimize Device Performance: \xe2\x96\xba Get notified when your battery is below the level you indicated and turn-off functions not in use in order to save power\xe2\x96\xba Storage optimization monitors internal and SD card usage and helps optimize storage space\xe2\x96\xba Move apps or games between the SD Card and internal \xe2\x96\xba Traffic monitor - keep track of your 3G /4G data plan usage by getting notifications when you are near to reaching your monthly data plan limitTask killer:\xe2\x96\xba Kill tasks that slow down or freeze up your deviceLocal wipe:\xe2\x96\xba Ability to completely wipe contacts, text messages, photos, browser history, calendar, format SD card, and restore mobile device to factory settings \xe2\x96\xba Manually select specific data and information from your device that you want deleted, such as synced email accounts, browser history and bookmarks using the Local Wipe advanced featureCall and Message Blocker:\xe2\x96\xba Protect yourself against spammers, hackers and scammers. Get warned about suspicious text messages, filter and block unwanted calls and messages.App locker [14 day trial]:\xe2\x96\xba Lock apps to protect your privacy and safety or lock your device settings to secure its configurationApp Backup [14 day trial]:\xe2\x96\xba Backup apps from your device to your SD card so you can restore them whenever necessaryAntivirus Free is available in:EN, DE, ES, FR, JA, KO, ZH (simplified & traditional), PT, RU, AR, IT, PL, CS, NL, HI and HE.For the latest mobile security updates:Join our Google+ community: http://bit.ly/AVG_GooglePlusJoin our Facebook community: http://bit.ly/AVG_facebookFollow us on Twitter: http://bit.ly/AVG_TwitterGoogle\xc2\xae is a trademark of Google, Inc., registered in the USA and in other countries. Google Maps\xe2\x84\xa2 and Android\xe2\x84\xa2 are trademarks of Google Inc.Recent changes:\xe2\x96\xa0 Bug fixes\xe2\x96\xa0 Please note that we now request additional permissions because we\xe2\x80\x99ve just improved our Anti-Theft remote location feature.\xe2\x96\xa0 Task Killer now displays tasks rather than processes."
p4
tp5
tp6
.