((S'Title'
p0
S'AnyConnect ICS+ '
p1
tp2
(S'Description:'
p3
S'This package supports Android 4.X (ARM and Intel Android), but due to limitations with the Android VPN Framework, some AnyConnect features are not available. Use "Rooted AnyConnect" on a rooted device.COMPATIBLE DEVICES:Android 4.X, with the following exceptions:- ASUS Transformer TF-201 < 4.0.3- Archos G9 < 4.0.5- Sony ALL-tun missingKNOWN ISSUES:- When reconnecting, an unwanted noise or vibration occurs. This was addressed by Google in Android 4.0.3+- The AnyConnect icon in the notification tray is unusually large. This is a limitation with the VPN Framework.- Some freezes are known to occur on the Diagnostics screen.- If root is available, deny the \'su\' requests for standard features.LIMITATIONS:The following features are not supported using this package:- Filter Support- Trusted Network Detection- Split Exclude- Local LAN Exception- Secure Gateway Web Portal (inaccessible when tunneled)APPLICATION DESCRIPTION:AnyConnect provides reliable and easy-to-deploy encrypted network connectivity from devices by delivering persistent corporate access for users on the go. Whether providing access to business email, a virtual desktop session, or most other Android applications, AnyConnect enables business-critical application connectivity.LICENSING AND INFRASTRUCTURE REQUIREMENTS:AnyConnect for Android requires Cisco Adaptive Security Appliance (ASA) Boot image 8.0(4) or later. For licensing questions and evaluation licenses, please contact ac-mobile-license-request (AT) cisco.com and include a copy of "show version" from your Cisco ASA. If you already have an Essentials or Premium ASA license, you may use the automated license request tool at:https://tools.cisco.com/SWIFT/Licensing/PrivateRegistrationServlet?FormId=717The ASA requires an AnyConnect Mobile license (L-ASA-AC-M-55XX=), as well as either an AnyConnect Essentials (L-ASA-AC-E-55XX=) or AnyConnect Premium Clientless SSL VPN Edition (L-ASA-AC-SSL-YYYY=) license, where XX is the last two digits of your ASA model number and YYYY is the number of simultaneous users. AnyConnect Mobile and Essentials licenses are enabled per ASA, there is no per user charge for either of these licenses.FEATURES:- Automatically adapts its VPN tunneling to the most efficient method based on network constraints, using TLS and DTLS- DTLS provides an optimized network connection- IPsec/IKEv2 also available- Network roaming capability allows connectivity to resume seamlessly after IP address change, loss of connectivity, or device standby- Wide range of authentication options- Supports certificate deployment using AnyConnect integrated SCEP and the certificate import URI handler- Policies can be configured locally, and automatically updated from the security gateway- Access to internal IPv4/IPv6 network resources- Administratively controlled tunnel policy- Localizes according to the device\'s language and region settingsSUPPORT:If you are an end-user and have any issues or concerns, please contact your organization\xe2\x80\x99s support department. If you are a System Administrator having difficulties configuring or utilizing the Application, please contact your designated support point of contact.FEEDBACK:You can provide us with feedback by sending us a log bundle by navigating to "Menu > Diagnostics > Send Logs" and choose "Feedback to Cisco" with a description of the issue. Please read the Known Issues section prior to sending feedback.You can reach us on Twitter by directing a tweet to @AnyConnect, or by visiting our Facebook page at http://www.facebook.com/anyconnect.DOCUMENTATION:Release Notes: http://www.cisco.com/en/US/docs/security/vpn_client/anyconnect/anyconnect30/release/notes/rn-ac3.0-android.htmlUser Guide: http://www.cisco.com/en/US/docs/security/vpn_client/anyconnect/anyconnect30/user/xmart/b_Android_User_Guide.htmlRecent changes:AnyConnect 3.0.09129 & 3.0.09093 resolve reported defects.AnyConnect 3.0.09073 contains the following new features:- Intel Android (IA) support- IPsec/IKEv2- Suite B (Next Generation Encryption)- FIPS 140-2 compliant mode- SCEP Proxy- Block access to untrusted server certificates by default- Enhanced URI handling- UI Improvements- Ability to manage server certificatesPlease see the release notes for more details, including a list of resolved defects.'
p4
tp5
tp6
.