((S'Title'
p0
S'Any.DO To-do List & Task List '
p1
tp2
(S'Description:'
p3
S"Millions use Any.DO every day to remember all the tasks they want to-do and make sure they get them done. Key benefits: Seamless cloud sync, Speech recognition, Alerts, Any.DO Moment, Snooze tasks, Google Task Sync, Notes, Sub tasks, Amazing Widgets, Repeating / Recurring Tasks, Missed call, Auto complete, In app actions, Gesture support & much more! \xe2\x98\x9e Get the most out of Any.DO:\xe2\x96\xa0 Beautiful & Functional - Any.DO is beautifully designed, simple to use and user friendly.\xe2\x96\xa0 Always there when you need it - Any.DO syncs seamlessly with the cloud so you can stay on top of just about anything across all your devices.\xe2\x96\xa0 Any.DO puts the power in your hands - Drag & drop to plan your agenda, swipe off a task to mark it as complete & shake your android to clear your completed tasks. It just feels right.\xe2\x96\xa0 Speak your mind - Instead of typing just tap the microphone icon and say what you want to do. Any.DO will automatically convert your words into text in almost any language.\xe2\x96\xa0 Type less, DO more - Mobile typing can be a hassle; Any.DO\xe2\x80\x99s auto-suggest predicts what you want to do as you type it.\xe2\x96\xa0 Any.DO works for you - Simply add a time based reminder for the things you want to do and Any.DO will remind you just at the right time. You can even try some repeat options.\xe2\x96\xa0 Better together - Share lists with your friends, family, and colleagues to accomplish even more. Here are some ideas: A shared grocery list with your spouse, plan an event with your friends or just make sure you\xe2\x80\x99re on top of an office project.\xe2\x96\xa0 Any. DO is available in different languages: English, French, German, Italian, Japanese, Korean, Dutch, Swedish, Spanish, German, Portuguese, Chinese (simplified & traditional), Russian, Arabic & Hebrew.\xe2\x98\x9e What makes our app so hot:\xe2\x9c\x94 Just like real life - Swipe a task with your finger to mark it as complete.\xe2\x9c\x94 Shake it away - Shake your device to remove all completed tasks.\xe2\x9c\x94 Powerful widgets - Add a widget to your home screen to see all the things you need to do - just when you need them.\xe2\x9c\x94 Don't miss another call - Turn missed calls into reminders.\xe2\x9c\x94 Take actions - With Any.DO you can easily make calls, text, emails and even schedule meetings from within the app\xe2\x9c\x94 Make it personal - Choose your favorite app theme (white or black).\xe2\x9c\x94 Do it your own way - You can easily customize your folders, so you can organize your tasks to best suit your needs (for example: Work, Home, Errands). Plus, you can have as many folders as you wish.\xe2\x9c\x94 Your tasks, Your choice - You can switch between Date view (Today, Tomorrow, Upcoming & Someday) and Folder view, it's up to you.\xe2\x99\xa5 Our Customers Say \xe2\x99\xa5\xe2\x80\x9cI want to say that I absolutely love this app and that's an understatement! I love the modern look, ease of use and how much it has helped me already. I just wanted to let you know how awesome this app is and that I have downloaded the Chrome extension as well. Thank you so much!\xe2\x80\x9d (Sarah L.)\xe2\x80\x9cWhat you've developed is awesome and fills a real need in the busy Professionals daily life. Thank you so much for your hard work and I'm so excited to start using any.do frequently. Keep up the awesome work!\xe2\x80\x9d (Max N.)\xe2\x80\x9cYou have tapped into the awesome.\xe2\x80\x9d (Erick T.)We \xe2\x99\xa5 to stay connected with our users! If you have any feedback, questions or concerns, please email us at: android@any.do or visit: www.any.do/faqFor news and updates you can follow us on Twitter and Facebook:http://twitter.com/any.dohttp://www.facebook.com/Any.DOHelp translate Any.DO to your language: Go to http://www.getlocalization.com/anydo to get started.NOTE: We are asking for permissions to access your personal information and read contacts. We ask this to enable you to collaborate with your friends. Read more about our permissions requirements on our FAQ page - http://www.any.do/faq and our privacy policy http://www.any.do/privacyRecent changes:v2.27:- Fixed many issues with the reminder dialog.- Fixed Any.DO Moment's tasks' description.- Added Hungarian and Turkish translations (Help translate Any.DO to your language: Go to http://www.getlocalization.com/anydo to get started).- Bug fixes.v2.26:- Get actual rewards for finishing your tasks (not yet supported for all countries)- Added Ukrainian language- Many bug fixes"
p4
tp5
tp6
.