((S'Title'
p0
S'AppleTV AirPlay Media Player '
p1
tp2
(S'Description:'
p3
S'Please start with updating your AppleTV to the latest iOS version!Just bought your AppleTV or already have one at home? Well, with this app you can unleash the power of your AppleTV with your Android phone. Just like folks with iPhones and iPads, now you can use the AirPlay functionality to beam content from your Android phone to an AppleTV!Simply download this FREE app and access additional content, currently not available on the AppleTV itself as you use your Android to control your AppleTV over Wi-Fi.Enjoy millions of videos, images, and songs anywhere and share them with your friends. Easily search and find interesting content from many sources, including your mobile device and home network, and watch it on an AppleTV or on your mobile device.With the AppleTV AirPlay Media Player, you can do the following:\xe2\x80\xa2 SEARCH - Easily search, find, and browse videos, photos, or music and watch on AppleTV directly from your Android phone.\xe2\x80\xa2 DISCOVER - Discover new and featured videos every day across a number of video topic channels for you to enjoy. Browse channels using easy-to-navigate video carousels.\xe2\x80\xa2 SEND TO TV - Stream music and videos directly to your AppleTV or mobile device. No installation needed (except this app).\xe2\x80\xa2 ACCESS MEDIA - Access your photo and social networking accounts to watch on AppleTV.\xe2\x80\xa2 MANAGE PLAYLISTS - Create and Manage playlists of music and enjoy on your mobile or AppleTV.FEATURES\xe2\x80\xa2 Video search\xe2\x80\xa2 Add to favorites\xe2\x80\xa2 View and manage history\xe2\x80\xa2 Watch on AppleTV\xe2\x80\xa2 Create and manage music playlists\xe2\x80\xa2 Sharing\xe2\x80\xa2 Continuous video and music play\xe2\x80\xa2 Upload videos and photos\xe2\x80\xa2 Access to your DLNA Home Media ServersBROWSE:\xe2\x80\xa2 Search and find your music, photos, and videos from multiple content sources including your Android device, your home network or the Internet.\xe2\x80\xa2 Share via e-mail, Twitter, and FacebookContent includes:\xe2\x80\xa2 Video Podcasts\xe2\x80\xa2 YouTube videos\xe2\x80\xa2 Your Music, photos, and videos from your Android device [Android Gallery]\xe2\x80\xa2 SHOUTcast Internet radio\xe2\x80\xa2 Facebook videos and photos from you and your friends\xe2\x80\xa2 Flickr photos\xe2\x80\xa2 Picasa (Web Album) photos\xe2\x80\xa2 Local Media Servers, any DLNA or UPnP AV Media Servers in your home networkNOW PLAYING:\xe2\x80\xa2 The \xe2\x80\x9cNow Playing\xe2\x80\x9d screen provides information about the content that you are watching on TV using the AppleTV.\xe2\x80\xa2 Music and Video player controls (i.e. previous, pause, play, next, and volume) appear, depending on the capabilities of your setup.MYZAPPOTV:\xe2\x80\xa2 Sign out of ZappoTV.\xe2\x80\xa2 Delete your viewing history.\xe2\x80\xa2 Send application logs to ZappoTV.DEVICES:\xe2\x80\xa2 Select the AppleTV you would like to use to access your TV. This is a great way for you to use multiple AppleTVs in your home.THINGS TO KNOW\xe2\x80\xa2 MyZappoTV > Favorites, lets you access and manage your viewing history.\xe2\x80\xa2 MyZappoTV > History makes it super easy to watch previous viewed photos or videos.REQUIREMENTS TO GET STARTED\xe2\x80\xa2 Android 2.1 and later versions.\xe2\x80\xa2 ZappoTV account is required.'
p4
tp5
tp6
.