((S'Title'
p0
S'Apps & Updates for Galaxy Note '
p1
tp2
(S'Description:'
p3
S'Drippler makes your Samsung Galaxy Note even more awesome! Get the latest rumors, software updates, usage tips, games, tech-support, accessories, Samsung Note apps and more.\xe2\x98\x85 FEATURES \xe2\x9c\x93 Latest updates - stay up-to-date \xe2\x9c\x93 Highlights - browse the most popular Galaxy Note updates\xe2\x9c\x93 Notifications - customize your Galaxy Note news\xe2\x9c\x93 Desktop widget - get the hottest new updates straight to your desktop\xe2\x98\x85 MEDIA "A must-have for Android owners" - TheNextWeb"Drippler offers news on Android updates and useful apps" - The New York Times"This is a big deal... people don\'t know all this" - TechCrunch"Drippler starts being helpful the moment it\'s installed" - CRN\xe2\x98\x85 USER REVIEWS "All the best news and samsung galaxy note apps tailored for my phone \xe2\x80\x9d"My one stop for my phone updates & news. Excellent""Couldn\'t live without this awesome app! - everything from - from galaxy note wallpapers to galaxy note apps""Amazing app! I Check every day to see what new stuff I can have or use with my phone"\xe2\x98\x85 Content \xe2\x98\x85After installing Drippler, you\'ll get the latest:\xe2\x9c\x93 Samsung Note updates\xe2\x9c\x93 Samsung Galaxy Note apps\xe2\x9c\x93 Samsung Galaxy Note themes\xe2\x9c\x93 Galaxy Note games\xe2\x9c\x93 Galaxy Note widgets\xe2\x9c\x93 Galaxy Note wallpapers\xe2\x9c\x93 Galaxy Note guide\xe2\x9c\x93 Galaxy Note user guide\xe2\x9c\x93 Galaxy Note manual\xe2\x9c\x93 Galaxy Note widgets\xe2\x9c\x93 and more!Keywords: Galaxy Note Apps, Galaxy Note Theme, Galaxy Note Themes, Galaxy Note Unlock, Galaxy Note Wallpaper, Galaxy Note Root, Galaxy Note Update, Samsung Note Update, Galaxy Note App, Note Apps, Note Digest, Note for Android, Note Widgets for Android, Samsung Galaxy Note Update, Galaxy Note LTERecent changes:3.82.6* Bug fixes3.82.3* Featured apps tab* Bug fixes3.82.0* Notification bug fix3.81.9* Navigation buttons in drips* Bug fixes3.81.4* Show/hide game drips (under settings menu)* Quick download button for app and game drips* Facebook sharing button bug fix* Bug fixes3.80.6* Bug fixes'
p4
tp5
tp6
.