((S'Title'
p0
S'Arabic Tv Live '
p1
tp2
(S'Description:'
p3
S"Arabic Tv LiveCompletely free.* No need to uses extra devices, extra utilities.* Just use your mobile device (phone,tablet, etc.) .* Easy to use. Just click and watch. Arabic Tv Live is the best app for watching live Arabic channels in your android for free!If you have any issue/suggestion/improvements regarding the application, please feel free to mail us.Add your comments and give stars on the market! Thanks.If you want us to add a new channel, send us email with channel name and a link to the channel. We will add it! This is not the official application of the different channels.We don't have any connection with content providers or have any rights regarding content.This app is just a mean to view the content in an organized way.This application uses internet connection. Wifi/3g/4g are supported connection protocols. Wifi is more economic and more robust internet connection,so we recommend to use wi-fiRecent changes:Version 0.0.2: Refreshed channels list"
p4
tp5
tp6
.