((S'Title'
p0
S'Area Clienti 3 '
p1
tp2
(S'Description:'
p3
S'La nuova versione di Area Clienti 3 ti permette di accedere alla sezione Conto 3 Online e di abilitare la fattura elettronica. Con la fattura elettronica riceverai una notifica mail che ti informer\xc3\xa0 che nella tua Area clienti personale, e da oggi anche sull\xe2\x80\x99applicazione nella sezione Conto 3, \xc3\xa8 disponibile la copia elettronica della tua fattura.Attivando il servizio di fatturazione elettronica non riceverai pi\xc3\xb9 la copia cartacea risparmiando cos\xc3\xac anche le spese di spedizione.Con questa nuova release dell\xe2\x80\x99applicazione, potrai gestire i file del Conto 3 come preferisci: inviandoli via mail, visionandoli online o memorizzandoli sul tuo servizio Cloud preferito.Potrai accedere, con l\xe2\x80\x99app, all\xe2\x80\x99Area Clienti 3 senza registrarti, se navighi con la rete 3, oppure effettuando l\xe2\x80\x99accesso con le stesse credenziali che usi dal PC navigando da rete 3 o con il wifi.Novit\xc3\xa0 contenute in questa versione.-\tConto 3 per i clienti privati che possono ricevere fatture-\tConto 3 Online -\tNuova sezione Contattaci-\tNuova veste grafica per la visualizzazione delle soglie L\xe2\x80\x99App Area Clienti 3 ti offre le seguenti funzionalit\xc3\xa0:Profilo: dati anagrafici, PIN e PUK della tua USIM 3 e i recapiti personali a portata di mano.Costi e soglie* Novit\xc3\xa0: tutti i crediti e le soglie sempre aggiornati con una nuova veste graficaOpzioni: verifica quali sono attive, il loro stato di abilitazione e quali sono compatibili con il tuo piano tariffario.Dettaglio traffico: chiamate, sms e traffico internet effettuato negli ultimi 6 mesi.Conto 3 online: se il tuo piano tariffario prevede l\xe2\x80\x99invio di una fattura, puoi visualizzare il PDF del Conto ed inviarlo via Email.Contattaci **Novit\xc3\xa0: da oggi tenerti in contatto con il tuo servizio clienti dedicato \xc3\xa8 ancora pi\xc3\xb9 facile. Accedi alla sezione, scegli l\xe2\x80\x99oggetto e scrivi il tuo messaggio. Potrai visionare le tue domande e le risposte direttamente nella sezione \xe2\x80\x9cInBox\xe2\x80\x9dRicarica: per ricaricare con una carta Ricarica 3 o con carta di creditoImpostazioni: per gestire e modificare la tua password di accesso all\xe2\x80\x99Area Clienti, per verificare il corretto funzionamento della tua configurazione di rete e risolvere gli eventuali problemi riscontratiCopertura e Negozi: verifica la copertura e trova i negozi pi\xc3\xb9 vicini alla tua posizione attuale o ad un indirizzo specifico.Estero: visualizza le tariffe del traffico all\xe2\x80\x99Estero e dall\xe2\x80\x99Italia verso l\xe2\x80\x99Estero, l\xe2\x80\x99elenco degli operatori e i servizi disponibili.L\xe2\x80\x99App Area Clienti 3 funziona sia in modalit\xc3\xa0 3G che Wi-Fi.Accedendo con la rete 3 Italia la navigazione \xc3\xa8 gratuita.Recent changes:Nella nuova versione:- Come richiesto da molti utilizzatori le soglie presenteranno l\xe2\x80\x99indicazione dei secondi rimanenti- Bug Fixing'
p4
tp5
tp6
.