((S'Title'
p0
S'ASDA '
p1
tp2
(S'Description:'
p3
S'ASDA\xe2\x80\x99s FREE app makes it fast and simple to shop for groceries on the go. With handy features like a barcode scanner that lets you instantly add items to your trolley, it\xe2\x80\x99s never been easier to do your shop!Celebrate Easter with ASDA! Announcing our Easter Egg Hunt - visit one of our stores on the 23rd of March or pick up a copy of Asda Magazine\'s April edition and use the app to meet the 3D Easter Bunny and join in our Easter Egg Hunt!To participate in our Easter Egg Hunt, you\'ll need a phone or a tablet with a high-resolution camera. If your device can\'t download the game, don\'t worry! Simply head over to your local Asda on the 23rd of March where our colleagues will have devices on hand so you can join in the fun!With the ASDA Android app, you can:\xe2\x80\xa8- Shop the full grocery range available on our desktop website\xe2\x80\xa8\xe2\x80\xa8- Access ASDA Price Guarantee (APG)\xe2\x80\xa8- Browse the app as a guest; no need to create an ASDA Home Shopping login\xe2\x80\xa8\xe2\x80\xa8- Start your shop from your Favourites and quickly add those items to your trolley\xe2\x80\xa8\xe2\x80\xa8- Browse special offers; tap the red Multisave flags to view all items included in the offer\xe2\x80\xa8\xe2\x80\xa8- Find and learn about items using voice search, barcode scanner and QR code scanner\xe2\x80\xa8- Sort items by price; filter by type or by your favourite brand\xe2\x80\xa8\xe2\x80\xa8- Book a delivery time slot; easily amend your slot up until 10pm the day before your\xe2\x80\xa8delivery and set a calendar appointment to remind you of your delivery date/time\xe2\x80\xa8- Order groceries online and collect at selected stores with Click & Collect\xe2\x80\xa8- Top up your ASDA delivery order while on the go; amend (or cancel) your order\xe2\x80\xa8\xe2\x80\xa8- View ASDA\xe2\x80\x99s petrol price at your nearest petrol station\xe2\x80\xa8- Find your nearest ASDA store, view opening hours and get directions\xe2\x80\xa8\xe2\x80\xa8- Store the app on your SD cardAbout permissions: \xe2\x80\xa8\xe2\x80\xa8- Take pictures and videos: used only for the barcode scanner\xe2\x80\xa8- GPS location: used only for finding stores\xe2\x80\xa8- Internet access & network state: an internet connection is required to use this appAsda Price GuaranteeThe Asda Price Guarantee looks at the prices of around 17,500 like-for-like branded and own label grocery products at ` with Tesco, Sainsbury\xe2\x80\x99s, Morrison\xe2\x80\x99s and Waitrose.\xe2\x80\xa8(APG) powered by the independent price checker mysupermarket.co.uk\xe2\x80\xa8\xe2\x80\xa8Just three simple steps for you to follow:\xe2\x80\xa81. Do your ASDA in-store grocery shop as normal, remembering to keep your receipt. You need to buy at least 8 different items, of which at least 1 should be comparable.\xe2\x80\xa8\xe2\x80\xa82. Check the ASDA Price Guarantee on the App after 6am the next morning to see what the comparable items in your grocery shopping would have cost at other supermarkets.\xe2\x80\xa83. If we\'re not 10% cheaper than Tesco, Sainsbury\xe2\x80\x99s, Morrisons and Waitrose on your comparable grocery shopping, we\'ll give you the difference. Guaranteed! Just present your voucher and original receipt at the checkout. We\'ll then take this amount off your bill.\xe2\x80\xa8\xe2\x80\xa8Please note: You will need an ASDA receipt with at least 8 different items, of which 1 must be comparable. For online grocery orders, you simply need to enter your email address and password. Please refer to www.asda.com/priceguarantee for the full Terms and Conditions.Experiencing issues or crashes?Try turning your phone off and back on again. Or, try signing out and back in to your account. These actions often fix most issues. If you\'re still experiencing problems, go to http://your.asda.com/contact-us where you\'ll find help and support.Recent changes:A note about Permissions related to our Easter Campaign:- "Read/write to SD card" allows you to share photos and videos from the Easter Egg Hunt- \xe2\x80\x9cWake lock\xe2\x80\x9d will prevent your screen from turning off as you\'re participating in our Easter Egg Hunt.- \xe2\x80\x9cVibrate\xe2\x80\x9d will allow your phone to vibrate when you scan an Easter egg as part of our Easter Egg Hunt We\xe2\x80\x99ve made completing your APG check even easier, now simply scan your receipt and we\xe2\x80\x99ll do the rest.'
p4
tp5
tp6
.