((S'Title'
p0
S'Atom Store '
p1
tp2
(S'Description:'
p3
S"The release and continuation of Atom Launcher\xe2\x80\x99s Theme Market \xe2\x80\x93 the new Atom Store 2.0!Beginning now you can download themes created through collaboration with famous writers and amazing themes straight from stars of the \xe2\x80\x9cKorean Wave\xe2\x80\x9d. \xe2\x96\xb6 One day of paid themes for free!\xe2\x80\x9cToday\xe2\x80\x99s free\xe2\x80\x9d service has now been newly opened. This is a golden opportunity for everyone to try out for free some of our amazing paid themes. Every day you can check out the Atom Store and be greeted by new themes, keeping things fresh and interesting on your home page. (After checking: \xe2\x80\x98Settings \xe2\x80\x93 Security \xe2\x80\x93 Unknown Sources\xe2\x80\x99, Today\xe2\x80\x99s Free themes should be downloadable, however, it is impossible to re-download the theme if you remove it.)\xe2\x96\xb6 Search and Categories A new search function as well as categories have been added so you can more easily find the themes you are interested in.\xe2\x96\xb6 Theme Exhibitions and Hot Themes Don\xe2\x80\x99t worry anymore about the large amount of choices and variety on Atom. To make it easier to search for and find high quality themes you might be interested in, we have introduced new exhibitions, season theming, trends, etc... Also, take a look at the new \xe2\x80\x9cHot Themes\xe2\x80\x9d section which regularly features popular themes.***How to use the Atom Store 1.Search for Atom Store on Google Play or Touch \xe2\x80\x93 Click the home screen on your atom launcher and select Atom Store; move to the download page (will be automatically connected to the Atom Store immediately after installation)2.Download Atom Store and Install it3.Download themes you are interested in*** What\xe2\x80\x99s in the Atom Store1. Atom ThemesThemes designed exclusively for the Atom Launcher. You can change not only wallpapers but also icons and folders simultaneously. 2. Lock Screen We offer cool lock screens for Atom and many other launchers. You can easily set the lock screen with our lock screen manager. 3. Atom Icon PackIcons only for the Atom Launcher*** Attention- Available for Android OS version 4.0.2 and up- By checking, \xe2\x80\x98Settings \xe2\x80\x93 Security \xe2\x80\x93 Unknown Sources\xe2\x80\x99 Today\xe2\x80\x99s Free-of-charge service can be used- The theme application needs 10 MB in total of space to save theme resources- To enhance usability, the installed theme doesn't appear- Themes for Tab devices (X-large screen) will be available soon*** Customer SupportPlease leave reviews or comments via the Google play reviews sectionYour review is greatly appreciated. For more information or support, please visit Facebook: http://www.facebook.com/atom.themesRecent changes:For now, version 2.0.2 is the latest. We will continue to offer updates. Keep it upgraded and enjoy better smartphone interface."
p4
tp5
tp6
.