((S'Title'
p0
S'Atom Launcher '
p1
tp2
(S'Description:'
p3
S'\xe2\x80\x9cThe Art of Minimalism\xe2\x80\x9d - Atom Launcher 1.4 has just been released. With this release, Atom now offers several exclusive widgets (Clock, Memo, Calendar, Contacts and Settings)ATOM Launcher is a cutting-edge, optimized-for-ICS & JellyBean, launcher.If you like Atom, please come join us on Facebook! \xe2\x96\xbcFacebook: https://www.facebook.com/Atom.Launcher.GlobalAlso, don\xe2\x80\x99t miss out on our new \xe2\x80\x98ATOM Store\xe2\x80\x99 app, allowing you to seamlessly import beautiful art themes from famous artists in one click. Direct Link: https://play.google.com/store/apps/details?id=com.dlto.atom.store ***Main Features:- Exclusive Widgets: Clock, Memo Calendar, Contact, Settings and Search Bar- Gestures: Pinch, Double Touch, Slide, Long-Touch- Smart Folder: Ability to add folders on ALL apps and the \xe2\x80\x98Home\xe2\x80\x99 screen - flexible sizing- Dock Bar: Access up to 20 of your favorite apps instantly, includes an \xe2\x80\x98Emotional\xe2\x80\x99 Filter Effect, Screen settings, and opacity adjustments- Multi-Wallpaper: Automatically switch between 3-24 different wallpapers when the display is turned on/off- Deep Customization: \xe2\x80\x98Point Colors\xe2\x80\x99 are completely adjustable and modify the look and feel of Widgets, Menu, Guides, or Icons- Live Background: Brings your background into the 21st century \xe2\x80\x93 beautiful dynamic backgrounds- Wide-Ranging Theme Support: Supports existing SSKIN and GO launcher themes***Main Points:- High Quality: Optimized for Ice Cream Sandwich / Jellybean (Android ICS/JB 4.0.2 onwards)- Light & Easy: Options instantly selectable through a light and easy launcher interface- Stylish: Stylish UI with beautiful backgrounds, icons, and custom color schemes from professional designers- Smart: Themes are optimized automatically for ICS and existing launchers such as SSKIN and GO are completely supported - Fun: Offers fun, interactive themes with live, beautiful backgrounds and widgets***ATTENTION- Available from Android OS version 4.0.2 and above- Requires 10 MB space to save theme resources- Not available for Tab Devices (Extra-Large Screen)- Badges: Display missed call, unread messages (Atom Launcher only supports default apps on your Android device - does not currently support device-specific functions and apps)*** Customer SupportPlease leave reviews or comments. Your review is very appreciated.For more information or support, please visit - Facebook: https://www.facebook.com/home.php#!/atom.launcher.en- CS E-mail: atom.launcher@dlto.co.kr*** Upgrade Info+  What\'s new in version 1.4.5  (2013.04.24)- Modified the GUI in theme settings- Add support for loading other launcher\'s settings (Nova, Apex, Mx, LG home, Holo Launcher, Zeam Launcher)- Add launcher setting menu when pressed menu key- fixed minor errors+  What\'s new in version 1.4.4  (2013.03.18)- start supporting Full HD- Add "hide dock divison-line" on option-Increase the number of dock page (up to seven)- change the direction of scrollin app to the horizontal scroll incase folder has Apps more than 16- 2014 Calendar Holidays update- start supporting deleting name of shortcut icon support- Other error corrections+  What\'s new in version 1.4.3   (2013.02.18)- Expanded App number in folders- Point color and GUI image improvements- All Apps editing and sorting animation effects support- Galaxy S3 badges- Market exception error correction + What\'s new in version 1.4.2 (2013.01.17)- Supports Japanese - Improved battery efficiency - Vertical \xe2\x80\x93 Multi wallpaper- Fixed market exception errors- Stabilized exclusive widget\xe2\x80\x99s code+ What\'s new in version 1.4.1-fixed folder malfunctions -fixed forced quitting errors in horizon- mode-started offering back-up & restore on atom widget-fixed minor malfunctions+ What\'s new in version 1.4- Add Widget Manager- Strengthen editing function on all apps - Improve UI on Menu bar- Fixed minor malfunctionsRecent changes:For now, version 1.4.5 is the lastest. We will continue to offer updates. Keep it upgraded and enjoy better smartphone interface.+  What\'s new in version 1.4.5  (2013.04.24)- Modify GUI of theme settings- Add support for other launcher\'s setting loading (Nova, Apex, Mx, LG home, Holo Launcher, Zeam Launcher)- Add launcher setting menu when pressed menu key'
p4
tp5
tp6
.