((S'Title'
p0
S'Audubon Insects & Spiders '
p1
tp2
(S'Description:'
p3
S"This introduction to 510 of the most common species of insects and spiders found in North America features in-depth information on each species, including habitat, range, size, and more, along with high-quality, professional photographs. Audubon Insects and Spiders is your essential interactive guide to identifying bugs in North America.*This guide does not include moths and butterflies, which can be found in Audubon Butterflies.Features\xe2\x80\xa2Every species in Audubon Insects and Spiders is described with rich and detailed information, all accessed by fast and easy navigation. Audubon Butterflies now available as a separate app.\xe2\x80\xa2Hundreds of professional color photographs detailing each species with extraordinary clarity.\xe2\x80\xa2In-depth descriptions of every species, with extensive material about every species and family \xe2\x80\x93 including the entire content of the National Audubon Society Field Guides to North American Insects and Spiders brought completely up to date.\xe2\x80\xa2State-of-the-Art search functions:\xe2\x80\xa2Browse by first name, last name, and scientific name of every species, by family, or by species shape/type; or,\xe2\x80\xa2Search by multiple \xe2\x80\x9cadvanced search\xe2\x80\x9d variables including size, shape and color;\xe2\x80\xa2Create your own Life Lists, Sightings, Photo Albums, and record your own Field Experiences. Save a sighting location using the phone\xe2\x80\x99s GPS, take notes, and save to the App for records of your nature adventures.About Audubon Guides: Audubon Guides are a comprehensive suite of digital field apps created in alliance with National Audubon Society (NAS). For more information, please see: http://natureshare.com/home.html#apps. About the Developer: Green Mountain Digital, the world's largest publisher of digital field guides, collectively generating over 1 million downloads; over 100 App Store promotions; and numerous awards. It was founded in 2009 in Woodstock, VT. The company has designed and published more than 75 mobile apps across multiple platforms, including Audubon Birds of North America, Orvis Fly Fishing: The Ultimate Guide, GardenMinder, Sailing World: Knots and Splices, FishBlue, and NatureTap. GMD is the creator of NatureShare, an innovative social platform that allows users to collect wildlife sightings and outdoor experiences and share them with others. Visit Us Today! www.natureshare.com Facebook: facebook.com/natureshare Twitter: @Nature_Share For any assistance, please email feedback@natureshare.comRecent changes:\xe2\x80\xa2 Improved app performance \xe2\x80\xa2 Faster and more reliable content downloading \xe2\x80\xa2 Larger species thumbnails when browsing"
p4
tp5
tp6
.