((S'Title'
p0
S'AutoRap '
p1
tp2
(S'Description:'
p3
S'With Smule\xe2\x80\x99s proprietary \xe2\x80\x9crappification\xe2\x80\x9d technology, AutoRap maps the syllables of your speech to any beat, creating a unique rap every time.As the lyrical master, Jay-Z, says "This is the death of Auto-Tune, moment of silence". This is AutoRap.------------------ "you simply speak into your phone, and the app chops your voice and buries it in a whole mess of autotuney goodness" --engadget ------------------ TALK MODE: Talk into the app, and AutoRap magically morphs your speech into a legit rap. Create your own original rap songs with Freestyle Beats, or use Premium Songs from artists like Snoop Dogg and Nicki Minaj, to AutoRap with the songs you know and love. RAP MODE: Switch to Rap Mode and flaunt your skillz by rapping along to your favorite songs, following the lyrics that scroll across the screen. AutoRap will correct your flow, snapping your syllables to the rhythmic grid of the underlying beat. *** HEADPHONES RECOMMENDED FOR RAP MODE*** SHARE: Now go share your creations with your friends via email, Facebook or Twitter. Sing them a happy birthday they\xe2\x80\x99ll never forget, or give \xe2\x80\x98em the lowdown on the sandwich you ate for lunch. NEW BEATS AND SONGS ADDED EVERY WEEK. The current song catalogue includes songs and beats by: Nicki Minaj \xe2\x99\xaa Eminem feat. Rihanna \xe2\x99\xaa BOB \xe2\x99\xaa Snoop Dogg \xe2\x99\xaa Ludacris \xe2\x99\xaa Tupac feat. Dr. Dre \xe2\x99\xaa Outkast \xe2\x99\xaa Nelly \xe2\x99\xaa Beastie Boys \xe2\x99\xaa Kelis \xe2\x99\xaa Chamillionaire ...and many more! Check back daily to see what\xe2\x80\x99s new. Want something we don\xe2\x80\x99t have? Visit our Facebook page (www.facebook.com/smule) and put your request in! Features: - Choose between talk or rap mode. - Pick your beat from freestyle or premium sounds. - Beautiful visualizations match the beat of your raps. - Don\xe2\x80\x99t like the beat, just re-AutoRap it! - Share your creations via email, Facebook and Twitter - Come back frequently to earn additional plays. EXPLANATION OF PLAYS: AutoRap offers you the ability to choose between Freestyle and Premium beats, using \xe2\x80\x9cPlays\xe2\x80\x9d. Plays allow you to try out any song in the catalogue, without being stuck with any one song. Each time you create an AutoRap, or Re-AutoRap, with a Freestyle or Premium beat, the corresponding Play Balance gets deducted by 1 Play. We give you a Starter Pack of free Freestyle Plays so you can try them out! ALWAYS FREE: We offer two songs that are ALWAYS FREE - \xe2\x80\x9cTurkey Burgers\xe2\x80\x9d and \xe2\x80\x9cOneOneOne\xe2\x80\x9d - so you can use the app anytime you want completely free, without spending any money, ever. EARN PLAYS: We also allow you to earn Freestyle and Premium Plays. NOTE: Headphones recommended for maximum enjoyment.Recent changes:Version 1.0.11- Fixed visualization alignment on Nexus 10Version 1.0.10- Smaller app to download- Several bug fixes and stability improvementsVersion 1.0.9- Fixed bug where app would freeze on launch- Faster startup - Several bug fixes and stability improvements Version 1.0.8- Several bug fixes and stability improvements'
p4
tp5
tp6
.