((S'Title'
p0
S'AutoScout24 - used car finder '
p1
tp2
(S'Description:'
p3
S'AutoScout24 is the largest online marketplace for cars in Europe and offers about 2 million vehicles. With the AutoScout24 Android app you can access the online car and motorbike marketplace anytime from anywhere. Save your favourite search results and view them offline. In addition to the vehicle search the AutoScout24 Android App also offers a magazine area with interesting test reports and just everything about cars, the purchase and sale of cars.______________________________________________AND THIS IS HOW YOU START YOUR CAR SEARCH\xe2\x9c\x94 Choose make, model, price and further criteria\xe2\x9c\x94 Conduct a local search and save it\xe2\x9c\x94 Sort search results by price, color or further criteria\xe2\x9c\x94 Save your favorites\xe2\x9c\x94 Call seller directly via the app______________________________________________THE FUNCTIONS AT A GLANCE\xe2\x9c\x94 Car and motorbike search\xe2\x9c\x94 Search in whole Europe (GER, FR, IT, ES, NL, AT, LUX, BE and RU)\xe2\x9c\x94 Individual arrangement of results (price, registration date, mileage, performance and more)\xe2\x9c\x94 Saved Searches: Save your individual search options easily in one inquiry for the next time. \xe2\x9c\x94 Favorites (view favorite cars offline)\xe2\x9c\x94 Synchronisation of your favorites between app and web\xe2\x9c\x94 Picture gallery with preview and zoom\xe2\x9c\x94 Direct contact with the seller\xe2\x9c\x94 Link and share ads with your family, friends and other via email, Facebook or Twitter\xe2\x9c\x94 AutoScout24-magazine - interesting test reports about vehicles and all about cars, car purchase and sales______________________________________________REVIEWS\xe2\x98\x85\xe2\x98\x85\xe2\x98\x85\xe2\x98\x85\xe2\x98\x85 \xe2\x80\x9eMuch better than the website!"\xe2\x98\x85\xe2\x98\x85\xe2\x98\x85\xe2\x98\x85\xe2\x98\x85 "Very intuitive, well done and also free... What to ask for?"\xe2\x98\x85\xe2\x98\x85\xe2\x98\x85\xe2\x98\x85\xe2\x98\x85 "Easy to use app."______________________________________________Do you have any questions or comments? Write us to apps-com@autoscout24.com. Please consider that we can not answer any reviews. So if you need support please contact the support-mail adress or the feedback function in the App.______________________________________________The following Android rights are used in the App, and are exclusively utilized for the described purposes:# "Your accounts" - Creation and usage of your AutoScout24-Account, as well as saving your login data within Android accountmanager.# "Hardware controls" - This feature allows you to take a picture within the app and search for similar cars at AutoScout24.# "Your location" - Radius search of cars, motorbikes and garages on your current location.# "Network communication" - Search for cars, motorbikes and garages, as well as synchronization of your data with your AutoScout24-Account. The right \xe2\x80\x98View network and wifi connections\xe2\x80\x99 makes it possible to resume data transfer automatically after a connection error.# "Phone calls" - Call seller, garages and third suppliers like insurance service provider and financial service provider.# "Storage" - Save your favorites including vehicle images for offline usage.# "System tools" - Synchronization of favorites data with your AutoScout24-Account after login.Tracking and Data Privacy:The app is using thirdparty-technologies from Trademob and Google Analytics to gather anonymous usage statistics. This data enables us to continuously optimize the app to your needs. If you don\'t want to provide this anonymous data, you can deactivate the tracking in the app at "Information" -> "Info about tracking".Recent changes:Version 2.5.1\xe2\x9c\x94 Improved stability and bugfixesEnjoy using our app for Android. We are continuously working on further improvements and advanced features to offer you even more services. Thank you for your numerous feedback, we are looking forward to further suggestions.'
p4
tp5
tp6
.