((S'Title'
p0
S'avast! Mobile Security '
p1
tp2
(S'Description:'
p3
S'Remote cell phone tracker/locator and malware protection (with USSD blocker).Highly recommended by Android authorities, AV-Test, PCAdvisor, Techworld, and now over 14 million users worldwide!REVIEWSAndroidAuthority: \xe2\x80\x9cThe best just got better\xe2\x80\xa6 nothing comes close\xe2\x80\x9dAndroid and Me: \xe2\x80\x9cThe best anti-theft solution on the market\xe2\x80\x9dAndroidPolice: \xe2\x80\x9cbasically anything you would want should your device get lost or stolen\xe2\x80\x9dDroid-Life: \xe2\x80\x9cit doesn\xe2\x80\x99t get much more extensive than this\xe2\x80\x9dPCAdvisor: \xe2\x80\x9cyour first port of call when looking for a security product\xe2\x80\x9dMAIN FEATURES\xe2\x80\xa2 Antivirus: Scans installed apps and memory card content on demand and new apps upon first use.\xe2\x80\xa2 Privacy Report: Scans and displays access rights and intents of installed apps.\xe2\x80\xa2 Anti-Theft (hidden component): Gives you remote control via SMS or Web (cell phone tracking, activate siren, memory wipe, etc.).\xe2\x80\xa2 Network Meter: Measures incoming/outgoing data transfers.\xe2\x80\xa2 Web Shield: Scans each URL that loads and warns you if it\xe2\x80\x99s malware-infected. Includes USSD blocker.\xe2\x80\xa2 Widget: Gives you control of the app from your Android desktop.\xe2\x80\xa2 Web Interface: Provides remote control of anti-theft features (cell phone lock, GPS tracking, memory wipe, etc.).\xe2\x80\xa2 SiteCorrect: Automatically fixes mistyped URLs.\xe2\x80\xa2 Shield Control: Advanced settings for app, web, and messages scanning.\xe2\x80\xa2 UI Design: Great readability on Android cell phones and tablets.\xe2\x80\xa2 SMS/Call Filtering: Filters out particular contacts that you select.\xe2\x80\xa2 App Manager: Lists apps and their sizes (MB), CPU load, memory used, etc.\xe2\x80\xa2 Battery Save: Runs only when performing tasks.\xe2\x80\xa2 Firewall (works on rooted phones only): Serves as gatekeeper for network traffic.\xe2\x80\xa2 Available Languages: Catalan, Czech, Dutch, English, French, German, Hungarian, Chinese (Simplified), Chinese (Traditional), Italian, Japanese, Korean, Polish, Portuguese, Russian, Spanish, Turkish, Vietnamese.Learn more: http://www.avast.com/free-mobile-securityRemotely control your phone after install at: https://my.avast.comRecent changes:\xe2\x80\xa2 Simplified Anti-Theft setup\xe2\x80\xa2 New Anti-Theft user interface\xe2\x80\xa2 Improved uninstall protection of apps\xe2\x80\xa2 File Shield (also scans downloads)\xe2\x80\xa2 Full activity log\xe2\x80\xa2 Option to disable sending SMS to avast! Account\xe2\x80\xa2 Folder scanning\xe2\x80\xa2 Vietnamese localization\xe2\x80\xa2 "Scan files when reading" is turned off by default'
p4
tp5
tp6
.