((S'Title'
p0
S'Baby Farm(math) '
p1
tp2
(S'Description:'
p3
S'In order to make kids better learn and consolidate the calculation which are less than 20, Baby Farm combines the mathematics and farm into the game, and puts the boring calculation into the game story, so that it is full of the interesting and fun.  Therefore, babies learn the logical thinking from the mathematics, and enjoy the happy time during playing it. Let\xe2\x80\x99s show the game plots here.How beautiful the vegetable fields are! The Panda is working over there. Oh, no\xe2\x80\xa6caterpillars are coming now. Let\xe2\x80\x99s apply the pesticides to defend our vegetable garden immediately. Pesticides! Where is it? Giving the right answer for the calculation during working for the vegetable field, the baby will be awarded a pesticide, and then use the pesticides to kill the caterpillars to protect our garden. But it will fail if the baby can\xe2\x80\x99t give the right answer until the caterpillars eat the vegetables.    Be careful! Caterpillars can\xe2\x80\x99t stop moving until the vegetables are harvested. Babies, be quickly, move your figures to help the Panda harvest the vegetables now!\xe2\x98\x85\xe2\x98\x85\xe2\x98\x85\xe2\x98\x85\xe2\x98\x85\xe2\x98\x85\xe2\x98\x85Products of Baby Bus\xe2\x98\x85\xe2\x98\x85\xe2\x98\x85\xe2\x98\x85\xe2\x98\x85\xe2\x98\x85\xe2\x98\x85\xe2\x98\x85 The most interactive and interesting entertaining cognitive products\xe2\x98\x85 ___________\xe2\x96\xb6design concepts\xef\xbc\x9aWe focus on inspiration, not just learning.We focus on capacity-building, rather than a single cognition.We focus on entertaining, rather than spoon-feeding teaching.Take the baby bus, which is loaded with a happy childhood!___________\xe2\x96\xb6The series introduction\xef\xbc\x9aBaby Bus is the first brand in early childhood educational software (field of mobile Internet), which is developed specifically for preschoolers, and includes two series which are the Age(1-3) and the Age(3-6). The series of the Age(3-6) combines the main concepts of early childhood education for 3-6 year-old babies and covers the Cognition Pavilion, Brain Training, Art Center  and other relevant categories, the applications of Age(3-6) are aimed at the development of the comprehensive cognitive abilities of the baby\xe2\x80\x99s pedia, music, art, and the analytical thinking capabilities of the left and right brain.Tips: In the search bar, enter "Baby Bus" or " sinyee", to find all of our products.___________\xe2\x96\xb6Welcome to contact us on\xef\xbc\x9aE-mail: ser@baby-bus.comwebsite: http://www.baby-bus.comRecent changes:1.Added the animation of Chinese New Year.2.To protect baby\'s vision,added the new feature of taking a break.3.Optimize the size of the app, decreased by 10MB.4.Some bugs are solved.'
p4
tp5
tp6
.