((S'Title'
p0
S'Baby\xc3\xa2\xe2\x82\xac\xe2\x84\xa2s Birthday Party\xc3\xaf\xc2\xbc\xcb\x86KIDS\xc3\xaf\xc2\xbc\xe2\x80\xb0 '
p1
tp2
(S'Description:'
p3
S'Yeah, it is so happy that the birthday is coming soon. Come on, my friends let\xe2\x80\x99s party.It is a special birthday party. Let you organize your party by yourself and become the real master of the birthday party. You can choose the style of the table cloth, tableware, cake, snacks and drinks by yourself. Simulating a real party scene and creating a warm and happy atmosphere can provide you and your friends an interactive opportunity and you can celebrate your birthday everyday. Look, the delicious cream cakes and cute donuts are waving to you. There are also lots of special gifts waiting for you. Let\xe2\x80\x99s light the birthday candles and sing a birthday song to you: Happy birthday to you\xe2\x80\xa6\xe2\x98\x85\xe2\x98\x85\xe2\x98\x85\xe2\x98\x85\xe2\x98\x85\xe2\x98\x85\xe2\x98\x85Products of Baby Bus\xe2\x98\x85\xe2\x98\x85\xe2\x98\x85\xe2\x98\x85\xe2\x98\x85\xe2\x98\x85\xe2\x98\x85___________\xe2\x96\xb6design concepts\xef\xbc\x9aWe focus on inspiration, not just learning.We focus on capacity-building, rather than a single cognition.We focus on entertaining, rather than spoon-feeding teaching.Take the baby bus, which is loaded with a happy childhood!___________\xe2\x96\xb6The series introduction\xef\xbc\x9aBaby Bus is the first brand in early childhood educational software (field of mobile Internet), which is developed specifically for preschoolers, and includes two series which are the Age(1-3) and the Age(3-6). The series of the Age(3-6) combines the main concepts of early childhood education for 3-6 year-old babies and covers the Cognition Pavilion, Brain Training, Art Center  and other relevant categories, the applications of Age(3-6) are aimed at the development of the comprehensive cognitive abilities of the baby\xe2\x80\x99s pedia, music, art, and the analytical thinking capabilities of the left and right brain.Tips: In the search bar, enter "Baby Bus" or " sinyee", to find all of our products. ___________\xe2\x96\xb6Welcome to contact us on\xef\xbc\x9aE-mail: ser@baby-bus.comwebsite: http://www.baby-bus.com facebook:http://www.facebook.com/pages/Baby_bus_sinyee/448347428559860twitter\xef\xbc\x9ahttps://twitter.com/Baby_bus_sinyee'
p4
tp5
tp6
.