((S'Title'
p0
S'Backgrounds and Wallpapers HD '
p1
tp2
(S'Description:'
p3
S'## Unique & Superb quality Wallpapers Hand Picked by OGQ ### The OGQ Backgrounds HD has huge selections of unique and high quality images with category support. It is the Fastest Wallpaper app with easy and intuitive user interface. ** Features **\xe2\x9c\x94 1,600+ Unique & High quality images Hand Picked by OGQ\xe2\x9c\x94 New Unique & Superb quality Images added Daily\xe2\x9c\x94 The Fastest Wallpaper app with easy and intuitive user interface\xe2\x9c\x94 Search wallpapers by category, popular, favorite features\xe2\x9c\x94 Easy to share beautiful images through SNS such as Facebook, Twitter ** Wallpaper Categories **The OGQ HD Wallpapers includes Animal, Buildings, Cats and Dogs, Cars, Colorful, Flowers, Food, Girly, Heart, Illustration, Love, Monochrome, Nature, Paintings, Patterns, People, Pink, Quotes, Sky, Sports, Texture, Travel, Trees, Universe, Vintage and s going to continue to be added. The OGQ HD Wallpapers and Backgrounds is the best Android Wallpaper app, which is also known as Wallpapers, Wallpaper, Backgrounds, Live Wallpaper, beautiful images, photos, pictures, and artist drawings. Copyright \xc2\xa9 2011-2012 OGQ Corp., Inc. All rights reserved.Recent changes:- The Fastest Wallpaper app even got Faster- New Superb quality images added Daily'
p4
tp5
tp6
.