((S'Title'
p0
S'BancoSaldo '
p1
tp2
(S'Description:'
p3
S"Grazie a questa applicazione puoi tenere sotto controllo il tuo conto bancoposta, vedere il tuo saldo, gli ultimi movimenti ed effettuare ricariche telefoniche verso qualsiasi numero.Se avete associato al conto una carta Postepay potete vedere anche il saldo e i movimenti della carta Postepay.Questa applicazione \xc3\xa8 in costante aggiornamento: se avete idee di nuove funzionalit\xc3\xa0 o di miglioramenti delle attuali fatelo inviandomi una mail!*** SE NON AVETE UN ACCOUNT BANCOPOSTA ONLINE CREATELO QUI: http://www.poste.it/online/bancopostaonline/attivareservizio.shtml ****** FUNZIONA ANCHE CON BANCOPOSTA CLICK (no multiconto) ****** MANDATEMI UNA EMAIL SE RISCONTRATE PROBLEMI INVECE DI SCRIVERLI NELLE RECENSIONI, CERCHERO DI RISOLVERLI IL PRIMA POSSIBILE! ***Cliccate sui banner per supportare lo sviluppatore, grazie.Se vi \xc3\xa8 piaciuta l'app e volete supportarla potete fare una donazione su Paypal all'indirizzo:norpius@gmail.comRingrazio in anticipo per ogni eventuale donazione.In futuro saranno disponibili ulteriori opzioni tra cui:- possibilit\xc3\xa0 di inviare bonifici- cerca postamatATTENZIONE, E' UN'APPLICAZIONE NON UFFICIALE!Il programma effettua richieste HTTPS verso il sito bancopostaonline.poste.it, riproducendo lo stesso flusso di dati di un comune browser web.Poste Italiane non ha niente a che fare con questo software!Un abuso delle funzionalit\xc3\xa0 del programma (ad es. operazioni non portate a termine per test) potrebbe portare al blocco delle operazioni on-line sul conto!I marchi BancoPosta, BancoPostaonline e PostePay sono di propriet\xc3\xa0 di Poste Italiane e sono utilizzati all'interno di questo software per puro scopo indicativo.L'applicazione si propone come alternativa NON COMPLETA alla navigazione del sito utilizzando il browser web. Le comunicazioni avvengono esclusivamente tra il terminale dell'utente ed il server di Poste Italiane, tramite protocollo cifrato SSL. I dati sensibili non vengono memorizzati sul terminale a meno di una precisa autorizzazione dell'utente e non vengono ceduti a terze parti, oltre ovviamente a Poste Italiane (regolamento privacy: http://www.poste.it/azienda/policy.shtml).La funzionalit\xc3\xa0 dell'applicazione \xc3\xa8 strettamente dipendente da quella del sito BoncoPostaonline; tuttavia si avverte che essa potrebbe contenere errori, non dipendenti dalla volont\xc3\xa0 del programmatore, che ne potrebbero compromettere la corretta funzionalit\xc3\xa0.L'utente, al momento dell'installazione dell'applicazione, si assume la completa responsabilit\xc3\xa0 per il suo utilizzo e per eventuali malfunzionamenti.Recent changes:v.21- implementato gestione multiconto per bancoposta click- ricarica telefonica anche con numeri a 9 cifre- bugfix movimenti postepayv.18-20- aggiunto il saldo e movimenti delle Postepay associate al conto bancoposta- vari bugfixesv.17- corretto il bug durante la lettura delle credenziali salvate sul telefono, dopo il passaggio ad android 4.2 v.15- corretto un bug grafico nella sezione ricarica per i cellulari con schermo molto piccolo"
p4
tp5
tp6
.