((S'Title'
p0
S'Bankdroid '
p1
tp2
(S'Description:'
p3
S'Bankdroid is an open source banking application for Swedish banks.Key features:\xe2\x80\xa2 Automatic updates of your bank balance and transactions - You\'ll always have up to date information just one click away.\xe2\x80\xa2 Notifications - You\'ll be notified whenever your balance changes. This feature makes it easy to detect fraudulent/faulty charges and also lets you know when it\'s time to spend your hard earned paycheck.\xe2\x80\xa2 Widgets - With your account balance right on the home screen you\'ll always be reminded of how poor you are.Currently supported banks:\xe2\x80\xa2 Akelius Invest\xe2\x80\xa2 American Express\xe2\x80\xa2 Appeak Poker\xe2\x80\xa2 AudiKortet\xe2\x80\xa2 Avanza\xe2\x80\xa2 Avanza Mini\xe2\x80\xa2 Bioklubben\xe2\x80\xa2 Chevrolet Big Plus Card\xe2\x80\xa2 Coop\xe2\x80\xa2 Danske Bank\xe2\x80\xa2 Diners Club\xe2\x80\xa2 Djurg\xc3\xa5rdskortet\xe2\x80\xa2 Eurocard\xe2\x80\xa2 First Card\xe2\x80\xa2 Handelsbanken\xe2\x80\xa2 Hemk\xc3\xb6p Kundkort\xe2\x80\xa2 ICA\xe2\x80\xa2 ICA Banken\xe2\x80\xa2 Ikano Bank\xe2\x80\xa2 IKEA HANDLA Kort\xe2\x80\xa2 Jojo Reskassa (Sk\xc3\xa5netrafiken)\xe2\x80\xa2 L\xc3\xa4nsf\xc3\xb6rs\xc3\xa4kringar Bank\xe2\x80\xa2 Marginalen Bank\xe2\x80\xa2 Meniga\xe2\x80\xa2 McDonald\'s Giftcard\xe2\x80\xa2 Nordea\xe2\x80\xa2 Nordea (Danmark)\xe2\x80\xa2 Nordnet\xe2\x80\xa2 Nordnetdirekt\xe2\x80\xa2 OKQ8\xe2\x80\xa2 OpelKortet\xe2\x80\xa2 Osuuspankki/Andelsbanken\xe2\x80\xa2 PayPal\xe2\x80\xa2 Payson\xe2\x80\xa2 PlusGirot\xe2\x80\xa2 Preem Privatkort\xe2\x80\xa2 Quintessentially Credit Card\xe2\x80\xa2 Resurs Bank\xe2\x80\xa2 Rikslunchen\xe2\x80\xa2 SaabKortet\xe2\x80\xa2 SAS EuroBonus Mastercard\xe2\x80\xa2 Seatkortet\xe2\x80\xa2 SEB\xe2\x80\xa2 SevenDay\xe2\x80\xa2 Shell MasterCard\xe2\x80\xa2 SJ Prio MasterCard\xe2\x80\xa2 Skandiabanken\xe2\x80\xa2 Skodakortet\xe2\x80\xa2 Sparbanken Syd\xe2\x80\xa2 Sparbanken \xc3\x96resund\xe2\x80\xa2 Statoil Mastercard\xe2\x80\xa2 Svenska Spel\xe2\x80\xa2 Swedbank\xe2\x80\xa2 Ticket Rikskortet\xe2\x80\xa2 Villabanken\xe2\x80\xa2 Volkswagenkortet\xe2\x80\xa2 Volvofinans\xe2\x80\xa2 V\xc3\xa4sttrafik\xe2\x80\xa2 wallet MasterCardThe following banks require a certificate or a "bankdosa" to log in and are therefore not supported by Bankdroid:\xe2\x80\xa2 MoneybookersApp2SD and widgets don\'t work well together and thus it won\'t be possible to install Bankdroid to external storage. More info at the Android website: http://j.mp/cX62gtIf you have any feature suggestions or if your bank stops working please go to http://j.mp/bankdroid and describe the problem.Writing a comment on the Market WILL NOT get the problem fixed. All the bank information is contributed by users and your help is needed if you want bugs to be fixed quickly. Source code available at:http://j.mp/bankdroid_srcRecent changes:v1.9.5.4: (2013-04-28)* Fix for Rikslunchen (thanks to chrfle)* Fix for Audikortet (maybe)+ Support for TrustBuddy (thanks to Tuxie)+ Support for Brummer Privat KF (thanks to Tuxie)v1.9.5.3: (2013-04-02)* Fix for Skodakortet* Fix for Volvofinans transactions* Fix for reappearing Akelius Spar/invest accountsIf you experience any problems and want a quick fix please read "Saknas din bank eller har din bank slutat fungera?" at http://j.mp/bankdroid'
p4
tp5
tp6
.