((S'Title'
p0
S'Bass Booster - BETA '
p1
tp2
(S'Description:'
p3
S'**** This is a Beta-version****Most of the issues are due to Android itself and most likely the constructors\' interfaces like Sense, not the app ! It\'s virtually impossible to get this kind of app to work on every device !Bass Booster Pro is on launch sale ! You can buy it for 1,39$ only until Mai 15th !Check out our FAQ if you\'re experiencing issues or want more information : www.desaxed.com/faqYou\'ll find answers to these questions (among others) :What devices are compatible with Bass Booster ?How can I make Bass Booster more stable ?Why doesn\'t Bass Booster work on my phone ?\xc2\xa0How can I reduce battery consumption ?Why doesn\'t Bass Booster work any more after an update ?Why does the equalizer only have 5 or 6 bands ?How can I quit Bass Booster ?Features :  - Bass Booster - 6 Bands Equalizer (5 on some phones) - 20 Presets (More Basses, Improve quality, Electro, Techno, Dubstep, Dance, Pop, Rock, Metal, Reggae, Rap, R&B, Hip-Hop, Jazz, Latino, Acoustic, Classical, Party, Voice Booster, Volume Booster) - 1 customizable presetPresets Details :   The Volume Booster preset allow you to boost your volume by +10 dB.   The Improve Quality preset get the best of your small or cheap audio devices.   The Custom preset can be saved and modified.If the new update isn\'t working anymore for you, you can download older versions here :www.desaxed.com/bass-boosterDisclaimer : We are not responsible for anything that might happen to your phone, your audio device or yourself ! Do not listen at full volume or with bass boost for too long. This app can damage your devices or hearing. Use it wisely !By downloading this application, you accept that in no case we could be held responsible for any kind of damage resulting of the use of this app in any way.This software is provided by the copyright holders and contributors "as is" and any express or implied warranties, including, but not limited to, the implied warranties of merchantability and fitness for a particular purpose are disclaimed. In no event shall the copyright owner or contributors be liable for any direct, indirect, incidental, special, exemplary, or consequential damages (including, but not limited to, procurement of substitute goods or services; loss of use, data, or profits; or business interruption) however caused and on any theory of liability, whether in contract, strict liability, or tort (including negligence or otherwise) arising in any way out of the use of this software, even if advised of the possibility of such damage.Thanks to Svengraph for the headphones : http://svengraph.deviantart.com/Recent changes:Version 2.0 : - New design and icon - Improved battery consumption - Improved presets - Better action bar/Jelly Bean support - Frequently Asked Questions - Bug fixesPro only : - Virtualizer - Unlimited presets - Homescreen Widget (2x1) - Preset autodetection - Preset on call/sms/conversation - Homescreen quick config shortcut - Themes - Option for decimal dB - Reverb effect (Beta!)'
p4
tp5
tp6
.