((S'Title'
p0
S'Battery Saver Du&Switch Widget '
p1
tp2
(S'Description:'
p3
S'Du Battery Saver would dispel your worry of the dying battery and free you out of the life tangled by cables! Why not just take a FREE try for several days? You deserve a prolonged battery! __OUR LATEST INNOVATION: PROUDLY UPGRADE to V2.0__! More than "10" NEW FEATUREs!====Thank YOU! We\'re Moving on, with YOU!====\xe2\x98\x85\xe2\x98\x85\xe2\x98\x85\xe2\x98\x85\xe2\x98\x85"I absolutely love this battery app...the excellent features and how it let you know about how long you suppose to let your battery charge for healthy battery." -Renata\xe2\x98\x85\xe2\x98\x85\xe2\x98\x85\xe2\x98\x85\xe2\x98\x85 "Have had it on my SIII for three days and works even better than I expected." -EagleEye==MAJOR New Features==1. Revolutionary UI design of main page 2. Brand new reform of those smart Widgets3. Whole refactor of Settings page4. One-key Diagnostic & Auto optimization upon the result5. More manual optimization offered after diagnostic==Classic FREE features==\xe2\x9c\x943 new powerful battery Widget s:   - One-tap optimizer (task killer widget)  - NEW designed battery display & mode switch  - premium ON/OFF switches;  It\'s an easy battery saver by using one-tap battery widget, and extend 15% more usage time by switching battery saving modes, also go with one-tap power widget. \xe2\x9c\x94 Optimizing your battery use in 3 preset Modes:  - General Mode(Basic network function opened, meet normal battery saving needs); - Long Standby (Close all except dialing and SMS, prolong battery to the longest standby time); - Sleep Mode(Close all except clock, save battery a lot while sleeping);\xe2\x9c\x94 Customize your own mode, setup whatever you prefer and find out the most suitable one! \xe2\x9c\x94 Battery indicator, Battery Level in % in Status Bar, will turn to RED when < 20%;\xe2\x9c\x94 Estimated report of the remaining time; \xe2\x9c\x94 Ringtone reminder for different battery status;  Always be a close secretary (or juice defender), reminding you to save more juice and have a 2x battery usage time.\xe2\x9c\x94 Most detailed analysis of power consumption, not just apps, but also the hardwares (CPU, screen, sensor, WiFi, radio), the most professional battery monitor (battery notifier) so far;==Advanced FREE functions==\xe2\x98\x85 One-Key diagnostic, a unbelievable foolproof way of battery saving.\xe2\x98\x85 Healthy charging to extend battery life. (e.g. hints for charging or de-plugging the charger).  - launch Du Battery Saver to start charging when battery lower than 20%.  - At least 1 healthy charge to extend battery life .==Get PRO Funcs In-APP for==\xe2\x98\x85 Intelligent mode-switching: e.g.  - adjusted to Long Standby on low battery level;  - go into your preset mode according to your schedule;\xe2\x98\x85 Regularly closing power-draining tasks;  - Set the interval of background tasks cleaning;  - Need to leave some apps running background? Add them into ignore list.\xe2\x98\x85 Slow down CPU during screenlock; (ROOT devices only);\xe2\x98\x86Unlike other battery saving app, Du Battery Saver provides a professional method of battery management by analyzing the power consumption of all the hardware modules, and above all, intelligent tools would be provided for extend battery usage. As a battery saver (a.k.a. battery booster / battery improver), it excels its peers!Please like us at: http://www.facebook.com/DuBatterySaveror follow us at: twitter.com/DXBatteryProblems? Contact us: dianxzt@gmail.comPlease send us email, not just leave comment, so that we can reach you for assistance.Recent changes:Add: German, Spainish supportFix: Display error in charging recordOptimize: Statistic of hardware battery usage****2.0 New Feature****Revolutionary UI design of main page Brand new reform of those smart WidgetsWhole refactor of Settings pageOne-key Diagnostic & Auto optimization upon the resultMore manual optimization offered after diagnostic'
p4
tp5
tp6
.