((S'Title'
p0
S'bdBuzz : BD Comics Manga '
p1
tp2
(S'Description:'
p3
S"Utiliser bdBuzz, c'est choisir l'appli BD, Comics et Mangas la plus compl\xc3\xa8te : le plus grand store de BD num\xc3\xa9rique, la meilleure appli de gestion de collection, un lecteur de BD num\xc3\xa9rique hyper performant et toutes les derni\xc3\xa8res news r\xc3\xa9unis en un seul endroit !!! D\xc3\xa9couvrez le plus grand catalogue de BD num\xc3\xa9riques francophones avec tous les plus grands succ\xc3\xa8s (XIII, Largo Winch, Bob et Bobette, Thorgal, Blake et Mortimer, Lucky Luke, Spirou, Alter Ego, l'Irlandaise...) et un album gratuit offert chaque semaine.bdBuzz c'est toujours la seule application qui permet de g\xc3\xa9rer toute sa collection BD (BD, mangas, comics, albums papiers classiques et num\xc3\xa9riques), ses pr\xc3\xaats, sa wishlist et ses achats. Utiliser bdBuzz, c\xe2\x80\x99est acc\xc3\xa9der au plus grand catalogue de BD francophone (papier et num\xc3\xa9rique). Acheter, lire, g\xc3\xa9rer et sauvegarder toute sa collection BD papier et num\xc3\xa9rique : tout se fait directement depuis l\xe2\x80\x99application. Nouveaut\xc3\xa9s : Tout le catalogue bdBuzz (Plus de 2500 titres) d\xc3\xa9sormais aussi disponible sur smartphones Android.Une cat\xc3\xa9gorie albums t\xc3\xa9l\xc3\xa9charg\xc3\xa9s pour g\xc3\xa9rer encore plus facilement sa collection de BDs num\xc3\xa9riques.Qu\xe2\x80\x99est ce qui fait la diff\xc3\xa9rence : -Le plus grand catalogue de BD num\xc3\xa9rique francophone qui s\xe2\x80\x99enrichit tous les mois des derni\xc3\xa8res nouveaut\xc3\xa9s : d\xc3\xa9j\xc3\xa0 plus de 2500 albums num\xc3\xa9riques dont les plus grand succ\xc3\xa8s (XIII, Largo Winch, Bob et Bobette, Thorgal, Blake et Mortimer, Lucky Luke, l'Irlandaise...). Les BD num\xc3\xa9riques achet\xc3\xa9es sur smartphone ou tablette sont automatiquement disponibles \xc3\xa0 la lecture sur notre site web.-Un lecteur de BD num\xc3\xa9rique innovant pour une exp\xc3\xa9rience de lecture unique. -Chaque mois, de nouveaux \xc3\xa9diteurs choisissent bdBuzz pour la distribution de leur BD num\xc3\xa9rique. C'est la garantie de toujours avoir acc\xc3\xa8s au plus grand et au meilleur contenu de BD num\xc3\xa9rique.-plusieurs dizaines de milliers d\xe2\x80\x99albums papiers disponibles. -La seule application qui permet de g\xc3\xa9rer toute sa collection BD (BD, mangas, comics, albums papiers classiques et num\xc3\xa9riques), ses pr\xc3\xaats, sa wishlist et ses achats. -bdMe, (option 0,79 euros) qui permet d\xe2\x80\x99\xc3\xaatre inform\xc3\xa9 de toutes les nouveaut\xc3\xa9s de sa collection et de ses auteurs pr\xc3\xa9f\xc3\xa9r\xc3\xa9s ainsi que d\xe2\x80\x99\xc3\xaatre averti des prochaines sorties des s\xc3\xa9ries que l\xe2\x80\x99on souhaite suivre, de synchroniser sa collection entre ses \xc3\xa9quipements et de la sauvegarder online. -Le scan du code barre, permet d\xe2\x80\x99ajouter rapidement tous ses albums \xc3\xa0 sa collection. -La sauvegarde de la collection directement depuis son smartphone ou sa tablette, en cas de perte, pas de panique la restauration est facile et rapide. -Tout savoir sur la BD : les derni\xc3\xa8res news, les extraits des prochaines sorties BD, les bandes annonces, les BD qui font le buzz, tout est sur bdBuzz.bdBuzz est votre application BD, de nombreuses nouveaut\xc3\xa9s et \xc3\xa9volutions vont arriver tr\xc3\xa8s vite !! N'h\xc3\xa9sitez pas \xc3\xa0 nous faire conna\xc3\xaetre vos suggestions, difficult\xc3\xa9s ou questions. email : info@bdbuzz.net.Recent changes:Version 3.046 :- Correction de bug Version 3.04 :- Corrections de bugs (player, interface)Version 3.00 :- Nouvelles interfaces- import / export de base entre appareil android- Option payante bdMe (synchro multi appareil, suivi de serie...)- Corrections de bugs- Optimisation- Catalogue bdBuzz numerique complet- Version mixte tablette et telephone- Player : ajout de la lecture par tiers- Player : ajout du decoupage de marges"
p4
tp5
tp6
.