((S'Title'
p0
S'BeFunky Photo Editor '
p1
tp2
(S'Description:'
p3
S"Crazy but true: One of the most popular photo editors just got even better! BeFunky is the app that leaves all creative control with YOU while keeping everything super easy to use. It has TONS of effects you won\xe2\x80\x99t find anywhere else, and now you can even add text to your pictures! Stack an UNLIMITED number of effects and edits to create a look that\xe2\x80\x99s as unique as you are, or use one of the many we built just for you!No registration is required to use BeFunky, and there are NO ADS, no watermarks, no limitations, and no forcing to share. BeFunky was made with you in mind, so it's exactly the way you want it to be.\xe2\x9c\xadWHY YOU\xe2\x80\x99LL LOVE IT\xe2\x9c\xad-It has tons of effects that aren\xe2\x80\x99t offered anywhere else!-Apply unlimited effects and edits to pictures, while controlling the amount of each.-Changed your mind? No worries, you can undo effects and edits too.-Each picture can be either public or private.-The BeFunky Gallery rocks. Easily find the best pictures of what you love and help make them popular!-It couldn\xe2\x80\x99t be easier to use!\xe2\x9c\xadAMAZING EFFECTS\xe2\x9c\xadOver 29 free effects included: Vintage, Pop Art, Grunge, Viewfinder, DuoTone, Toy Camera, Sketch, Tilt Shift, Instant, Old Photo, Cross Process, Cyanotype, Gritty HDR, Pinhole, Orton, and many more.\xe2\x9c\xadPOWERFUL EDITING TOOLS\xe2\x9c\xadCrop, straighten, rotate, sharpen, and add vignetting to any photo. Special features like beautify and fill light are there for you too. And as always tools for exposure, hue, saturation, etc., are included.\xe2\x9c\xadNEW: ADD TEXT TO PHOTOS\xe2\x9c\xadBeFunky now has a text section! Choose from tons of fonts, colors, and backgrounds!\xe2\x9c\xadMARVELOUS PHOTO FRAMES\xe2\x9c\xadChoose from Instant, Filmstrip, Halftone, Grunge, Classic frames, and more.\xe2\x9c\xadSHARE PHOTOS INSTANTLY\xe2\x9c\xadSimultaneously save to the BeFunky Gallery, Facebook, Twitter, Flickr, Tumblr, and your Camera Roll. All this happens in the background so can move on with your life!\xe2\x9c\xadNEW: CATEGORIES IN THE GALLERY\xe2\x9c\xadChoose from any number of categories to see your favorite types of pictures! Subscribe to them and those pictures show up in your customizable stream.\xe2\x9c\xadMAKE YOUR FAVORITE PHOTOS POPULAR\xe2\x9c\xadPhotos in the gallery get points, and YOU have the power to help photos become popular!Recent changes:- Important Facebook Connect Bug Fix- Multi-Language Support - Performance Improvements and Bug Fixes"
p4
tp5
tp6
.