((S'Title'
p0
S'beIN SPORT '
p1
tp2
(S'Description:'
p3
S"T\xc3\xa9l\xc3\xa9chargez gratuitement l'application beIN SPORT disponible sur mobiles et tablettes. Cette nouvelle version vous propose :- Le DIRECT des \xc3\xa9missions en clair (L'expresso, Le club...)- La GRILLE DES PROGRAMMES- Toute l'ACTUALITE sportive en images et vid\xc3\xa9o- Les meilleurs moments de nos \xc3\xa9missions : interviews, coaching, reportages, analyses, et la s\xc3\xa9rie Objectif Ligue 1 ... Restez connect\xc3\xa9s, l'application s'enrichira au fil des semaines !Recent changes:Am\xc3\xa9liorations de la stabilit\xc3\xa9"
p4
tp5
tp6
.