((S'Title'
p0
S'B-Forever Love GO Locker Theme '
p1
tp2
(S'Description:'
p3
S"GO lock screen theme of a love-filled Valentine's Day together to feel the romantic atmosphere of Valentine's Day\xe3\x80\x82Specially designed for GO Launcher EX. Want an extreme makeover for your phones?Try it now!Notice1. Please make sure you have installed GO Launcher EX V2.58 and GO Locker V1.12 or above. 2. Click Menu>Plugins>GO Locker, choose a theme you like and apply it to your phone.Thank you for your continued support. Any advice or suggestion is appreciated. Feel free to contact us if you have any problems or suggestions."
p4
tp5
tp6
.