((S'Title'
p0
S'Bible KJV '
p1
tp2
(S'Description:'
p3
S'-KJV Bible offline-Book/Chapter/Verse locate-Bookmark-Share-Search-Online Search Engine-Auto start-3 yrs daily read plan-favorite-Red Letter-Speaking/Reading-user friendly navigation and verse locatingu23 -fix search result order-fix to keep search result for screen change-add touch scroll(fling/swipe)u24-larger font -support for 3.0 device-change drop-down list text color (particuarly  for some motorola devices)-save settings :) hope it works-minr fix for daily reading for 2012-1-7u25the "exit/back" button is back and improvedsave to sd-card for system 2.2 or lateru26 fix the crash :)fix font-dialog minor bugremove adfree detectorfix swipe minor erroru27**improved local search**rearrange some ui buttonsfix font-size dialog bugfix startup failure fix daily reading  minor bugothersu28-remember scroll position-fix search error that some books are not indexed( try search the word \'witchcraft\' in 1 Sam 15:23,  if you can\'t find it, pls update)u29-add text-to-speech, you can listen to the verses now-other minor improvementsu30-make tts an option for those don\'t needd or want TTS feature-bring the lacate button back in front panelu31 -fix tts crash-continue reading when screen orientation change-keep screen on for daily reading tts-change default verse per page to whole chapter-change default font to large system font sizeu32-fix titles for context menu-list fast scroll -read a little bit slower-remove "return" buttons-add horizontal layout for daily reading selection and verse quick location-listview item style-even more large font size -many minor improvements-internal impromentsu33-Keep Search History-Fix TTS on ICS-other minor improvementsupdate 34-Fixed menu bug on android 3.0 and above devices-Fixed bookmark and favorite lists minor bug-Fixed some possible causes for Application Not Responding error-removed verses per pages optionupdate 35Fixed empty locator list errorFixed Locator Crash errorFixed Search Crash with *started search criteriaupdate 36Red letters in bookmark, favorite and daily readingChange the green label to orangeFix search minor errorupdate37 add context menu for search historyfix return button in search result listadd color for bookmark tagfix minor daily reading plan bugA simple, powerful design will enable you to easily read the KJV Bible, navigate, search,share(through Facebook, twitter, Gmail goolge+, email, sms, evernote, bluetooth,ColorNote,Messaging, Yahoo Mail and many others), highlight verses, bookmark, make/copy/paste notes.  any problem pls email me!Recent changes:keyword:  bible kjv androidadd search history context menu for delete and clear actionsfix return button\'s function in search result listadd color for bookmark tagfix minor daily reading plan bug'
p4
tp5
tp6
.