((S'Title'
p0
S'BIDI: lector QR y cod. barras '
p1
tp2
(S'Description:'
p3
S'Lector de c\xc3\xb3digos QR y de barras. Lee con la c\xc3\xa1mara de tu m\xc3\xb3vil c\xc3\xb3digos 1D y 2D en cualquier lugar. Consigue contenidos especiales, informaci\xc3\xb3n nutricional para el consumidor o datos de alergias de cualquier producto.MEN\xc3\x9a PRINCIPAL: El men\xc3\xba principal se convierte en tu panel de control para que puedas acceder desde ah\xc3\xad y de una forma sencilla a todas las funcionalidades de la aplicaci\xc3\xb3n. Simplemente haz click en el centro de la pantalla \xe2\x80\x9cEscanear\xe2\x80\x9d. Si quieres que la aplicaci\xc3\xb3n abra directamente el esc\xc3\xa1ner, lo puedes configurar as\xc3\xad en la secci\xc3\xb3n M\xc3\xa1s\xe2\x80\x9d activando \xe2\x80\x9cInicio en esc\xc3\xa1ner\xe2\x80\x9d.INTEGRACI\xc3\x93N CON FACEBOOK: -Conexi\xc3\xb3n usando tu cuenta de Facebook, lo que te permitir\xc3\xa1 publicar tus escaneos favoritos en tu p\xc3\xa1gina de Facebook. Una estupenda forma de volver a verlos m\xc3\xa1s tarde.-Invita a tus amigos de Facebook a que se unan tambi\xc3\xa9n a BIDI.MIS ESCANEOS Y COMPARTIRLOS:\xc2\xbfQuieres ver algo que ya has escaneado? Ahora puedes hacerlo en cualquier momento haciendo click en cualquiera de los escaneos realizados y volver\xc3\xa1s a ver el contenido y podr\xc3\xa1s compartirlo en Factbook, Twister o por email.PERSONALIZA TU PANTALLA DE ESCANEO:Personaliza tu experiencia y personaliza tu pantalla de escaneo desde la m\xc3\xa1s cl\xc3\xa1sica hasta el Jet Fighter.QR CARD-CREA TUS PROPIO C\xc3\x93DIGO QR:Crea tu propio c\xc3\xb3digo para que puedas compartir tus datos de contacto m\xc3\xa1s f\xc3\xa1cil y r\xc3\xa1pidamente. S\xc3\xb3lo tienes que introducir los datos y mostrarles a los dem\xc3\xa1s tu c\xc3\xb3digo para que lo escaneen y guarden tu contacto. Puedes crear m\xc3\xa1s c\xc3\xb3digos en http://www.bidi.esM\xc3\x81S:En esta secci\xc3\xb3n podr\xc3\xa1s personalizar tu experiencia con BIDI, ya que te permite: activar o desactivar el sonido al escanear, iniciar la aplicaci\xc3\xb3n directamente en el modo de escaneo, mostrar la url de destino antes de de abrir la p\xc3\xa1gina a la que te lleva el c\xc3\xb3digo, personalizar la pantalla de escaneo.eScan, AECOC, GS1Recent changes:- F\xc3\xa1cil sincronizaci\xc3\xb3n de tus escaneos favoritos en tu p\xc3\xa1gina de Facebook.- Permite compartir r\xc3\xa1pidamente lo que has escaneado.- Invitar a tus amigos de Facebook a que se unan a BIDI y as\xc3\xad podr\xc3\xa1n compartir tambi\xc3\xa9n sus escaneos.- "Escaneo" de im\xc3\xa1genes de c\xc3\xb3digos QR o de c\xc3\xb3digos de barras de productos guardados en tu galer\xc3\xada de im\xc3\xa1genes.'
p4
tp5
tp6
.