((S'Title'
p0
S'Binaural beats therapy - beta '
p1
tp2
(S'Description:'
p3
S"Binaural beats stimulates your brain by sending special auditory artifacts directly into your headphones to produce subtle changes in behavior though entraiment of brainwaves frequency.This app can help induce relaxation, creativity and many other desirable mental states.*WARNING*Binaural beats are very powerful and new presets must be experienced carefully, in a safe environment. But rest assured, I have been using binaural tones for a few years now with great success and without any concern.This application is 100% free and open source as a way to give back and create a large community of users, enjoy!*Getting involved*Anyone can participate and make this app better, I am looking for people to help on graphics, sounds, tone presets, documentation, video tutorial, ideas as well as developers!Please join the community at http://on.fb.me/lBDvPKSource code on github: http://bit.ly/BBeatsNow automatically pause and resume if a phone call arrives.This is why PHONE_STATE permissions are required. The app doesn't have internet access so there's no chance of sniffing numbers.I cannot reply to review comments because there is no way to do it, so please email me any feedback. I reply to all well-written feedback.Recent changes:Now automatically pause and resume if a phone call arrives.This is why PHONE_STATE permissions are required. The app doesn't have internet access so there's no chance of sniffing numbers."
p4
tp5
tp6
.