((S'Title'
p0
S'Black Butler SMS Ringtones '
p1
tp2
(S'Description:'
p3
S'Do you like Black Butler? This ringtone app integrates the theme of background music and sound in Black Butler. These Black Butler background music are very popular. You will find your favorite, you can set your ringtone, SMS tones, you can set up your classification contacts.Feature-- set phone ringtones-- set notification ringtones-- save to sd card or  Internal phone storageIf bug exists, please tell us (E-mail), we will fix it as soon as possible. Thank you very much for your support!'
p4
tp5
tp6
.