((S'Title'
p0
S'Bookmarks Widget '
p1
tp2
(S'Description:'
p3
S'\xe2\x98\x85\xe2\x98\x85\xe2\x98\x85\xe2\x98\x85\xe2\x98\x85 \xe2\x80\x9cI Like how my bookmarks are right on my home screens. Launcher pro.\xe2\x80\x9d View your favorite bookmarks from your saved sites on your phone\xe2\x80\x99s home screen without ever launching Dolphin Browser\xef\xbc\x88Formerly Dolphin Browser HD\xef\xbc\x89. With Bookmarks Widget , you can:-\tSort and re-order bookmarks to customize favorites-\tQuick access your favorite websites just on your home screen. -\tAvailable in 2x2 or 2x3 formats. -\tSync your bookmarks, websites across any platform with Dolphin Connect and then access them right on your mobile home screen. Bookmarks Widget for Dolphin is an exclusive Add-on for Dolphin Browser\xef\xbc\x88Formerly Dolphin Browser HD\xef\xbc\x89. Just search \xe2\x80\x9cDolphin Browser \xe2\x80\x9d in Android Market or download here: http://bit.ly/D-AndroidWhat is an Add-on?Beef up your Dolphin Browser\xef\xbc\x88Formerly Dolphin Browser HD\xef\xbc\x89 by installing your favorite Add-ons. Similar to a desktop Plug-in, each Add-on will provides additional functionality on mobile device. Forgot password? Password Manager can help. Want a new look for your Dolphin? Download Shiny Shake to change colors. Want to read a webpage in French? Get Dolphin Translate. Click here to learn more: http://bit.ly/AndroidAdd-onListOther popular Dolphin Add-ons:\xe2\x80\xa2 Bookmark to SD\xe2\x80\xa2 Dolphin YouTube Search\xe2\x80\xa2 Web to PDF\xe2\x80\xa2 Dolphin Google Services\xe2\x80\xa2 Dolphin Screen CutJoin the Dolphin community!Facebook: http://www.facebook.com/DolphinFans Twitter: https://twitter.com/DolphinBrowserAny further suggestions, please contact at support@dolphin-browser.com.Recent changes:Privide 2X4,3X4,4X4 widget size in Android 2.1,Android 2.2 and Android 2.3,but in Android 4.0 and Android 4.1 you can drag widget size by yourself.'
p4
tp5
tp6
.