((S'Title'
p0
S'Bright Camera for Facebook '
p1
tp2
(S'Description:'
p3
S'With Bright Camera, you can create and share you attractive selfie on Facebook simple and easy. Get notified when friends like and comment on your selfie and see friends\xe2\x80\x99 latest photos in one place.Bright Camera free app is: Facebook photo feed, android photo gallery, advanced camera for selfie, photo portrait editor and Facebook photo uploader, Facebook birthday calender and remainder.Android photo gallery features:\xe2\x98\x85 Instagram and Facebook photo downloader with beauty camera effects\xe2\x98\x85 Photo gallery organizer viewing photo calendar\xe2\x98\x85 Easy photo sharing using Facebook, Instagram, WeChat, Whatsapp, CacaoTalk, Google+, Twitter, Weibo, Renren, Wretch, Kaixin, Qzone, Odnoklassniki, Vkontakte, Mixi, CyWorld, Pick, Douban or any appsAdvanced camera features:\xe2\x98\x85 Try features portraits: self timer camera, silent camera, anti shake camera and flashlightPhoto portrait editor features:\xe2\x98\x85 Beautification & makeup: lighten, whiten and smoothing skin in one touch\xe2\x98\x85 Beauty camera photo effects: like a sound of vanilla music, pastel themes, neon lights and bokeh effects for pictures\xe2\x98\x85 Highlight camera options with backlight, blur effect, violet light, azure blue, pink and coral vignette camera effects, pixel art or mosaic picture effect, lamp light, monochrome photo effect\xe2\x98\x85 Glow photo filters: sweet hearts, light rays of love, disco light, stars of love, bubble pop, diamond hearts, space effects and shining stars\xe2\x98\x85 Love quotes and sayings in beautiful photo frames: I love you, I love U, Together forever, You color my world, Good morning, Good night, happy birthday, sweet dreams, diamond hearts as picture in picture and gangnam style\xe2\x98\x85 Crop photos, rotate screen with a photo, zoom camera and mirror camera options\xe2\x98\x85 Write text on photosNever forget your Facebook friends\' birthdays again!* Funny birthdays cards* Easily message your Facebook friends and wish them "Happy Birthday"* Birthday\xe2\x80\x99s calendar and the list of your friends\' birthdays for upcoming year* Daily remainder about your Facebook friends\' birthdays* Import birthdays from Facebook\xe2\x98\x85 App supports Android versions from 2.3 to 4.2\xe2\x98\x85 Tested on Samsung Galaxy S2, Samsung Galaxy S3 Samsung Galaxy S3 mini, Samsung Galaxy Note,Samsung Galaxy Note 2,Samsung Galaxy Y, Samsung Galaxy Tab 2, Samsung Galaxy Ace, Samsung Galaxy S, Samsung Galaxy S Advance, Samsung Galaxy S Plus, HTC One X, HTC Sense, HTC Desire HD, HTC Evo 4G, HTC Incredible S, LG Motion 4G, LG Optimus, ZTE N860, Nexus 7, Sony Ericsson Xperia Arc S, Sony Ericsson Xperia S, Sony Xperia U and works well on other android phones.Keywords: photo editor, photo effects, photo filters, photo frames, Facebook photo uploader, Facebook photo downloader, Facebook photo feed, Facebook home profile, Facebook albums, Facebook birthday card, bithday kards, berthday, calender, remainder,'
p4
tp5
tp6
.