((S'Title'
p0
S'Browse Faster for Dolphin '
p1
tp2
(S'Description:'
p3
S'\xe2\x98\x85\xe2\x98\x85\xe2\x98\x85\xe2\x98\x85\xe2\x98\x85 \xe2\x80\x9cWorks great. I can definitely browse faster on Dolphin than using stock browser. I have found my new Internet browser. A+ Milestone\xe2\x80\x9dSpeed up your browsing experience by killing all other working applications on your phone with just one click. With Browse Faster for Dolphin, you can save battery life and enable faster browsing.Dolphin Browse Faster is an exclusive Add-on for Dolphin Browser\xef\xbc\x88Formerly Dolphin Browser HD\xef\xbc\x89. Just search \xe2\x80\x9cDolphin Browser \xe2\x80\x9d in Android Market or download here: http://bit.ly/D-AndroidWhat is an Add-on?Beef up your Dolphin Browser\xef\xbc\x88Formerly Dolphin Browser HD\xef\xbc\x89 by installing your favorite Add-ons. Similar to a desktop Plug-in, each Add-on will provides additional functionality on mobile device. Forgot password? Password Manager can help. Want a new look for your Dolphin? Download Shiny Shake to change colors. Want to read a webpage in French? Get Dolphin Translate. Click here to learn more: http://bit.ly/AndroidAdd-onListOther popular Dolphin Add-ons:\xe2\x80\xa2 Bookmark to SD\xe2\x80\xa2 Dolphin YouTube Search\xe2\x80\xa2 Web to PDF\xe2\x80\xa2 Dolphin Google Services\xe2\x80\xa2 Dolphin Screen CutJoin the Dolphin community!Facebook: http://www.facebook.com/DolphinFans Twitter: https://twitter.com/DolphinBrowserAny further suggestions, please contact at support@dolphin-browser.com.Recent changes:Update the app UI'
p4
tp5
tp6
.