((S'Title'
p0
S'BubbleUPnP '
p1
tp2
(S'Description:'
p3
S'BubbleUPnP is a full featured UPnP/DLNA Control Point,  UPnP Media Renderer and UPnP Media Server. Play easily your music, videos and images on your phone and devices on your network (DLNA TVs, XBMC, WMP, ...), from your external UPnP Media Servers. Play your phone/tablet media to those devices.Browse and play your local phone/tablet media from other devices (PS3, ...). BubbleUPnP can also be used as a standalone music player, even without any network connection.Free version has some limitations (see end of this description) that can be removed by purchasing the BubbleUPnP License app.Optional Internet Streaming:More than just regular LAN streaming, BubbleUPnP offer the unique feature to stream efficiently your media via the Internet over a mobile or WiFi connection. Internet streaming requires installing server software "BubbleUPnP Server" running on Windows, MacOS X, Linux or a NAS (it is not required for regular LAN streaming, see NOTE below). To learn more about BubbleUPnP Server and Internet streaming visit http://www.bubblesoftapps.com/bubbleupnpserverNOTE: YOU DO NOT NEED TO INSTALL BUBBLEUPNP SERVER FOR REGULAR UPNP/DLNA LAN STREAMING.Please submit any feedback and issues on http://forum.xda-developers.com/showthread.php?t=1118891. For issues you can contact me directly as there is no way I can contact you with Market comments.Features:- Tablet, ICS, GoogleTV support, landscape mode- stream music and videos from your UPnP/DLNA Media Server (Twonky, Asset UPnP, any NAS with UPnP, ...) to your Android device.- Codecs supported for audio local playback: with system decoders: MP3, AAC (without DRM), WMA, Ogg Vorbis. With app\'s own decoders: WAV, FLAC, ALAC, LPCM. Samplerates > 48Khz and 24 bits supported for FLAC, WAV. - Video playback is delegated to an external app (VPlayer, MoboPlayer, DICE Player,...)- stream music/videos from your UPnP/DLNA Media Server to your UPnP renderers with regular playback controls (play, pause, seek, volume, ...). - UPnP Media Server: play your local phone/tablet media to other devices or to your Android device (standalone media player). Browse and play your local phone/tablet media from other devices (PS3, WMP, ...). Able to browse the SD Card. Google Music and Dropbox streaming supported- UPnP renderer: control media playback of your android device from another UPnP Control point- Internet streaming/downloading over a mobile or WiFi connection with BubbleUPnP Server- UPnP tethering with BubbleUPnP Server (makes Media Servers from a LAN visible on another LAN)- Download tracks, full albums and videos from your Media Server to your android device (with covers if available), to make them available in your favorite Android music and media player- can play additional media to renderer through 3rd party apps: shoutcast radio (XiiaLive), youtube, dailymotion,... (semperVidLinks)- Gallery-like image viewer- Mute / Repeat / Shuffle- Editable playlist to queue tracks for playback- Fully editable saved playlists- Shuffle Playlist- Shuffle Library (shuffle tracks from your entire Media Server)- Scrobbling support- Sleep Timer- Display album art- Display artist info from Last.fm (requires Last.fm app)- Powerful UPnP Search. Search for tracks, albums, artists and videos (exact support depends on Media Server)- Bookmarks. Access quickly albums and folders- Random track list generation. Discover forgotten gems in your Library- Multiple selection. swipe many items to apply a common operationBubbleUPnP free version limitations:- ads- Internet streaming with BubbleUPnP Server is limited to 30 minutes per app launch- Playlist and Library Shuffle are limited to 16 tracks- downloads limited to batches of maximum 40 tracks- the local renderer is remotely controllable by external Control Points for 30 mins per app launch- the local Media Server is not browsable by filesystem (SD Card)- playing media from external apps is limited to 3 plays per app launchRecent changes:- transcoded videos enhancements with BubbleUPnP Server 0.6.5 (preserve subtitles, audio/video track selection, download support)- exit button in rich JB notification- Google Music auto playlists: "Thumbs up" and "Last added"- better local folder search- setting to display Now Playing on play actions in Library- added instructions for playing tunein radios from web browser- many other fixes and tweaksFull changelog: http://forum.xda-developers.com/showpost.php?p=40920720&postcount=3174'
p4
tp5
tp6
.