((S'Title'
p0
S'Business Card Reader Lite '
p1
tp2
(S'Description:'
p3
S"ABBYY Business Card Reader is a timesaving app that makes it effortless to enter and manage your contacts. With ABBYY Business Card Reader you can:- Instantly transfer business card data in 20 languages right onto your smartphone- Save contacts in the CardHolder, a special archive with convenient search, sorting and grouping functionality- Share contact data via e-mail, SMS or WiFi (thanks to the wireless communication technology AllJoyn from Qualcomm)- Transfer contacts to another smartphone or computer.This is a Lite version: Data from First Name, Last Name, and the first detected Phone field is saved to the Contacts. Facebook search option is available in this version.  You can buy the full version on the Android Market.System requirements: OS Android version 2.1 and higher, camera with auto focus.MAIN FEATURES: \xe2\x9c\x93 Forget having to manually enter contact details into your smartphone. Unsurpassed data recognition and speed, eliminate having to correct or re-key data, making creating new contacts easy and automatic. \xe2\x9c\x93 Quickly find the contact you need. So CardHolder, the app's archive, provides convenient business card search, sorting and grouping functionality. So you can quickly and easily find the information you need. \xe2\x9c\x93 Always have your contacts secured. Archive and restore data from saved business cards to transfer to another smartphone or computer. \xe2\x9c\x93 Share contacts with others on the fly. Exchange recognized business cards via e-mail or SMS in convenient formats: text, image or *.vcf. \xe2\x9c\x93 Find your colleagues and friends in social networks. Find out more about your new contact on the most popular social networks such as Linkedln*, Facebook and Twitter* instantly! \xe2\x9c\x93 Recognize your contact and instantly find the addresses. Search in Maps* for the address of your contact with just one tap, directly in Business Card Reader. \xe2\x9c\x93 Quickly verify recognition results. Insecure characters are highlighted to help you quickly check the recognition results. \xe2\x9c\x93 Recognizes business cards in 20 languages, including multilingual cards: -Danish -English -Estonian -Finnish -German -Greek -Indonesian -Italian -Korean -Norwegian (both Bokmal and Nynorsk) -Polish -Portuguese -Portuguese (Brazilian) -Russian -Spanish -Swedish -UkrainianFOLLOW US on Twitter http://twitter.com/ABBYY_MobileABBYY Mobile on Facebook: http://facebook.com/AbbyyMobileDistributive size is 25 MB. The installed application requires 30 MB.During installation the application may require up to 40 MB of free space on the internal storage.*available in full version onlybusiness cards, bizcard reader, business card scanner, BCR software, biz card, contact, group, BCR, Business Card Reader, business cards, business card scanner, scan, scan card, card recognitionRecent changes:* Supports AllJoyn, the device-to-device wireless communication technology from Qualcomm* Improved speed and quality of data capture with the new generation of Mobile OCR Engine* New CardHolder features: ability to select multiple business cards, move between groups and send data by e-mail"
p4
tp5
tp6
.