((S'Title'
p0
S'Buzz Launcher Beta '
p1
tp2
(S'Description:'
p3
S'Meet Homepack Buzz service with Buzz Launcher, you don\xe2\x80\x99t need for complicated settings! \xe2\x80\x9cBuzz Launcher is a new concept launcher which enables you to apply others\xe2\x80\x99 Homescreens to your own smartphone.  Download Homescreens best suited for your taste and preferences via Homepack Buzz Service. Homescreens will be applied instantly.  Don\xe2\x80\x99t you want to share your awesome Homescreen with others? Share it now! Friends all around the world will be excited to check out your Homescreen." ** Now Available on Google Nexus 7 **\xe2\x98\x85 MAIN CHARACTERISTICS \xe2\x98\x85\xe2\x80\xa2 Various Homescreens (10,000+) provided via Homepack Buzz Service\xe2\x80\xa2 Extremely simple implementation to your device within five seconds upon download.\xe2\x80\xa2 Multiple social features and easy Homescreens sharing via one-touch upload \xe2\x80\xa2 Compatible with \'Minimalistic Text\', \'Zooper Widget Pro\', \'Battery Widget Z\'\xe2\x80\xa2 Create your own Homescreen with various decorating features such as \xe2\x80\x9cMulti-wallpapers\xe2\x80\x9d and \xe2\x80\x9cMy Icons\xe2\x80\x9d. \xe2\x80\xa2 Try our Unique widget features- clock, date, battery widgets, and \xe2\x80\x9ccreate my own widget\xe2\x80\x9d feature provided via Buzz  Custom Widget.\xe2\x98\x85 KEY FEATURES \xe2\x98\x85\xe2\x80\xa2 MULTI-WALLPAPER SCREENyou can select different wallpaper images from your gallery for each screen\xe2\x80\xa2 MY ICONSan icon editing tool is provided so you can edit and resize icons on your own. Transparent icons are also supported (Theme icon pack is to be supported)\xe2\x80\xa2 MULTI-GRIDyou can designate different grids for each screen (up to 12x12)\xe2\x80\xa2 MANAGE FOLDERSyou can make folders in app drawers/Homescreen, modify folder image, and resize folders\xe2\x80\xa2 MANAGE APPSfeatures for viewing most frequently used apps, recently installed apps, and hiding apps\xe2\x80\xa2 MANAGE APP DRAWERSscreen concept is applied to app drawers so you can manage apps by screens\xe2\x80\xa2 GESTURE SUPPORTGlide up, Glide down, Double tap and more.\xe2\x80\xa2 Previewing is supported for various view settings\xe2\x98\x85 Buzz Custom Widget \xe2\x98\x85\xe2\x80\xa2 Download Buzz Custom Widget onto Buzz Launcher, so you can apply widgets of others and freely create widgets such as clocks, batteries, and calendars.\xe2\x80\xa2 Using this with Buzz Launcher will make decorating way more awesome\xe2\x80\xa2 http://goo.gl/WGqrf\xe2\x98\x85 Seamless Experience with 3rd Party Widget \xe2\x98\x85\xe2\x80\xa2 Our third-party partner widget is interfaced with Buzz Launcher so you don\xe2\x80\x99t need to put extra effort to use these beautiful widgets.  When you download a Homepack, the contained 3rd party partner widget will be auto applied just as our own widget.\xe2\x80\xa2 Buzz Launcher and our partner widgets are interfaced with each other and setting information is shared. Now you could also enjoy Minimalistic Text Widget, Zooper Widget Pro, Battery Widget Z with Buzz Launcher.   - Minimalistic Text Widget : http://goo.gl/Sw9PN - Zooper Widget Pro : http://goo.gl/gJ6vN - Battery Widget Z : http://goo.gl/CnRIO \xe2\x80\xa2 Please be our Best Friend - If you are interested to interface your widget with Buzz Launcher, please contact us! (catherine.chang@buzzpia.com)\xe2\x98\x85 Tips \xe2\x98\x85 \xe2\x80\xa2 Available from Android 4.0.3+ (ICS or Above) \xe2\x80\xa2 Many innovative features can confuse users of existing launchers \xe2\x80\xa2 You might lose track of time because there are just too many awesome Homescreens      \xe2\x80\xa2 This is a still beta version. Please understand even if you detect some bugs and  instabilities." Good reviews and five star comments make developers dance! Show us some love to cheer us up :) "   \xe2\x98\x85 INFORMATION \xe2\x98\x85- Buzz Launcher Information: http://homepackbuzz.com/launcher- Homepack Buzz Service Information: http://homepackbuzz.com/about- Help: http://homepackbuzz.com/help- Facebook: http://facebook.com/homepackbuzz- Blog: http://homepackbuzz.com- Customer Support: help@buzzpia.com- Suggestions: http://homepackbuzz.uservoice.comRecent changes:v0.9.6.2* New- Add supporting language(Chinese, Turkish, French)- Add app drawer feature(Transparency, Infinite scroll)- Allow to create shortcut- Compatible with Google Nexus 7 and other 7" tablets* Fix- Default Homepack loading problems- Icon drag problems- Other small bugsv0.9.5.7* Fix- Launcher Update flow- Icon loading problem after rebooting- Upload problem after backup- Other small bugs'
p4
tp5
tp6
.