((S'Title'
p0
S'Cajeros Cercanos '
p1
tp2
(S'Description:'
p3
S"Elige el tipo de cajero a buscar y tambi\xc3\xa9n la entidades que no te cobran comisi\xc3\xb3n y se te mostraran los cajeros mas cercanos.Si encuentras un cajero que no est\xc3\xa9 registrado en la aplicaci\xc3\xb3n, puedes darlo de alta tu mismo manteniendo presionado sobre el mapa o bien a trav\xc3\xa9s de las opciones del men\xc3\xba.Tambi\xc3\xa9n puedes notificar incidencias con la ubicaci\xc3\xb3n de los cajeros, ayudando tambi\xc3\xa9n a otros usuariosValida para cajeros de Espa\xc3\xb1a.Los cajeros soportados son: 4B, ServiRed y Euro6000Las entidades soportadas son: CAIXABANK,  S.A., SANTANDER, POPULAR ESPA\xc3\x91OL, BBVA, BANESTO, BANKIA,  S.A, NCG BANCO,  S.A., CAIXA PENEDES, IBERCAJA BANCO, UNICAJA BANCO, CAJASOL, BANCO SABADELL, CATALUNYA BANC, BANCAJA, BANCO PASTOR, CAJAMAR, CAST.-LA MANCHA, KUTXABANK,  S.A, BANCA MARCH, LA GENERAL, CAJASUR, CAJA DE MURCIA, BARCLAYS BANK, KUTXA, BANCO VALENCIA, CAJA CANARIAS, CAJA ESPA\xc3\x91A, RURALCAJA, LIBERBANK, CAJA DE NAVARRA, CAJA DUERO, CAJA LABORAL, CAJA I.CANARIAS, CAIXA SABADELL, DB-S.A.E., BANC.G.CAJATRES, CAIXA LAIETANA, SA NOSTRA, BANKINTER, CAJAEXTREMADURA, CAJA DE BADAJOZ, CAIXA TERRASSA, CAIXA TARRAGONA, CAJA R. SUR, C.R. DE NAVARRA, CAJA CANTABRIA, CAIXAGIRONA, CAJA DE BURGOS, C.R.DE GRANADA, BANCO GALLEGO, B. CAIXA GERAL, CAJA VITAL, MULTICAJA, CAJA CIRCULO, CAIXA MANRESA, C.R. JAEN, CAJA R.CASTILLA, CAIXA MANLLEU, C.R.EXTREMADURA, COOPERATIVO, C.R. ASTURIAS, CAJALON, IPAR KUTXA, C.R. DE CORDOBA, C.R. CENTRAL, CR.CANARIAS, CITIBANK ESPA\xc3\x91A, CAJASIETE, CAJACAMPO, BANCO ATLANTICO, CAIXA POPULAR, CAJA ONTINYENT, BANCA PUEYO, C.R. ALBACETE, CR ALMENDRALEJO, CAJA SORIA, C.R.CIUDAD REAL, C.R. SALAMANCA, BANKOA, C.R. DE TERUEL, C.R.TORRENT, CR B, F, S, C, SCC, C.R. DE CUENCA, C.R. DE ZAMORA, ESPIRITO SANTO, ING DIRECT, COLONYA, C. D'ENGINYERS, BANKPIME, C.R. CASTELLON, C.R. DE BALEARS, CARREFOUR, C.R. GALEGA, LLOYDS TSB BANK, C.R. DE SEGOVIA, BANCO DE MADRID, CAIXALTEA, C.R. DE GIJON, CAIXAPETRER, CAIXACALLOSA, CAIXA ADVOCATS, C.R.D'ALGEMESI, C. SANT VICENT, C.R. LA VALL, BANCO CAMINOS, C.R. DE CHESTE, C.R. DE UTRERA, ARQUIA, C.R. DE ALGINET, LLOYDS BANK INT, C.R.DE GUISSONA, ETCHEVERRIA, CECABANK,  S.A., UNO-E, BANCOMEDIOLANUM, CTO. AGRICOLA, C.R. L'ALCUDIA, CAJA CEGA, CREDIT VALENCIARecent changes:1.0.1Nueva pantalla mientras se adquiere la se\xc3\xb1al valida de GPS. Dialogos cuando se da de alta nuevo cajero o se envia una incidencia"
p4
tp5
tp6
.