((S'Title'
p0
S'Calculate by QxMD '
p1
tp2
(S'Description:'
p3
S'From the maker of the apps \'The ECG Guide\' and \'Pedi STAT\' comes \'Calculate\', a next-generation medical calculator and decision support tool, freely available to the medical community.Essential tools in General Practice, Internal Medicine, Cardiology, Surgery, Obstetrics, Nephrology, Hematology, Orthopedics, Pediatrics, Gastroenterology, Neurology, Neurosurgery, Respirology, and more."We recommend medical users try the free Calculate by QxMD first..."-from iMedicalApps review "The best free Medical Calculator apps for the iPhone"\'Calculate\' is focused on highlighting tools which are actually useful in clinical practice and serve to impact diagnosis, treatment or determining prognosis.Helping you make decisions, not just calculate numbers...Features\xe2\x80\xa2 Developed by a collaboration of clinician experts from diverse backgrounds\xe2\x80\xa2 Converts recent research publications into practical handheld tools - knowledge translation at its best\xe2\x80\xa2 Automatically adapts to your self-described clinical practice\xe2\x80\xa2 Unique \xe2\x80\x98Question Flow\xe2\x80\x99 technology gets you answers, fast\xe2\x80\xa2 Detailed references with Pubmed integration\xe2\x80\xa2 Comprehensive and insightful results\xe2\x80\xa2 Elegant design and intuitive interface\xe2\x80\xa2 SI and Conventional unitsMore than 150 Unique calculators and Decision Support toolsWhile too extensive to list them all, here is a small sampling of included content:Reduce and predict perioperative complications\xe2\x80\xa2 WHO Surgical Safety Checklist\xe2\x80\xa2 Predictive models for cardiac surgery and coronary angiographyGuide treatment\xe2\x80\xa2 Determine cardiovascular risk and guide lipid treatment using the Framingham and Reynolds Risk Scores\xe2\x80\xa2 Use the CHADS2 score to guide treatment in atrial fibrillation\xe2\x80\xa2 Better understand the risk of bleeding from anticoagulation in atrial fibrillation\xe2\x80\xa2 ACS using the TIMI risk score\xe2\x80\xa2 Burns with rule of 9s and Parkland formula\xe2\x80\xa2 Hypernatremia (calculate water deficit)Determine Prognosis\xe2\x80\xa2 Heart failure\xe2\x80\xa2 Lymphoma\xe2\x80\xa2 Myelodysplastic Syndrome\xe2\x80\xa2 Myeloma\xe2\x80\xa2 Glomerulonephritis\xe2\x80\xa2 Hemodialysis\xe2\x80\xa2 COPD\xe2\x80\xa2 TIA\xe2\x80\xa2 PancreatitisDose\xe2\x80\xa2 Chemotherapy based on Body Surface Area\xe2\x80\xa2 Carboplatin based on AUC\xe2\x80\xa2 tPA in acute stroke\xe2\x80\xa2 Phenytoin in renal failure and hypoalbuminemiaCalculate\xe2\x80\xa2 Ideal body weight, BMI and BSA\xe2\x80\xa2 Due date and gestational age\xe2\x80\xa2 Extensive formula used in echocardiogropathy and invasive hemodynamic monitoring\xe2\x80\xa2 Kt/V in dialysis patients\xe2\x80\xa2 eGFR with CKD-Epi, Cockcroft-Gault, and MDRD\xe2\x80\xa2 A-a gradientClassify\xe2\x80\xa2 Angina (CCS)\xe2\x80\xa2 Congestive heart failure (NYHA)Manage\xe2\x80\xa2 Head, neck, ankle and knee injuries\xe2\x80\xa2 DVT and PE\xe2\x80\xa2 Pulmonary nodulesStage\xe2\x80\xa2 Lung cancer\xe2\x80\xa2 Renal cell carcinomaUnderstand\xe2\x80\xa2 TTKG (transtubular potassium gradient) in hypokalemia and hyperkalemia\xe2\x80\xa2 DermatomesDiagnose\xe2\x80\xa2 Heparin Induced Thrombocytopenia\xe2\x80\xa2 Infective Endocarditis\xe2\x80\xa2 ARDS\xe2\x80\xa2 Autoimmune HepatitisAnd much, much more...Founded my medical professionals, QxMD is dedicated to creating high quality, point-of-care tools for practicing health care professionals. Recognized as a leading developer of free medical software for mobile devices, QxMD develops content in cooperation with expert physicians from their respective fields.Recent changes:New in version 1.7:Added group for Physical Medicine and RehabilitationAdded new Disability Rating Scale (DRS) calculatorAdded new Modified Ashworth Scale (MAS) calculatorNew in version 1.7.2:Minor changes and bug fixes.'
p4
tp5
tp6
.