((S'Title'
p0
S'Calorie Counter - MyFitnessPal '
p1
tp2
(S'Description:'
p3
S'Lose weight with MyFitnessPal, the fastest and easiest to use calorie counter for Android. With the largest food database of any Android calorie counter (over 2,000,000 foods), and amazingly fast food and exercise entry, we\xe2\x80\x99ll help you take those extra pounds off! There is no better diet app \xe2\x80\x93 period.\xe2\x96\x8cPC Magazine Editor\'s Choice Selection \xe2\x96\x8cWired Magazine\'s Editor\'s Pick for Lifestyle Apps Featured in the NY Times, Wall Street Journal, USA Today, Family Circle, Marie Claire, NBC, CNET, Shape, the Today Show and more. \xe2\x96\x8cUSER REVIEWS: \xe2\x96\xa0 \xe2\x80\x9cThis is the best calorie counter, free or paid, and I\xe2\x80\x99ve tried them all.\xe2\x80\x9d \xe2\x96\xa0 \xe2\x80\x9cThe food database is HUGE! I\xe2\x80\x99ve NEVER had a missing food.\xe2\x80\x9d \xe2\x96\xa0 \xe2\x80\x9cThe first diet tool that has ever worked for me! I\xe2\x80\x99ve lost 30 pounds!" \xe2\x96\xa0 \xe2\x80\x9cThis app takes seconds to use, it\xe2\x80\x99s that simple." \xe2\x96\xa0 "Incredibly easy to use." \xe2\x96\xa0 "This app literally saved my life." \xe2\x96\xa0 "I can\xe2\x80\x99t believe this app is free! I would have paid for this.\xe2\x80\x9d \xe2\x96\xa0 "This is the best app on my phone. I use it every day." \xe2\x96\x8cWHY WE\xe2\x80\x99RE BETTER THAN OTHER APPS \xe2\x96\xa0 Largest food database of any Android calorie counter \xe2\x80\x93 over 2,000,000 foods and growing daily\xe2\x96\xa0 Easiest and fastest food entry \xe2\x80\x93 remembers your favorites, add multiple foods at once, save and add entire meals, and more. THERE IS NO FASTER OR EASIER APP THAN MYFITNESSPAL. \xe2\x96\xa0 Fully syncs with the web, so you can log from your computer or your phone, which ever is more convenient. Plus your data is backed up online so you never lose it. \xe2\x96\xa0 Diet with your friends - add friends and easily track and support each other\'s progress\xe2\x96\xa0 Comprehensive feature set \xe2\x80\x93 create your own custom foods and exercises, track all major nutrients, progress reports, customized goals based on your diet profile, recipe calculator, and more. \xe2\x96\xa0 IT WORKS \xe2\x80\x93 the success of our users shows that we can help you lose weight\xe2\x96\x8cFOOD \xe2\x96\xa0 2,000,000+ food database. Updated daily. \xe2\x96\xa0 Barcode scanner - scan the barcode of a food and easily find it\'s match in our database. \xe2\x96\xa0 Track all major nutrients: calories, fat, protein, carbs, sugar, fiber, cholesterol, and more \xe2\x96\xa0 Frequently used foods automatically remembered for easy access \xe2\x96\xa0 Save and reuse entire meals \xe2\x96\xa0 Recipe calculator - Enter your own recipes and calculate their nutritional contents\xe2\x96\xa0 Add multiple items at once \xe2\x80\x93 NO OTHER APP HAS THIS \xe2\x96\xa0 Create an unlimited number of custom foods \xe2\x96\x8cEXERCISE \xe2\x96\xa0 Over 350 exercises \xe2\x96\xa0 Track both cardio and strength training, including sets, reps, and weight/rep \xe2\x96\xa0 Create an unlimited number of custom exercises \xe2\x96\xa0 Enter your own calorie amounts \xe2\x80\x93 great for HRM\xe2\x80\x99s or exercise equipment with calorie reports \xe2\x96\x8cFRIENDS\xe2\x96\xa0 Connect with friends and easily track and motivate each other\xe2\x96\xa0 MyFitnessPal members who diet with friends lose 3X more weight on average!\xe2\x96\x8cGOALS \xe2\x96\xa0 Customized goals based on your specific diet profile \xe2\x80\x93 age, gender, activity level, etc. \xe2\x96\xa0 Enter your own goals if you\xe2\x80\x99ve gotten specific recommendations from a doctor, nutritionist, etc. \xe2\x96\x8cREPORTS \xe2\x96\xa0 Track your weight, measurements and more \xe2\x96\xa0 View charts of your progress over time for motivation \xe2\x96\xa0 Daily nutritional summary with all major nutrients \xe2\x96\xa0 View more detailed reports online at www.myfitnesspal.com \xe2\x96\x8cON THE WEB AT WWW.MYFITNESSPAL.COM \xe2\x96\xa0 Get support and motivation from our huge community of millions of dieters just like you \xe2\x96\xa0 Entries are automatically synced to the web and vice versa, so you can log online or on your phone, whichever is more convenient \xe2\x96\xa0 Automatically post your progress to Twitter and Facebook (optional) Note: a MyFitnessPal.com account is required to synchronize and safely backup your data. You can create your account for free within the app.Recent changes:+ Version 2.6.4- Checkboxes in multi-add now working properly+ Version 2.6.3- Major improvements to search speed!!- Minor bug fixes'
p4
tp5
tp6
.