((S'Title'
p0
S'CamCard Free - Business Card R '
p1
tp2
(S'Description:'
p3
S"* More than 30 million professionals\xe2\x80\x99 choice over the world* 7 Must-Have Apps for Salespeople \xe2\x80\x93 Inc.com* \xe2\x80\x9cCamCard outdoes competitors \xe2\x80\xa6\xe2\x80\x9d -- The New York Times * \xe2\x80\x9cNot only is the app highly accurate, but it also lets you group contacts, make notes, and search LinkedIn.\xe2\x80\x9d \xe2\x80\x93 Inc.* A must-have business app for your smart phoneCamCard is a professional business card reader and business card scanner. Simply take a picture of a business card, CamCard recognizes the business card and saves contact information in Card Holder or your Address Book. Then feel at ease to manage cards with CamCard - business card reader and business card scanner.DEVICE REQUIREMENTRequirement: Android2.x\xef\xbc\x8cauto-focusing camera, support Nexus\xe3\x80\x81Droid\xe3\x80\x81Desire\xe3\x80\x81Galaxy and etc.Scan Card and Say Goodbye to business card black hole.Free version: User can save 20 cards in the first week, and two more per week afterwards.For the registered users, after login they are able to save up to 30 cards, and three more per week afterwards.KEY FEATURES\xe2\x9c\x94 Scan card, recognize card and save  in Card Holder and your Address book. \xe2\x9c\x94 Recognize 16 languages including  English, Simplified Chinese, Traditional Chinese, Korean, Japanese, French, Spanish, Portuguese, German, Italian, Dutch, Swedish, Finnish, Danish, Norwegian, Hungarian \xe2\x9c\x94 All your cards can be saved in the Cloud securely, privately, and never missing. \xe2\x9c\x94 Restore cards in case of accidental deleting. \xe2\x9c\x94 Manage and Synchronize cards across multi-devices with Cloud Sync. Other Features\xe2\x9c\x94 Save cards into iPhone address book, Gmail or other Exchange account.\xe2\x9c\x94 Categorize cards into different groups and accounts \xe2\x9c\x94 Merge with exiting contact\xe2\x9c\x94 Batch Scan card \xe2\x9c\x94 Auto-detect text orientation\xe2\x9c\x94 Auto-rotate card images\xe2\x9c\x94 Auto-crop card images \xe2\x9c\x94 Auto-enhance business card images\xe2\x9c\x94 QR Code creation and recognition and share cards with QR Code \xe2\x9c\x94 Email Recognition\xe2\x9c\x94 Introduce friends to each other and let them save each others' cards right away\xe2\x9c\x94 Share contact information via Email, SMS, QR Code\xe2\x9c\x94 Export all cards to vCard or Excel files\xe2\x9c\x94 LinkedIn search and send invitations\xe2\x9c\x94 Card Holder to manage all contacts including making phone calls, sending SMS, sending emails, browsing web pages and locating address on map\xe2\x9c\x94 Card Holder with passcode protection, searching, sorting and grouping\xe2\x9c\x94 Display the corresponding image when edit business card information\xe2\x9c\x94 Double-side business card image \xe2\x9c\x94 Make notes to cards\xe2\x9c\x94 Create a card with card templates: when creating a card manually or importing a contact from phonebook, a card will be created automatically. You can choose from different card templates. TIPS TO ACHIEVE BEST RECOGNITION RESULT:\xe2\x9c\x94 Take a picture of a business card as clearly as possible by placing cards in good lighting condition\xe2\x9c\x94 To align business card edges to viewfinder edges as closely as possibleWe'd love to hear your feedback: asupport@intsig.comFollow us on Twitter: @CamCardIntSigLike us on Facebook: CamCardFollow us on Google+: CamCardOTHER APPS by IntSig Information:* CamScanner* CamDictionaryRecent changes:1. Enhanced Card Info Editing: Recognized text is marked on business card now.2. Bug fixes and other improvements."
p4
tp5
tp6
.