((S'Title'
p0
S'CamCard - BCR (Western) '
p1
tp2
(S'Description:'
p3
S"CamCard, read your card, mind your business.CamCard reads business cards and save instantly to phone Contacts. It syncs all your cards across smartphones, tablets, computers and the web app. Brand new AR Card feature allows you to better demonstrate yourself, your products and company by adding various contents in text, graphic, video, audio or file formats. It keeps you posted with the latest updates of your partners and brings you more business opportunities. * More than 30 million professionals\xe2\x80\x99 choice over the world* 7 Must-Have Apps for Salespeople \xe2\x80\x93 Inc.com* Top Developer on Google Play Store by GOOGLE INC* Bringing Order to the Chaos of a Business Card Collection - The New York Times* CamCard lets you quickly and accurately scan business cards into your iPhone, BlackBerry or Android-based device - New York PostDevice Requirements: Android 2.0+, auto-focusing camera, supporting Nexus, Droid, Desire, Galaxy and etc. Why CamCard?* Accurately Read any Business Cards within a Second: Say goodbye to keeping all your business cards, carrying them around and worrying about losing them.* Save and Sync Cards across All devices: Own multiple devices and fed up with manually syncing the latest biz contact info on every one of them? Let CamCard do that for you.* Brand New AR Card: Sometimes a business card is not enough to leave an impression. Start to add more personalized content to your business card and stand out of the rest.* Easily Manage Cards: With CamCard, you can search, sort, group, merge your business cards, as well as setting password to secure your Card Holder.FeaturesBetter Demo Yourself with AR Card* Augment Reality technology: add text, graphic, audio, video, files and links to your business card* Once your AR Card is created, partners will read your cards 100% accurately with 200+ languages support* Share AR Card via email, QR code and SMS* Add or edit AR Card in CamCard web appRead Business Cards Accurately* Read any business card within a second by taking a photo of it* Auto-detect text orientation and rotate card* Smart-crop card images and enhance scan result * Offline read 12 languages including English, French, Spanish, Portuguese, German, Italian, Dutch, Swedish, Finnish, Danish, Norwegian, Hungarian * Batch scan multiple cards * Read email signature * Read QR Code on cardsSave and Sync across All Devices* Sign up to sync all the cards to your CamCard account. You can access, edit and manage cards across smartphones, tablets, computers and the web.* All your cards can be saved in CamCard Card Holder, as well as your phone Contacts* Save contacts to different accounts, e.g. Gmail or Exchange account* Backup your contacts and restore in CamCard* Export all cards to vCard or Excel filesEasily Edit and Manage Cards* Add card backside image* Add notes to a card* Locate field while editing information* Edit, group, search, sort or export your cards * Merge with exiting contact* Directly make phone calls, send SMS/email, browse web pages or locate address with map app in card detail page* Set password to secure Card HolderShare Cards via Various Methods* Conveniently send your friend\xe2\x80\x99s contact information to other friends within CamCard* Share contact information via Email, SMS, QR Code* Search a contact in LinkedIn website and send an invitationTIPS TO ACHIEVE BETTER READ A CARD:* Capture a card in sufficient light* Align biz card\xe2\x80\x99s edges to viewfinder\xe2\x80\x99s edges as closely as possibleCheck out INTSIG\xe2\x80\x99s other apps* CamScanner \xe2\x80\x93 Intelligent Document Management* CamDictionary \xe2\x80\x93 Snap TranslatorWe'd love to hear your feedback: asupport@intsig.comFollow us on Twitter: @CamCardIntSigLike us on Facebook: CamCardFollow us on Google+: CamCardRecent changes:Brand New AR Card *\tAugment Reality technology: add text, graphic, audio, video, files and links to your business card*\tOnce your AR Card is created, partners will read your cards 100% accurately with 200+ languages support*\tShare AR Card via email, QR code and SMS*\tAdd or edit AR Card in CamCard web app"
p4
tp5
tp6
.