((S'Title'
p0
S'Camera FV-5 Lite '
p1
tp2
(S'Description:'
p3
S"Camera FV-5 is a professional camera application for mobile devices, that puts DSLR-like manual controls in your fingertips. Tailored to enthusiast and professional photographers, with this camera application you can capture the best raw photographs so that you can post-process them later and get stunning results. The only limit is your imagination and creativity!Major features:\xe2\x80\xa2 All photographic parameters are adjustable and always at hand: exposure compensation, ISO, light metering mode, focus mode, white balance and program mode.\xe2\x80\xa2 DSLR-like viewfinder display: see exposure time, aperture and stops display with EV and bracketing settings.\xe2\x80\xa2 Full fledged exposure bracketing: from 3 to 7 frames, unlimited stops spacing, plus custom EV shifting.\xe2\x80\xa2 Built-in intervalometer: make stunning timelapses (even bracketed/HDR timelapses) and time-controlled picture series.\xe2\x80\xa2 Program and Speed-priority modes.\xe2\x80\xa2 Long exposure support: take beautiful night photos and light trails with long exposure times up to 30 seconds*.\xe2\x80\xa2 JPEG as well as PNG** image formats for lossless photo capturing, perfect for post-processing.\xe2\x80\xa2 All camera functions assignable to volume keys. You can adjust EV, ISO, color temperature and more using volume keys. Devices with hardware camera shutter key are also supported.\xe2\x80\xa2 EXIF and XMP sidecar metadata support.\xe2\x80\xa2 Self timer for delayed shooting.\xe2\x80\xa2 Autofocus, macro, touch-to-focus*** and infinity focus modes, plus a focus lock switch (AF-L).\xe2\x80\xa2 Autoexposure (AE-L) and auto white balance (AWB-L) locks in Android 4.0+.\xe2\x80\xa2 In background photo developing and processing allows a smooth, uninterrupted camera operation.\xe2\x80\xa2 Digital zoom using multitouch pinch gesture. Also shows 35mm equivalent focal length!This camera application completely avoids scene modes, instead you get full manual control over all photographic parameters, just like you do with a reflex camera, so you can ultimately control every aspect of the picture, and leave the post-processing to the computer. So after your DSLR, you will never miss a photo opportunity again, being able to capture it with the closer sensation to your DSLR as possible.IMPORTANT: If you find a bug using the application, PLEASE, visit the web page http://www.camerafv5.com or write to camerafv5@flavionet.com with your phone model name and the description of the problem, before writing a negative comment (developers cannot reply to Google Play comments). Customer satisfaction is my priority, and I will do my best to fix the issues as soon as possible!The Lite version is a fully functional version of Camera FV-5, with limited picture resolution support. Please buy Pro version to unlock all your device's resolutions.Connect with Camera FV-5 and stay always up to the latest information about current and future development. Visit the official website http://www.camerafv5.com, be a fan of http://www.facebook.com/CameraFV5, subscribe to http://www.twitter.com/CameraFV5 or watch tutorials at http://www.youtube.com/user/camerafv5.* Long exposures lowers picture resolution to 2 or 1 MP, depending models. The reason is explained here: http://www.camerafv5.com/faq.php#long-exposure-resolution** Lossless PNG saving is a memory intensive operation. Some devices might need to raise the memory limit for Camera FV-5 to save PNG pictures. See the FAQ here: http://www.camerafv5.com/faq.php#png-memory*** Touch-to-focus available for Android 4.0+ devices. Under Android 2.x, available only on Motorola, HTC and Nvidia camera drivers, plus some Samsung drivers and other phones.Recent changes:- New: golden spiral composition overlay. All 4 spiral orientations are available on Settings > Viewfinder > Composition grid.- New: added the possibility to adjust grid thickness on Settings > Viewfinder > Grid thickness.- New: refocus between photos taken with the intervalometer. A new option is available right on the intervalometer settings.- Fixed: problems with viewfinder aspect ratios not matching/stretching."
p4
tp5
tp6
.