((S'Title'
p0
S'Camera ZOOM FX New Composites '
p1
tp2
(S'Description:'
p3
S'Download pack for Camera ZOOM FX = paid app on marketThis is a free download pack for Camera ZOOM FX = paid app on marketAPP OF THE WEEK SALE, 40% OFF for a very limited time!>> "The Best Camera App for Android" - lifehacker>> "The 15 Best Mobile Apps of 2011" - Mashable\xe2\x98\x85\xe2\x98\x85\xe2\x98\x85\xe2\x98\x85\xe2\x98\x85\xe2\x98\x85\xe2\x98\x85\xe2\x98\x85\xe2\x98\x85\xe2\x98\x85\xe2\x98\x85\xe2\x98\x85\xe2\x98\x85\xe2\x98\x85\xe2\x98\x85\xe2\x98\x85-- Over 1 million sold! --\xe2\x98\x85\xe2\x98\x85\xe2\x98\x85\xe2\x98\x85\xe2\x98\x85\xe2\x98\x85\xe2\x98\x85\xe2\x98\x85\xe2\x98\x85\xe2\x98\x85\xe2\x98\x85\xe2\x98\x85\xe2\x98\x85\xe2\x98\x85\xe2\x98\x85\xe2\x98\x85The award-winning camera app for Android devices! Camera ZOOM FX is now Editor\'s Choice on Lifehacker, Gizmodo, Mashable and SlashGear.Replace all your camera / photo FX apps with just one!POWERFUL CAMERA:\xe2\x97\x8f Optical / digital zoom (up to 6x)\xe2\x97\x8f Fastest camera on Android - up to 10 shots per second + instant effects\xe2\x97\x8f Front facing camera (if avail)\xe2\x97\x8f Customization of ALL hardware buttons  - e.g. volume buttons to control zoom, trackball to snap shot...\xe2\x97\x8f Live previews of some effects, e.g. frames, buddies\xe2\x97\x8f Silent camera (if device supports)\xe2\x97\x8f Tweak hardware options: autofocus, whitebalance, nightshot...\xe2\x97\x8f Send, share your shots\xe2\x97\x8f 1-click upload photo to Facebook, Twitter, Flickr, etc. - ALL AT ONCE!\xe2\x97\x8f Flash (if avail)\xe2\x97\x8f Customizable grid overlays\xe2\x97\x8f NEW!! Live Wallpaper - now "Photo FX Live Wallpaper" appMULTIPLE SHOOTING MODES:\xe2\x97\x8f Stable Shot: on-screen meter to show current level of movement\xe2\x97\x8f Timer\xe2\x97\x8f Voice Activated: take a picture by clapping, shouting...\xe2\x97\x8f Burst Mode\xe2\x97\x8f Collage\xe2\x97\x8f Time LapseIMPORT YOUR EXISTING PHOTOS:\xe2\x97\x8f You can import existing photos from your phone\'s gallery by clicking Menu->Import.POST PROCESSING:\xe2\x97\x8f Combine effects using non-destructive editing\xe2\x97\x8f Process at full camera resolution (up to 8mp if avail)\xe2\x97\x8f 10 ready made presets: Diana, Retro, Holga 35mm, Toy Camera...\xe2\x97\x8f 20 Color FX: vintage, lomo, cinematic, funky, pencil...\xe2\x97\x8f 13 Frames: thin, rounded, lens, polaroid, filmreel...\xe2\x97\x8f 6 Vignette Surrounds: heavy, invert, spotlight...\xe2\x97\x8f 12 Distort FX: fisheye (like fxcamera), mosaic, twirl...\xe2\x97\x8f 9 Mirror FX\xe2\x97\x8f 3 Tilt-shift FX \xe2\x97\x8f Crop to any size of your choice: 3x8, square, instant, 6x4...\xe2\x97\x8f Digi composites (photoshop style overlays)\xe2\x97\x8f Props and famous \'buddies\' in your pictures (move and resize!)\xe2\x97\x8f Create stunning collages: e.g. 2x2 passport style combination shots\xe2\x97\x8f Random effectsOTHER FEATURES:\xe2\x97\x8f Fullscreen shutter: click anywhere on screen to shoot!\xe2\x97\x8f Animated shutter effect\xe2\x97\x8f Support geotag / exif tags\xe2\x97\x8f Select sdcard folder to save photos (incl external sd)\xe2\x97\x8f Auto save shots\xe2\x97\x8f Win $100 in Instagram style photo contest\xe2\x97\x8f Pro scene modes, e.g. nightshot, beach (Droid only)\xe2\x97\x8f View last shot in picture gallery\xe2\x97\x8f Use as default camera\xe2\x97\x8f Rotate / crop photos\xe2\x97\x8f Widescreen lens / capture (if device supports)\xe2\x97\x8f Support from Android 1.5 through to Android 4.0 (incl tablets)FREE DOWNLOAD PACKS:\xe2\x97\x8f Fun props\xe2\x97\x8f Frames\xe2\x97\x8f Famous \xe2\x80\x98buddies\xe2\x80\x99 in your pictures\xe2\x97\x8f Composites (paper overlays)\xe2\x97\x8f Shutter animations\xe2\x97\x8f Scary Halloween ghouls and ghostsREVIEWS:"our choice for the best app around ... a ton of different effects if you\'re in the mood for a Hipstamatic type shot" - lifehackerhttp://goo.gl/zzCMl"grab this to show off to your Apple-loving buddies" - SlashGearhttp://goo.gl/UkANw"greatly improves the usefulness of your Android\xe2\x80\x99s camera" - Gizmodohttp://goo.gl/NhnpZ"Few apps offer as many options for shooting as this one" - WIREDhttp://goo.gl/3ANqBNEWS & SUPPORT:To get news and updates on Camera ZOOM FX:- Blog: http://www.androidslide.com- Twitter: http://twitter.com/androidslide- Facebook: http://www.facebook.com/groups/114616321297- Flickr: http://www.flickr.com/photos/51907529@N02Recent changes:- added compatibility for small screens- new icon- internet permissions removed'
p4
tp5
tp6
.