((S'Title'
p0
S'CameraAce - Photo Collections '
p1
tp2
(S'Description:'
p3
S'\xe2\x98\x85\xe2\x98\x85\xe2\x98\x85\xe2\x98\x85\xe2\x98\x85 One of the most liked Camera & Photo apps in Samsung S-suggest Choose a preset Photography Theme before you snap a photo and CameraAce will take it from there. In other word, \'Image batch processing\'.After you take a photo, CameraAce will automatically apply your theme\xe2\x80\x99s preset photo effects and organize them for easy navigation. Now you can sit back and enjoy your photo collections in slideshow mode, which beautifully displays your photos to the background music of your choosing. When you fire up CameraAce, you will be presented with a photo workbench with multiple cameras, each with different settings suitable for whatever subjects you would like to photograph. The default Photography Themes include:   \xe2\x80\xa2\t\xe2\x80\x9cFamily\xe2\x80\x9d Camera with the Glow filter, Stacked Frame and \xe2\x80\x98Lasting Memories\xe2\x80\x99 background music. Create \xe2\x80\x98Family photo collection\xe2\x80\x99.   \xe2\x80\xa2\t\xe2\x80\x9cFood\xe2\x80\x9d Camera with indoor HDR landscape filter, Polaroid frame and \xe2\x80\x98Sweet & Lovable\xe2\x80\x99 background music. Create \xe2\x80\x98Food photo collection\xe2\x80\x99.   \xe2\x80\xa2\t\xe2\x80\x9cLandscape\xe2\x80\x9d Camera with HDR landscape filter, DoubleNet frame and \xe2\x80\x98Something Wonderful\xe2\x80\x99 background music. Create \xe2\x80\x98Landscape photo collection\xe2\x80\x99.You can edit the default themes or create your own Photography Theme. You can also edit and manage where each camera\xe2\x80\x99s photos are saved. For example, you can create "Me" Camera( or self camera, portrait camera) and collect photos. \xe2\x80\xbb CameraAce is optimized for use with Samsung\xe2\x80\x99s S Pen. In addition to adding hand-written annotations to your photos, you can use your S Pen to hover over onscreen elements to view full-size previews and photo details.[CameraAce Features]\xe2\x97\x8e Pre-organize your photos: Before taking a shot, choose an appropriate Photography Theme to automatically edit and organize your photo.     - Create and manage your own Photography Theme settings: assign a specific filter, frame, save location and background music for each camera type.     - 4 Camera widgets are provided: the widget allows you to quickly launch one of your preset Photography themes. \xe2\x97\x8e Enhanced photo filters/effects/collage editor \xe2\x80\x93 Don\xe2\x80\x99t forget to check out the 3 different \xe2\x80\x98HDR\xe2\x80\x99 effects\xe2\x97\x8e Scribble on your photos with various pen effects \xe2\x80\x93 Even without S-pen, you can draw or scribble on your photo with when using Samsung devices running Android 4.0+.\xe2\x97\x8e Slideshow mode with pan and zoom effect as well as background music \xe2\x80\x93 bring out the beauty in your photo galleries\xe2\x97\x8e Photo frame with caption feature \xe2\x80\x93 Don\xe2\x80\x99t forget to leave an annotation on your photos.\xe2\x97\x8e Organize (delete, and move) and manage your photos with CamerAce\xe2\x80\x99s photo management tools. Keywords : Pre-organize, photo Manager, filters, Photo organizer, Collage, HDR, effect, sharing, picture, camera widget, camera, organize, s-pen, Samsung Galaxy Note, free, Slideshow, workbench, Polaroid, scribble, annotation, samsung, caption, Image batch processing, collection, Photo collection, self camera, portrait cameraMore info or video : http://www.CameraAce.netRecent changes:[Ver. 2.1.707]- A new photo filter, BeautyHDR, has been added. It is tuned for self-portrait photos- In the Organize view, you can select multiple photos at once and apply a photography theme (batch image processing)- You can now share multiple photos in Organize view.- Slideshow features are more abundant     * You can play the slideshow     * You can control the slideshow direction \xe2\x80\x93 Forward, or Backward     * You can hide images from the slideshow'
p4
tp5
tp6
.