((S'Title'
p0
S'CamScanner -Phone PDF Creator '
p1
tp2
(S'Description:'
p3
S"Turn any Smartphone into a Scanner with CamScanner for Intelligent Document ManagementCamScanner is an intelligent document management solution for individuals, small businesses, organizations, governments and schools. It is the perfect fit for those who want to scan, sync, edit, share and manage various contents on all devices.\xef\x82\xab\t40 million mobile users\xe2\x80\x99 choices for document scanning worldwide\xef\x82\xab\t\xe2\x80\x9cThe application employs its own image cropping and enhancing algorithm that leads to clearer images.\xe2\x80\x9d \xe2\x80\x93 Makeuseof.com\xef\x82\xab\t\xe2\x80\x9cCamScanner may just be the best deal for scanning documents on your iPhone.\xe2\x80\x9d \xe2\x80\x93 CNET.com\xef\x82\xab\tTop Developer \xe2\x80\x93 Google Play StoreFeatures:*Access Documents from the WebNow you can log in to your account at www.camscanner.net and edit file name, add tag, add notes; manage documents and share document via copying the link or social media.*Quickly Scan DocumentUse your phone camera to SCAN (take a picture of) all kinds of paper documents: receipts, notes, invoices, whiteboard discussions, business cards, certificates, etc. Batch Scan Mode saves you even more time. It auto detects and adjusts the document orientation.*Optimize Scan QualitySmart cropping and auto enhancing make CamScanner unique. It ensures the texts and graphics in scanned documents are clear and sharp with premium colors and resolutions.*Easy Search DocumentFind any documents within seconds. OCR for Search allows you to easily find keywords within PDF files, saving you the trouble of browsing among tons of documents.*Advanced Document EditingCamScanner enable you to edit document name, add notes and make annotations on your mobile.*Intelligent Document ManagementIntelligent document management on the go. You can allocate documents in groups, sort documents by Date, tag documents, view documents in List/Thumbnail mode and etc. Set passwords for confidential documents to avoid information leaks.*Sign up and Sync DocumentsSign up with CamScanner and backup/sync documents on the go. Just log in and you can access, edit, share and sync documents across smart phones, tablets, PCs and the Cloud.*Share & Upload SupportUpload the scanned documents to cloud storages; Fax scanned documents; Share documents between mobile devices and computers via WiFi; Share documents at www.camscanner.net via copying the link.CamScanner Users Scan and Manage * Bill, Invoice, Contract, Tax Roll, Business Card\xe2\x80\xa6* Whiteboard, Memo, Script, Letter\xe2\x80\xa6* Blackboard, Note, PPT, Book, Article\xe2\x80\xa6* Credential, Certificate\xe2\x80\xa63rd Party Cloud Storage Services Supported:Google Drive, Dropbox, Box.com, Premium Account-\tAdd extra 2G cloud space for storing documents-\tSupport images larger than 5M pixels-\tUnlimited number of times of making annotations on documents-\tNo watermarks on PDF file generated\t-\tNo adsGet More Cloud Space for FREE-\tSign up for CamScanner \xe2\x80\x93 200M -\tSuccessfully bring a new registrant - 100M/user with maximum number of 10 users.-\tTell others why you like CamScanner via social media \xe2\x80\x93 100M/time-\tWrite a review in Google Play - Get 100M cloud space for free-\tEducational users sign up for CamScanner \xe2\x80\x93 Remove ads and watermark and get extra 200M-\tUsers of full version sign up for CamScanner \xe2\x80\x93 Get extra 200M Free version is an ad-supported version and scanned documents are generated with watermark. Cloud Storage services - Evernote, SkyDrive are available for 7 days. a limit of 30 pages for annotationsCheck out other INTSIG products:CamCard - Business Card ReaderCamDictionary - Snap TranslatorIS Contacts Kit \xe2\x80\x93 Back up all your contactsWe'd love to hear your feedback:  asupport@intsig.com Follow us on Twitter: @CamScannerLike us on Facebook: CamScannerFollow us on Google+: CamScannerRecent changes:Advanced Document Management-\tOCR for Search allows you to easily find keywords within PDF files.-\tDocument editing goes smarter by adding annotations on documents-\tAuto detect and adjust document orientation save you time and steps-\tNew PC browser access to all your documents at www.camscanner.net-\tShare documents from www.camscanner.net via copying document URL or social mediav2.1.1: bugfixes"
p4
tp5
tp6
.