((S'Title'
p0
S'Check - Bills & Money '
p1
tp2
(S'Description:'
p3
S'Check (formerly Pageonce) is an award-winning app that stays on top of your bills & money for you, so you never miss a bill or get hit with overdraft & late fees again. Just set it up once and the app goes work \xe2\x80\x93 proactively staying on top of your bills and monitoring your bank accounts and credit cards, all in one place. When bills are due or funds are low, the app will let you know so you\xe2\x80\x99re never caught off guard.Loved by the Press & Featured in Google Play:\xe2\x98\x85 "Cadillac of money management apps" \xe2\x80\x93 CNN Money (May 2012)\xe2\x98\x85 Google Editor\xe2\x80\x99s Choice (2011-2012)\xe2\x98\x85 Google Staff Picks (2011-2013)\xe2\x98\x85 PC World "30 Sites You Should Be Using Right Now" (Dec 2011)\xe2\x98\x85 Top 25 Android Apps for Moms (Dec 2011)How our app keeps your bills & money in check:\xe2\x80\xa2 Get reminders when bills are due \xe2\x80\xa2 Pay on the spot and schedule bill payments for free\xe2\x80\xa2 Conveniently pay bills with a bank account or credit card*\xe2\x80\xa2 See all your bills & accounts in one centralized place \xe2\x80\xa2 Receive alerts when funds are low or credit limits are nearThe Check app pays your bills on time so you never stress about missing a bill again \xe2\x80\x93 we\xe2\x80\x99ll remember so you don\xe2\x80\x99t have to. Get reminders when bills are due, then pay them on the spot or schedule the payment for later. No stamps, no phone calls, no hassle.The Check app keeps it all together in once central place. With multiple credit cards, bank accounts, and numerous bills to keep track of, it\xe2\x80\x99s too easy to overdraft, miss a payment or exceed credit limits. With our app, you never have to worry because you\xe2\x80\x99ll always know exactly where you stand.Our Triple Layer Security ensures your information is safe & secure.1. Bank-Level Security: Our app is armed with the same 128-bit encryption and physical security standards as your bank. The app is also verified and monitored by third party security experts such as TRUSTe, McAfee, Hacker Safe and Verisign.2. In-App Security & Remote Data Destruct: Safeguard app access with a 4-digit PIN, so only you can view your account. If your smartphone is ever lost or stolen, delete all your account information remotely.3. Real-Time Alerts: If the app notices any large purchases or unusual charges in your account, you\xe2\x80\x99ll be notified immediately via real-time push messages and emails.It\xe2\x80\x99s easy to get started:1. Download the Check app 2. Securely connect all your accounts to get reminders & alerts3. Relax, while the app stays on top of it all, for you!* Paying bills using your bank account is free; paying with your credit or debit card includes a transaction fee.The Check app supports thousands of banks including Bank of America, Capital One, Chase Bank, Wells Fargo Bank, Citibank, US Bank, PNC, and more! With any of our thousands of supported providers, you can track your cash balance, mortgage, loans, bills & keep track of interest rates & finance charges.We also support credit unions across the country, like the USAA, Navy Federal Credit Union, America First Credit Union, Schools First Federal Credit Union, Digital Federal Credit Union, Golden1 Credit Union, Patelco Credit Union and many, many more.All the most popular credit cards are available in the app: Discover Cards, American Express Credit Cards, Bank of America Credit Cards, Capital One Credit Cards, Citibank Credit Cards, and Chase Credit Cards are just a handful of the cards you can access with the Check app.Popular bills conveniently tracked and paid directly via the app by more than 8 million Check users include Verizon Wireless, Sprint, Comcast, AT&T, T-Mobile, Orchard Bank, DirecTV, all major credit cards, mortgages, local and regional utilities, and more.  Our users love us!Recent changes:EXCITING NEWS: We have a new name & app icon - Pageonce is now Check! It\xe2\x80\x99s the same great app you know and love, with a name that better reflects what we do. We hope you like it as much as we do!New in Previous Versions:\xe2\x98\x85 Conveniently pay your Credit Card bill with a Debit Card (transaction fee applies)\xe2\x98\x85 Pay Anyone \xe2\x80\x93 pay local bills such as rent, gardeners, piano teachers, and more!\xe2\x98\x85 Free Bill Pay when you pay with your bank account\xe2\x98\x85 Pay bills with a Credit Card (transaction fee applies)'
p4
tp5
tp6
.