((S'Title'
p0
S'Cielo Mobile '
p1
tp2
(S'Description:'
p3
S'A Cielo mais uma vez saiu na frente e desenvolveu uma inovadora solu\xc3\xa7\xc3\xa3o de pagamento m\xc3\xb3vel transformando seu smartphone ou tablet com sistema operacional Android em uma m\xc3\xa1quina da Cielo. Ideal para clientes que necessitam de praticidade e mobilidade no seu dia a dia.Al\xc3\xa9m de pr\xc3\xa1tica, a solu\xc3\xa7\xc3\xa3o garante a prote\xc3\xa7\xc3\xa3o de dados dos seus clientes no momento da transa\xc3\xa7\xc3\xa3o, pois os dados s\xc3\xa3o criptografados e nenhuma informa\xc3\xa7\xc3\xa3o permanece armazenada no aparelho.Voc\xc3\xaa realiza transa\xc3\xa7\xc3\xb5es com cart\xc3\xb5es de cr\xc3\xa9dito Visa, MasterCard, American Express, Diners, Aura e ELO, \xc3\xa0 vista ou parcelado. Pode enviar comprovante por e-mail, consultar e cancelar, tudo de forma simples e r\xc3\xa1pida. IMPORTANTE: *Esta solu\xc3\xa7\xc3\xa3o \xc3\xa9 compat\xc3\xadvel com todas as operadoras de Telefonia (Claro, Vivo, TIM, Oi e etc) e v\xc3\xa1lida para todo o territ\xc3\xb3rio nacional. *Funciona com conex\xc3\xa3o 3G, EDGE, GPRS e rede sem fio Wi-Fi.Para utilizar o aplicativo em seu aparelho voc\xc3\xaa precisa ligar para para Central de Relacionamento Cielo e solicitar a solu\xc3\xa7\xc3\xa3o de pagamento m\xc3\xb3vel Cielo Mobile.4002-5472 \xe2\x80\x93 capitais e regi\xc3\xb5es metropolitanas ou 0800-570-8472 para demais localidades. Segunda-feira a s\xc3\xa1bado, das 8 \xc3\xa0s 22 horas.O credenciamento na Cielo ser\xc3\xa1 formalizado por meio de ades\xc3\xa3o ao Contrato de Afilia\xc3\xa7\xc3\xa3o ao Sistema Cielo, registrado em 31/05/2010, junto ao 4\xc2\xba Registro de T\xc3\xadtulos e Documentos de S\xc3\xa3o Paulo, SP, sob o n\xc2\xba 5113039. A ades\xc3\xa3o do lojista ou profissional liberal ao contrato ocorrer\xc3\xa1 no momento em que este realizar a primeira venda pelo aplicativo da Cielo. O Contrato de Afilia\xc3\xa7\xc3\xa3o ao Sistema Cielo pode ser acessado no site www.cielo.com.br.Para credenciamento American Express, solicite a sua afilia\xc3\xa7\xc3\xa3o atrav\xc3\xa9s do telefone 4004-5040 (capitais) ou 0800 728-5040 (demais localidades) .Por meio da ades\xc3\xa3o aos contatos acima o cliente Cielo fica ciente e concorda com todas as condi\xc3\xa7\xc3\xb5es do Contrato e assume os riscos inerentes a esta modalidade de transa\xc3\xa7\xc3\xa3o.Recent changes:Estamos constantemente aprimorando nosso aplicativo para torn\xc3\xa1-lo ainda melhor e mais f\xc3\xa1cil de usar.Veja o que mudou nesta vers\xc3\xa3o:- Recebimento (opcional) de notifica\xc3\xa7\xc3\xb5es, avisos e promo\xc3\xa7\xc3\xb5es atrav\xc3\xa9s da tecnologia de Push Notification.- Melhorias no texto de \xe2\x80\x9cAjuda\xe2\x80\x9d para tornar ainda mais f\xc3\xa1cil o entendimento e uso do aplicativo.'
p4
tp5
tp6
.