((S'Title'
p0
S'CineTrailer Movie '
p1
tp2
(S'Description:'
p3
S'\xe2\x98\x85 NOTE: English movie listings refer to UK market \xe2\x98\x85CineTrailer.tv shows the latest updates about movies you can find in cinemas and on DVD.\xe2\x98\x85 HQ Trailer\xe2\x98\x85 Optimized for Tablets & Nexus 7\xe2\x98\x85 Push Notifications\xe2\x98\x85 Film in Theatres (UK) and on DVD (UK)\xe2\x98\x85 Share function\xe2\x98\x85 Movie reminder\xe2\x98\x85 Movie infos complete with synopsis, cast e trailer\xe2\x98\x85 Movie finder (Germany, Italy)\xe2\x98\x85 Choice among 9 languages and 11 european markets------------ New in version 2.8 -------------\xe2\x80\xa2  Now you can add a movie reminder in your calendar\xe2\x80\xa2  Code Optimization------------ New in version 2.7 -------------\xe2\x80\xa2  Optimization for Tablets\xe2\x80\xa2  Save posters and gallery images\xe2\x80\xa2  "Search by genre" feature moved in home page------------ New in version 2.6 -------------\xe2\x80\xa2  Added movie sharing option------------ New in version 2.5 -------------\xe2\x80\xa2  Added movie showtimes (powered by google)\xe2\x80\xa2  Some ICS bug fixed\xe2\x80\xa2  Minor bug fixes------------ New in version 2.2 -------------\xe2\x80\xa2  Added "search by genre" feature\xe2\x80\xa2  Implemented push notification via Google C2DM (only available on devices running Android 2.2 or higher that also have the Market application installed and at least one logged in Google account)\xe2\x80\xa2  New video player: it shows related videos in portrait view, put it in landscape position for full screen view\xe2\x80\xa2  Start video touching the preview image in the movie page (only in portrait view)\xe2\x80\xa2  Be notified when new movies are available in theaters and when new videos are released------------ New in version 2.0 -------------\xe2\x80\xa2  Revamped user interface and code\xe2\x80\xa2  Movie and Actor Search (also vocal)\xe2\x80\xa2  Fast language change (no more database updates)\xe2\x80\xa2  Landscape/Portrait setting\xe2\x80\xa2  Tablet compatible (Galaxy Tab, etc)\xe2\x80\xa2  Colored theme choices for User Interface\xe2\x80\xa2  Selective cache deletion\xe2\x80\xa2  Automatic trailer quality\xe2\x80\xa2  Dynamically loading movie lists\xe2\x80\xa2  Swipe between listsMovie page\xe2\x80\xa2  Image preview\xe2\x80\xa2  Click on Actors now opens "more movies" by the same actor\xe2\x80\xa2  Full screen poster with a click on the thumbnail\xe2\x80\xa2  Movie PhotoGallery with infosTag: cinema, trailer, movie finder, cast, poster, photo, coming soon, home video, dvd, blu-ray, film, HQ, HD, Tablet, TabRecent changes:Version 2.8.3\xe2\x80\xa2  Improved image cache management\xe2\x80\xa2  Minor bug fixesVersion 2.8.2\xe2\x80\xa2  Improved connectivityVersion 2.8.1\xe2\x80\xa2  Improvements to movie reminder featureVersion 2.8.0\xe2\x80\xa2  Now you can add a movie reminder in your calendar\xe2\x80\xa2  Code OptimizationVersion 2.7.0\xe2\x80\xa2  Optimization for Tablets\xe2\x80\xa2  Save posters and gallery images\xe2\x80\xa2  "Search by genre" feature moved in home page\xe2\x80\xa2  Minor bug fixes'
p4
tp5
tp6
.