((S'Title'
p0
S'CoinKeeper: expense tracker '
p1
tp2
(S'Description:'
p3
S'Personal finance management, budget, bills, income and expense tracker. Famous budget tracking app for Android! Find out where your money goes! Plan your budget and savings. Enjoy the fastest way to track daily expenses using a comprehensive one-screen view of your finances. Improve your skills with a unique, game-like feel. \xe2\x9d\xa4 \xe2\x80\x9cI would definitely recommend it if you are looking for a less tedious way to budget". --- AppAdvice.com \xe2\x9d\xa4 "CoinKeeper is by far the best and easiest to use personal finance app I\xe2\x80\x99ve ever used" --- 148apps.com\xe2\x9d\xa4 \xe2\x80\x9cCoinKeeper is a budgeting app that takes a unique and very visual route to achieving financial control.\xe2\x80\x9d --- Tap! MagazineKey features:\xe2\x9c\x94 NEW! Data export into *.csv (other formats are in the works)\xe2\x9c\x94 NEW! Full freedom of budgeting! Set custom budgeting periods (week, 2 or 4 weeks, month, quarter, year) starting from any date\xe2\x9c\x94 Quick start with autobudgeting mode\xe2\x9c\x94 Multiple accounts and currencies\xe2\x9c\x94 Add transactions in couple of seconds - just drag a coin from the account you want to charge into an expense category\xe2\x9c\x94 The fill level and color of each expense category instantly shows where you\xe2\x80\x99re overspending\xe2\x9c\x94 Reminders of upcoming bills & recurring transactions\xe2\x9c\x94 Financial goals help you save money for things you\xe2\x80\x99re dreaming about\xe2\x9c\x94 Subcategories provide details on exactly how you spent your money\xe2\x9c\x94 The subscription is linked to a cloud profile. Use shared data on several devices (smartphones and tablets). \xe2\x9c\x94 Make payments from tablets without a GSM module.\xe2\x9c\x94 Captivating game mechanics stimulate smart budgeting\xe2\x9c\x94 Password protection of your data\xe2\x98\x85\xe2\x98\x85\xe2\x98\x85\xe2\x98\x85\xe2\x98\x85 TRIAL \xe2\x98\x85\xe2\x98\x85\xe2\x98\x85\xe2\x98\x85\xe2\x98\x85Thank you for choosing CoinKeeper. All the main features (except synchronization) are for free to use for 15 days. In 15 days you will be prompted to purchase the full version. To access the information regarding pricing plans and to obtain the synchronization function before the end of the trial period, please see "Settings -> Your profile".\xe2\x98\x85\xe2\x98\x85\xe2\x98\x85\xe2\x98\x85\xe2\x98\x85NEW! Need more time to evaluate CoinKeeper? Share information about us in your Facebook or Twitter and receive 14 more days of trial!Plus:\xe2\x9e\x9c One-screen overview of your finances\xe2\x96\xb8 Income source panel (green) - where your money come from and how much (budget for each source)\xe2\x96\xb8 Accounts panel (red) - where you store your money, cash or cashless\xe2\x96\xb8 Expense categories panel (black) - what you spend your money on with an optional budget for each category\xe2\x96\xb8 Financial goals panel (yellow) - what you are saving for and how much.\xe2\x96\xb8 You can rearrange and edit icons on main screen at any time, also change category names and budgets via the \xe2\x80\x9dEdit\xe2\x80\x9d menu in your Profile.\xe2\x9e\x9c Sync & backup\xe2\x96\xb8 Instant or daily server backup to safely secure your data\xe2\x96\xb8 Synchronization between multiple devices with the same personal profile for shared budgeting\xe2\x9e\x9c One-click history of transactions\xe2\x96\xb8 View history of transactions by taping on any income source, account or expense category.\xe2\x96\xb8 Any transaction can be edited (by taping on it) or deleted (by swiping)\xe2\x96\xb8 On this screen you can also add transactions in extended mode - with notes and frequency (daily, weekly etc)\xe2\x9e\x9c Reports & statistics\xe2\x96\xb8 History of income and expenses month by month. Apply filters, view dynamics of any income source, expense category, net income and net worth, choose custom periods of time and build forecasts!\xe2\x96\xb8 Monthly breakdown of expenses by categories and subcategories. Overview expense distribution for any period of time. See stats on expenses in different accounts.\xe2\x96\xb8 History of your daily incomes and expensesIf you need any assistance with the application please contact help@coinkeeper.me'
p4
tp5
tp6
.