((S'Title'
p0
S'ColorDict Dictionary Wikipedia '
p1
tp2
(S'Description:'
p3
S"Universal Dictionary Color Dict.Search a word and translate a sentence in Wikipedia, Wordnet, StarDict, It's the best all-in-one dictionary on the market\xe2\x80\xa2 Fast search in online & offline dictionaries at once\xe2\x80\xa2 Download free dictionaries on market & internet.\xe2\x80\xa2 Long click to share search result\xe2\x80\xa2 Long click for word jump feature.Feature\xe2\x80\xa2 Supports Quick Search Box\xe2\x80\xa2 Supports ColorNote App - ColorNote dictionary integration\xe2\x80\xa2 Supports StarDict compatible dictionaries\xe2\x80\xa2 Supports Wordnet dictionary\xe2\x80\xa2 Words suggestion\xe2\x80\xa2 Saves search history\xe2\x80\xa2 Change color of dictionary\xe2\x80\xa2 Select a word in a result\xe2\x80\xa2 Send a result to other apps\xe2\x80\xa2 Text-to-speech\xe2\x80\xa2 Voice recognition\xe2\x80\xa2 Use Volume Key to move between resultE-Book Reader that supports ColorDict\xe2\x80\xa2 FBReader\xe2\x80\xa2 Moon+ Reader\xe2\x80\xa2 Cool Reader\xe2\x80\xa2 ezPDF ReaderStarDict dictionary \xe2\x80\xa2 Download a file to your PC\xe2\x80\xa2 Copy compressed file(tar.bz2, *.tar.gz, *.zip) to sdcard /dictdata directoryor \xe2\x80\xa2 Dict - Menu - Direct Download - Enter URLOffline dictionaries : (Download Add-On)\xe2\x80\xa2 English Wordnet offline dictionary\xe2\x80\xa2 English thesaurus offline dictionary (stardict)\xe2\x80\xa2 English-Japanese offline dictionary (stardict)\xe2\x80\xa2 English-Chinese offline dictionary (stardict)\xe2\x80\xa2 English-German offline dictionary (stardict)\xe2\x80\xa2 English-Spanish offline dictionary (stardict)\xe2\x80\xa2 Bible offline dictionary (stardict)Online dictionary \xe2\x80\xa2 Wikipedia encyclopedia (included)Wikipedia\xe2\x80\xa2 Wikipedia online encyclopedia\xe2\x80\xa2 English, Japanese, Czech, German, French, Chinese, Italian, Spanish, Korean, Russian, Dutch, and many other languages.Google Translate [This feature is removed]\xe2\x80\xa2 Google Translate, Google Dictionary.\xe2\x80\xa2 Google's online translation & dictionary Add-on\xe2\x80\xa2 Translate English, Japanese, Czech, German, French, Chinese, Italian, Spanish, Korean, Russian, Dutch, and many other languages.Developer\xe2\x80\xa2 Supports Dictionary API for 3rd party developerKeywords\xe2\x80\xa2 Dictionary, Translate, StarDict, Wordnet, Thesaurus, English Dictionary, English Thesaurus, FBReader, Cool Reader, Moon+ Reader, ezPDF Reader, Wikipedia, ColorNote, Color Note, encyclopediaRecent changes:3.7.1, 4.2.1- Force close bug fixed4.2.0- Tap to select a word.- ColorDict can receive share from other apps- Supports samsung multi windows3.7.0, 4.1.8- Remove '.' and ',' automatically in ezPDF integration.- Wordnet & Thesaurus dicts are included as default3.6.6 & 4.1.6- Save history order - Send history- Improved e-book reader integration3.5.1 & 4.0.1- Supports stardict uncompression : zip, tar.gz, tar.bz2 - Developer API updated"
p4
tp5
tp6
.