((S'Title'
p0
S'Color Themes for Facebook '
p1
tp2
(S'Description:'
p3
S'\xe2\x98\x85 ONE OF THE 2012 TOP APPS\xe2\x98\x85 TOP 100 SOCIAL APPS WORLDWIDECreate your own Facebook! Customize Facebook with themes and skins!Facebook Color Themes for Android provides awesome themes to have a unique Facebook experience! Make your own Facebook fancy and fun!One of the most addictive apps on Android!Want to customize your Facebook? Want to enjoy Facebook with your own colors? Rasta, Red Wine, Brazil, Aurora Borealis, Color Chic, Clean Modern, Pink Girl, Dark Light, Tropical...Never get the dull white & blue Facebook colors again! You can also have your own country theme: Brazil, UK, US, France, India, Israel,...!We now support the latest Facebook web app. With Facebook Themes, you can customize Facebook Touch with your own colors. Go pink, black and white, rainbow or any other of our most popular themes, or just go by the standard Facebook colors. REVIEWS\xe2\x98\x85 \xe2\x98\x85 \xe2\x98\x85 \xe2\x98\x85 \xe2\x98\x85 "So much better than the Facebook app!" - Justin"I love to have my own Facebook experience!" - Mandy"The best personalization app!" - NicoleDownload and enjoy :)\xe2\x98\x85\xe2\x98\x85\xe2\x98\x85 If you do not want ads in your app, just download the Ad Free version here: http://bit.ly/XH4H0s \xe2\x98\x85\xe2\x98\x85\xe2\x98\x85\xe2\x98\x85\xe2\x98\x85\xe2\x98\x85 Issue with our app? Suggestions for a new theme? - Please send us an email: support@jmtapps.com \xe2\x98\x85\xe2\x98\x85\xe2\x98\x85Tags: facebook, themes, customize facebook, fb, skin, facebook wallpaper, wallpaper, wallpapers, black, red, yellow, custom facebook, custom facebook, personal facebook, create own facebook, social network, fb skin, fb wallpaper, background, facebook background, entertainement facebook, have your own facebook, color, colors, color themes, layout, layouts, socialize, socialNote: We are not affiliated or related to Facebook in any way and we do not capture or keep your Facebook information.Recent changes:\xe2\x98\x85 Premium version with no ads: http://bit.ly/XH4H0s\xe2\x98\x85 New menu with many more themes including your country themes!\xe2\x98\x85 Speed optimization to enhance your experience'
p4
tp5
tp6
.