((S'Title'
p0
S'ComicRack Free '
p1
tp2
(S'Description:'
p3
S'ComicRack for Android is the companion for the best eComic Reader and Manager for PCs: ComicRack for WindowsOptimized for phones and tablets it allows you to read your eComics anywhere you want.When used together with ComicRack for Windows it allows automatic synchronization of eComics with your Android device via USB, including reading positions, reading lists and bookmarks. Your synchronized eComics will also be converted and optimized so they can be read fast an reliable on your handheld device. And best of all, this way you can read all the formats ComicRack for Windows supports (PDFs and even WebComics). Optionally the eComics can even be size optimized during synchronization which usually makes them half the size without noticeable quality reduction.ComicRack includes a Live Wallpaper that shows random covers from your library. You can even start reading by double tapping the background.ComicRack also includes a highly configurable app widget that allows you to glimpse into your library and start reading immediately if you see something you like.Short feature list:\xe2\x80\xa2 Optimized for phones and tablets\xe2\x80\xa2 Reader with single and double page viewing\xe2\x80\xa2 Advanced zoom modes\xe2\x80\xa2 Auto scrolling\xe2\x80\xa2 Right left to right reading mode for mangas\xe2\x80\xa2 Color adjustments\xe2\x80\xa2 Automatic page cropping for small devices\xe2\x80\xa2 Full library management with lists and searching\xe2\x80\xa2 Management of reading states (unread, completed, bookmarks etc.)\xe2\x80\xa2 USB synchronization with ComicRack for Windows\xe2\x80\xa2 Reads CBZ and CBR natively\xe2\x80\xa2 When used together with ComicRack for Windows it supports CBZ, CBR, CB7, CBT, PDF, DJVU and WebComics\xe2\x80\xa2 Live Wallpaper\xe2\x80\xa2 App Widget\xe2\x80\xa2 Twitter integrationThis is the add supported free version. If you like the program and want to get rid of the ads, get wireless synchronization and in general do a good thing, please buy the full version.Troubleshooting:If you experience any bugs it is best to post your problems in the appropriate section of the user forum.Online Resources:Documentation is located athttp://comicrack.cyolito.com/documentation/comicrack-for-androidFAQ is available athttp://comicrack.cyolito.com/faqs/comicrack-androidUser and Support Forum is athttp://comicrack.cyolito.com/forumEven if you have no problems you can  join and talk to other ComicRack users.Recent changes:\xe2\x80\xa2 Improved visual quality of small thumbnails on some devices\xe2\x80\xa2 Added "Reading" filter to wallpaper and widget\xe2\x80\xa2 Fixed possible FC during database initialization\xe2\x80\xa2 Fixed possible FC when disabling auto change in wallpaper\xe2\x80\xa2 Fixed some possible FCs in reader\xe2\x80\xa2 Fixed changing preferences with running life wallpaper on pre Honeycomb devices\xe2\x80\xa2 Fixed animations/transitions for right to left reading mode-A full list of changes is available in the "About" screen in ComicRack.'
p4
tp5
tp6
.