((S'Title'
p0
S'Compass '
p1
tp2
(S'Description:'
p3
S'ANDROID\'S LEADING COMPASS APP Featured in \xe2\x80\x9cBest Android Apps, The Guide for Discriminating Downloaders\xe2\x80\x9d, published by O\xe2\x80\x99Reilly Media, Compass by Catch.com is the most popular compass app available. NEVER GET LOSTCompass view with location display and geo-tagged notes lets you not only steer in the right direction, but view maps and keep notes of the places you visit. REMEMBER IMPORTANT PLACES\xe2\x80\xa2\tSave your favorite places (home, work place, school, restaurant, shops, etc.) or even your car location. Navigate back to them later with Google Navigation.\xe2\x80\xa2\tCapture and view your location-based notes in your area using the free Catch app. CHOOSE FROM MULTIPLE COMPASS TYPES Compass is a free app that includes 5 basic compass types "Vintage"\xe2\x80\xa2\tAntique dial, direction names adjust for user\'s language."Digital"\xe2\x80\xa2\tOuter dial can be manually rotated, green inner dial shows direction name in user\'s language, crisp pointer movement with no overshoot."GPS"\xe2\x80\xa2\tRed section shows magnetic compass information including direction, magnetic field strength and declination.  Green sections show GPS-based information including direction of movement, speed, altitude, and accuracy estimate.  Pitch and roll indicators."NightVision"\xe2\x80\xa2\tRed outline on black styling for easy reading in low-light conditions. PREPARE FOR ADVENTURENow Compass offers premium compass themes with a simple in-app purchase. Choose from among our Urban Hiker, Space Cowboy, Sea Navigator and Special Ops themes, or buy all four for one low price. \xe2\x80\x9cUrban Hiker\xe2\x80\x9d\xe2\x80\xa2\tHand points up, compass dial rotates underneath it.  Shows direction and latitude/longitude below the compass.  Paper texture and city skyline background.\xe2\x80\x9cSpecial Ops\xe2\x80\x9d\xe2\x80\xa2\tShows magnetic compass information including direction, magnetic field strength and declination.  Also shows GPS-based information including direction of movement, speed, altitude, and accuracy estimate.  Pitch and roll indicators.\xe2\x80\xa2\tDigital camouflage background.\xe2\x80\x9cSea Navigator\xe2\x80\x9d\xe2\x80\xa2\tOuter dial can be manually rotated, inner dial points north with slight overshoot, "moving" direction below compass.\xe2\x80\x9cSpace Cowboy\xe2\x80\x9d\xe2\x80\xa2\tInner digital direction indication with finely-marked outer dial.  Dial movement is crisp.  Latitude and longitude below compass. Internet permission is used only for Google Analytics so we know which features are used the most and where to improve. There is no unique identifier tied to your usage, and your data is not shared.Note that this app relies on the mobile device\xe2\x80\x99s magnetometer so accuracy may vary.Recent changes:New in 3.2.2:- Updated support/FAQ link- Various bugfixesNew in 3.2.1:- Removed a third-party library that was causing crashes for some usersNew in 3.2:- Various bugfixesNew in 3.1.5:- Analog compass theme is correctly saved in preferencesNew in 3.1:- Restore Analog free compass theme- Fixes to purchase tracking- Improved animation'
p4
tp5
tp6
.