((S'Title'
p0
S'Cracked Screen Live Wallpaper '
p1
tp2
(S'Description:'
p3
S'Cracked Screen Live Wallpaper makes your friends think that your smartphone\'s screen is broken or cracked.To use: Home -> Menu -> Wallpapers -> Live WallpapersTo develop more free great live wallpapers, we have implemented some ads in settings.Advertisement can support our develop more free great live wallpapers.Our wallpaper contains "NO notification or icon ads"!!Note: If your wallpaper resets to default after reboot, you will need put the app on phone instead of SD card.Recent changes:- Updated latest Android 4.2.2 SDK- Removed "Download a free game" link'
p4
tp5
tp6
.