((S'Title'
p0
S'Curso de Excel 2010 '
p1
tp2
(S'Description:'
p3
S'T\xc3\x8dTULO: Curso Completo de Microsoft Excel 2010IDIOMA: Espa\xc3\xb1olTIPO: Curso - ManualCurso Completo de Excel 2010.TODOS LOS NIVELES- CURSO B\xc3\x81SICO- CURSO AVANZADOContenido extra:- AVANZADO MACROSExcel 2010 es un programa que sirve trabajar con n\xc3\xbameros y operaciones de una forma f\xc3\xa1cil y r\xc3\xa1pida. \xc2\xbfCu\xc3\xa1ntas veces has tenido que volver a empezar una cuenta porque te equivocas usando la calculadora?.En Excel, si ud. escribe mal un n\xc3\xbamero basta con corregirlo para que obtener el resultado correcto, autom\xc3\xa1ticamente.  \xc2\xbfPara qu\xc3\xa9 sirve Excel 2010?Excel 2010 sirve para hacer tareas de la vida cotidiana, como el presupuesto mensual de sus gastos; tambi\xc3\xa9n sirve para actividades laborales, como manejar las calificaciones de tus estudiantes, un sin fin de utilidades...Todo lo que imagines que se puede hacer con operaciones matem\xc3\xa1ticas podr\xc3\xa1s hacerlo con Excel 2010.\xc2\xa1Las posibilidades son infinitas!Contenido del Curso:NIVEL B\xc3\x81SICO:Introducci\xc3\xb3n Iniciar Excel 2010 Componentes de la pantalla de Excel Cinta de opciones o \xe2\x80\x9cRibbon\xe2\x80\x9d Introducir datos en una hoja de trabajo Desplazamiento por la hoja de c\xc3\xa1lculo Introducir texto Introducir n\xc3\xbameros Modificar la hoja de trabajo Seleccionar celdas Cambiar el tama\xc3\xb1o las columnasCambiar el tama\xc3\xb1o las filas Formato de las celdas Funci\xc3\xb3n autoformato Insertar o remover filas y columnas Nombrar hojas de trabajo Guardar un libro de c\xc3\xa1lculos Imprimir una hoja de trabajo Cerrar un libro de c\xc3\xa1lculos Crear un nuevo libro de c\xc3\xa1lculos Abrir un libro de c\xc3\xa1lculos existente Salir de Excel Crear f\xc3\xb3rmulas Entrar f\xc3\xb3rmulas usando operaciones aritm\xc3\xa9ticasEntrar f\xc3\xb3rmulas usando funciones Copiar f\xc3\xb3rmulas Creaci\xc3\xb3n de gr\xc3\xa1ficas Prueba de destrezas ReferenciasNIVEL AVANZADO:Introducci\xc3\xb3n Excel 2010 vs Excel 2007 Elementos de Excel Descripci\xc3\xb3n general de las tablas de Excel Crear una tabla Convertir una tabla en un rango de datos Eliminar una tabla Controlar la lista desplegable empleando desencadenadores de visualizaci\xc3\xb3nActivar o desactivar F\xc3\xb3rmula Autocompletar \xc2\xbfQu\xc3\xa9 es la validaci\xc3\xb3n de datos? \xc2\xbfCu\xc3\xa1ndo es \xc3\xbatil la validaci\xc3\xb3n de datos? Mensajes de validaci\xc3\xb3n de datos Sugerencias para trabajar con la validaci\xc3\xb3n de datos Agregar validaci\xc3\xb3n de datos a una celda o rangoLista personalizada Aplicar formato condicional F\xc3\xb3rmulas y constantes matriciales Utilizar constantes en f\xc3\xb3rmulasUtilizar operadores de c\xc3\xa1lculo en f\xc3\xb3rmulas Utilizar funciones y funciones anidadas en f\xc3\xb3rmulas Evitar errores comunes al escribir f\xc3\xb3rmulas Importaci\xc3\xb3n de datos a Excel Importaci\xc3\xb3n de datos desde Microsoft SQL Server Subtotales Totales generales Subtotales anidados Subtotales exteriores Insertar subtotales individualesIntroducci\xc3\xb3n a an\xc3\xa1lisis Y SI Preparar previsiones y modelos empresariales avanzadosAcelerar los c\xc3\xa1lculos en una hoja de c\xc3\xa1lculo que contiene tablas de datosRealizar an\xc3\xa1lisis de regresi\xc3\xb3n con el complemento Herramientas para an\xc3\xa1lisisCrear un informe resumen de escenarioEjemplo paso a paso Preparar la hoja de c\xc3\xa1lculo Usar Buscar objetivo para determinar el tipo de inter\xc3\xa9s \xc2\xbfQu\xc3\xa9 es la herramienta Solver de Excel? Qu\xc3\xa9 es la optimizaci\xc3\xb3nDefinir un modelo de optimizaci\xc3\xb3n Celda objetivoCeldas cambiantes Restricciones \xc2\xbfC\xc3\xb3mo puedo especificar este modelo en Solver? \xc2\xbfPor qu\xc3\xa9 es lineal este problema de Solver? Una vez demostrado que nuestro modelo de mezcla de productos es lineal, \xc2\xbfpor qu\xc3\xa9 preocuparse?\xc2\xbfUn modelo Solver tiene siempre una soluci\xc3\xb3n?\xc2\xbfQu\xc3\xa9 ocurre si los valores definidos no convergen?CONTENIDO EXTRAAVANZADO MACROS:MACROSCREAR MACROS EN MS EXCEL PREPARAR EL LIBRO DE EXCEL PARA TRABAJAR CON MACROSGRABAR MACROS EJECUTAR MACROS ACCESAR AL AMBIENTE DE VISUAL BASIC MODIFICAR MACROS C\xc3\x93DIGOS M\xc3\x81S COMUNES EN MACROS ASIGNAR UNA MACRO A UN BOT\xc3\x93N DE FORMULARIO ASIGNAR A UNA FORMA BIBLIOGRAF\xc3\x8cA Curso Gratis y Totalmente CompletoMas informaci\xc3\xb3n en: http://www.librotecstar.com'
p4
tp5
tp6
.