((S'Title'
p0
S'Dance Music Maker & MP3 Cutter '
p1
tp2
(S'Description:'
p3
S'Creator of your own dance music & ringtones from MP3s on your phone!! An MP3 cutter & ringtone convertor app to style old songs a new way!New free music maker app for you to cut the best part of your old audio songs & save it as your Ringtone/Music File/Alarm/Notification Tones. The cut results are stored in "/sdcard/media/audio". Also record a live dj audio with this new MP3 editor and cut, edit or trim the best parts from it. Tone your dj dance music FREE. Exercise, play, crop, record, trim & rule the party!!Stop searching for best deluxe MP3 ringtones for your phones; tone it up! How to create your own ringtones? This easy to use & most popular ringtones maker app turns your music downloads, favorite MP3 audios to ring tones. Don\xe2\x80\x99t settle for common ringtones. Use your favorite old musics, songs and MP3s to make custom chopped new ringtones!!This Dance Music Ringtone Maker & MP3 Cutter app has inbuilt:- Audio\\ Mp3 Player- Audio\\ Mp3 Cutter- Audio RecorderDance Music Ringtone Maker & MP3 Cutter is a Music Editor/Alarm Tone maker/Ring tones maker/Notification sounds creator. The choices are limited only to the music and audio in your collection and could include: metal, jazz, dubstep, thrash, rock, electronica, old classical, pop, rap, hip hop, dance, christian or polyphonic sms ringtones. Supports MP3s, WAV, AAC, AMR and most other music formats.1.Select mp3/music from your mobile or from Recordings.2.Select area to be chopped from your audio.3.Save as Ringtone/Music/Alarm/Notification.**Features**- Voice Recorder button at top left of app to record your own audio for editing.- Scroll or type to search the stored dj dance music collections for workouts, in phone.- An inverted yellow triangle to select and edit Mp3 from your Mobile/SD.- You can delete the created Ringtone/Music/Alarm/Notification Tone.- Cut a ring tone as short or long as you like, as allowed by your phone.- A waveform display of the dj audio file at 4 zoom levels.- Pad controls are available to set start & end drops of the audio clip, using an optional touch console.- Manually control the Start & End time by typing the values in seconds, in text pad boxes at bottom of equipment.- Tap on the wave & the music player starts playing the beats at that position.- Option to name the new cut/blend clip before setting it as tones for messages/Music/Alarm/Notification Tone.- Set new clip as default dance ringtones or set random customized ring back tones to specific contacts as text messaging tones, using this ring tone generator.Not sure how to get free music? Make ringtones yourself. Best SMS ringtones are the ones you make with your own collection! This app is for tones, tones and ringback tones only. Make ringtones for text messages and contacts.Many things are needed before you can become a DJ than just buying the right dj equipment. People dream of radio dj club life, while others like to entertain people & start their own moves in dance workouts booth. Many dream of radio stardom & the idea of becoming a radio central personality. With this most popular app, you can make dj style sms text messaging ringtones for multiple android devices including: Samsung, HTC, LG, Nokia, Motorola, att, verizon, sprint and tmobile phones.With the record option, you can make your own funny ringbacks tones, moms\' i love you voices, my baby talk ringtones or cute girl laughing/crying sounds. If you have movie/tv soundtracks in your collection, you can make ringtones of old traditional hits, classical music, kiss, sweet tamil hindi telugu mix movie songs & voice tunes, wind chimes, instrumentals, nature beach sounds or rain waterfall effects.Church bells, best bible preachings & islamic quran verses too can be set as revolution ringtones for messages. Fart anime, whistles,animation games, animals, snake & insect sound ringtones are even possible with this ring back tones maker. One of the most popular apps for rapping to your own beats, hero!Recent changes:Improved performance'
p4
tp5
tp6
.