((S'Title'
p0
S'Data Usage '
p1
tp2
(S'Description:'
p3
S'Most popular Data Usage app from iOS .. now available on Android.. Offered free for limited time..Data Usage monitors cellular (3G/4G/LTE/Edge/GPRS) and Wi-Fi data usage real time from your device. Set data quota and billing cycle information and let Data Usage worry about making sure you don\xe2\x80\x99t pay for overages again. MEDIA IS RAVING ABOUT IT..\xe2\x98\x85\xe2\x98\x85\xe2\x98\x85\xe2\x98\x85\xe2\x98\x85Featured utility on CNET.COM ...\xe2\x98\x85\xe2\x98\x85\xe2\x98\x85\xe2\x98\x85\xe2\x98\x85"If your data charges are the thorn in your bill, an app like Data Usage could be really useful. It\xe2\x80\x99s very accurate,.." - AFR.COMApp runs in background and shows real-time usage information as a widget on your home screen.  With this most precise tool, you are always in control of data plan limit and save hundreds or thousands on data overages! Cool feature competitors don\'t have: BILLING PERIODS & SETUP:\xe2\x9c\x94 monthly, weekly and daily quota limits \xe2\x9c\x94 flexible billing period, pre-paid billing, yearly billing, roaming usage etc. \xe2\x9c\x94 separate cellular and Wi-Fi billing cycle and quota settings\xe2\x9c\x94 auto reset on billing period end\xe2\x9c\x94 simple setup \xe2\x80\x93 just enter billing period and quota \xe2\x9c\x94 reads data usage from device no carrier login needed\xe2\x9c\x94 works with ANY phone carrier around the world including but not limited to Verizon, T-Mobile, AT&T, Sprint, O2, Vodafone, Orange, Movistar, Three (3), Bell, Rogers, Claro, Telus, Virgin and Optus**VISUAL MONITORING:\xe2\x9c\x94 monitor used % of quota and actual usage on widget without ever opening app again\xe2\x9c\x94 customize progress bar, data unit and launch settings\xe2\x9c\x94 progress bar turns yellow indicating caution on crossing ideal usage\xe2\x9c\x94 strikingly unique user interface and awesome icon\xe2\x9c\x94 billing period data usage and ideal usage on same progress bar \xe2\x9c\x94 predictive data usage analysis \xe2\x80\x93 estimates likely billing cycle usage based on current usage\xe2\x9c\x94 shows remaining days, quota and quota per day in easy to read format\xe2\x9c\x94 calculates ideal daily usage based on current consumptionBACKGROUND MONITORING & ALERTS:\xe2\x9c\x94 continuous background data usage monitoring \xe2\x9c\x94 real-time customizable alerts on exceeding certain usageHISTORY & CHARTS:\xe2\x9c\x94 History of data usage by billing cycle with daily detail \xe2\x9c\x94 Chart visualization for daily usage and billing cycle usageHELP & SUPPORT:\xe2\x9c\x94 email support from within app \xe2\x9c\x94 full user help included with appNotes:** Android 2.2+ phones that supports retrieving network stats. This program has been tested on some of the major phones only. not all phones are supported. This app features most advanced data usage tracking engine, which is more precise than any other app out there. This is the only app that constantly monitors your usage and ideal usage on same progress bar. For example, if you have 200 MB monthly plan, on 15th day of billing cycle, your ideal usage would be 100 MB. If you are going over ideal usage at any given point in your billing cycle, by default, progress bar will turn yellow. This unique feature ensures that you evenly spread your usage and you are not left with little quota towards end of billing cycle.NOTE: PLEASE INSTALL THIS APP ON DEVICE MEMORY. SD CARD INSTALLATION IS NOT SUPPORTEDRecent changes:New in version 1.1- added support for Jelly Beans (Android 4.1 - 4.2)- reset usage bug fix- fixed widget text cut off issue for most screen sizes- performance enhancements'
p4
tp5
tp6
.