((S'Title'
p0
S'DecoBlend-Collage&Photo Editor '
p1
tp2
(S'Description:'
p3
S'\xe2\x98\x85 It\'s the camera app editing and processing photos that you can decorate cute and easily! \xe2\x98\x85DecoBlend is a photo editor that you can edit the photograph of the memory that have saved the album or taken by the camera. Easily, you can edit a photo with graffiti, stamp, filter (such as black and white or sepia) and frame, such as a text on image by this photo edting app.In addition, you can edit multiple photos in a processing the decorations by collage (cut, synthetic)!It is an important feature of DecoBlend that you can photo editing in combination at a time multiple photos in a decoration.Because we will study thoroughly the photo editor, this photo editor will not let you hurt to download! (With confidence!)See below for more features.------------------------------------------------ [Deco function]\xe2\x96\xa0 FilterYou can get pictures of the stylish atmosphere of a toy camera by simply editing the image that is covered with a filter to the photo. I have a number of  filters to be able to enjoy fully, such as black and white or sepia. I will continue to add at any time the type of filter.\xe2\x96\xa0 StampWe do not get bored because it from time to time update or available line-up of a number of stamp! We offers a wide line-up, "simple", "fancy", "girly", "classic", "Pop", "makeover", "balloon", "message" and "season".\xe2\x96\xa0 RollerYou can decoration with a roller 30 different by simple operation of just stroking your finger on the part to be processed! You will be determined freely even thickness, and you can edit the fashionable image at your fingertips!\xe2\x96\xa0 Pen(drawing)Let the graffiti free hand with a pen of about 50 kinds! You can choose the thickness from 4 pattern. We are going to present to a friend photos of only one in the world that I arranged to put the illustrations or put character in graffiti style!\xe2\x96\xa0 FrameLet\'s save it carefully with the editing to put in a frame your precious photos with a frame of about 30 kinds of image you have put in the album! Type also increases still and frame favorite surely found.\xe2\x96\xa0 Text (text on image)We offers a variety of font type, color, feel of a material character. You can make a photo diary to put character, to present a photo with a message also is recommended. Let\'s put in the character that you think!\xe2\x96\xa0 Blend (collage) functionYou can be combined in one photo multiple photos called collage, to use the function of photo manipulation. After using the "Frame Layout", you can be placed in combination in a frame that is one fixed multiple photos of up to eight. You can use the "free layout", you can be placed freely like size, orientation, layout, to form a plurality of up to 15 sheets. Because we have prepared a pretty background image, you can freely combine multiple photos! You can also create scrapbook of your own by combining in combination with a cutout at will. Let\'s would appeal to photo manipulation for free to everyone in the blog!------------------------------------------------Let\'s post the edited photo that you have decoration to blog and SNS Twitter, facebook, Tumblr, Instagram, such as Pinterest! You should appeal cute by processing the image of the icon and profile using the DecoBlend! We plan to add more and more in the future free of charge function of the image processing collage, stamps, frames, and filter!Please look forward to the future of photo editor DecoBlend!------------------------------------------------Tags:text on image,photo,drawing,camera,photo editor,photo frame,collage,photo effects,collage maker,collage creator,photo grid,photo album,picture collage,photowall,photo wallapaer,instant collage,camera,editing,editor,frames,collage,Merge pictures,brush,filters,makeup,retouch,stickers,decorationRecent changes:[Version 1.5.1]- Fine Tuning[Version 1.5.0]- Renew Twelve Stamps, Two Frames, and Two Rollers.- Fixed a bug that causes a memory over Xperia Z (SO-02E), and select the background when using free layout.[Version 1.4.2]- Improved UI- Fine Tuning[Version 1.4.1]- Improved UI[Version 1.4.0] - Added "Square Trimming" function. - Renew Twelve Stamps, Three Frames, Three Rollers, and One Background.'
p4
tp5
tp6
.