((S'Title'
p0
S'Diamond Dash '
p1
tp2
(S'Description:'
p3
S'60 action packed seconds to match as many colorful diamonds as possible. Enjoy this 5-star arcade experience as you unleash magical boosts and beat your friends\' high scores in the Weekly Tournament. With over 110million playing on Facebook and mobile, this exciting game has hit Android on the back of a lot of success and love. So let\'s get started! \xe2\x98\x85\xe2\x98\x85\xe2\x98\x85\xe2\x98\x85\xe2\x98\x85 PLAYER REVIEWS \xe2\x98\x85\xe2\x98\x85\xe2\x98\x85\xe2\x98\x85\xe2\x98\x85 "High resolution is impressive. Facebook sync is ingenious!" "Super Like. The magic power and jewel rush is just so quick!" "Can\'t decide if this game is cute or crazy - but we LOVE it" \xe2\x98\x85\xe2\x98\x85\xe2\x98\x85 FEATURES \xe2\x98\x85\xe2\x98\x85\xe2\x98\x85 \xe2\x80\xa2 FAST-PACED & COLOR RICH GAMEPLAY 60 seconds to match 3 or as many gems as you can! \xe2\x80\xa2 COMPETE IN WEEKLY FACEBOOK TOURNAMENT Play against your friends, and try to beat them with a high score! 95 Million friends play already! \xe2\x80\xa2 FACEBOOK SYNCHRONIZED Diamond Dash is synchronized with Facebook! Play on your mobile or tablet, and your Facebook scores, friends and tournament will stay in sync! \xe2\x80\xa2 UNLOCK ALL THE SECRETS & MAGIC POWERS Remove gems until you have filled up the Diamond Bar! Don\'t forget to use the diamonds to unleash the Magic Powers! \xe2\x80\xa2 REGULAR UPDATES WITH NEW FEATURES Stay tuned for fast, exciting and challenging features. The game is FREE but you will need lives to keep enjoying the fun. You have 3 options: \xe2\x80\xa2 Purchase. We offer gold and coins for the instant unlocking of Bomb, Time Boost, and the infamous Color Splash powers! \xe2\x80\xa2 Ask your friends \xe2\x80\xa2 Wait a few minutes for a refillThrilling 60 Seconds - Colorful Jewel Blitz - Facebook Arcade Top Title - Now Free on Google Play! Having problems? Any suggestions? We would love to hear from you! You can reach us at customercare-mobile@wooga.com Google+http://woo.ga/GooglePlusBecome a fan for latest news: http://www.facebook.com/diamonddashgame Wooga Visit us at http://wooga.com Follow us on: twitter.com/wooga Like us on: facebook.com/woogaRecent changes:\xe2\x98\x85\xe2\x98\x85\xe2\x98\x85\xe2\x98\x85\xe2\x98\x85 WHAT IS NEW IN VERSION 2.0 \xe2\x98\x85\xe2\x98\x85\xe2\x98\x85\xe2\x98\x85\xe2\x98\x85 - A magnificent new "Magic Power"Try out the amazing SUPER CUBE. Unlock it and use it to reach an even higher score!- Easier unlocking of Magic PowersGet boosts earlier and heat up the competition! Now, each unlocks according to your level.- Uninterrupted fun!Fixed minor bugs for improved gameplay stability.'
p4
tp5
tp6
.