((S'Title'
p0
S'Dictionary.com '
p1
tp2
(S'Description:'
p3
S'The #1 FREE English dictionary app for Android since 2010\xe2\x80\x94with over 2,000,000 definitions and synonyms from Dictionary.com & Thesaurus.com!\xe2\x98\x85 Time Magazine \xe2\x80\x98Top 10 Back-To-School App \xe2\x98\x85 Winner: CNET Top 100 Mobile App Award \xe2\x98\x85Features:* English Dictionary and Thesaurus\xe2\x80\x94over 2,000,000 definitions, synonyms & antonyms* Daily content including Word of the Day, the Hot Word\xc2\xa0& Slideshows* Audio pronunciations\xc2\xa0* Idioms & phrases* Word origin & history* Voice search * Favorite words\xc2\xa0* Search history* Spelling suggestions* IPA and phonetic pronunciations* Commonly looked-up words mapped to specific locations* Medical, legal & financial content* Abbreviations, acronyms & slang content * Word of the Day home screen widget * Compatible with tablet devices like the Nexus 7 & Samsung Galaxy TabGet the Premium Dictionary.com app to enjoy an ad-free experience with example sentences and more.\xe2\x98\x85 Highlighted Reviews in Google Play \xe2\x98\x85 \xe2\x80\x9cThis is, by far, one of the most useful apps I\'ve installed. The free dictionary and thesaurus is fast and always thorough. The achievements make it even more fun to use! I use this DAILY. Thanks!!\xe2\x80\x9d \xe2\x80\x93 Brandon M. \xe2\x80\x9cRecommended! Great English dictionary app. No ridiculous advertising, minimal CPU usage. Runs perfect on evo\'s, one x and plus, Samsung Note, brand Tables, and I\'m sure more. Long time user.\xe2\x80\x9d \xe2\x80\x93 A Google User\xe2\x80\x9cSuch a great app! Way easier than opening your browser every time you need to look up a word, quick thesaurus toggle, and interesting "Word of the Day", "Trending Searches", and even more!\xe2\x80\x9d \xe2\x80\x93 Michelle M. \xe2\x80\x9cI find this app very useful and a great resource. Having the thesaurus feature is an added bonus as I write a lot of papers. The synonym feature is great way to expand your vocabulary. The whole family enjoys it!\xe2\x80\x9d \xe2\x80\x93 Jacquita E .\xe2\x80\x9cGreat for looking up words in both the dictionary and thesaurus, but also has fun features like Word of the Day or interesting content like the Hot Word. Earning Mpoints makes it that much more rewarding.\xe2\x80\x9d \xe2\x80\x93 Louisa N. \xe2\x80\x9cThis app has made life in my law class so much easier. I\'m able to understand the legal definitions provided. Much needed.\xe2\x80\x9d- Stanley O. \xe2\x80\x9cI really enjoy this free app! I use it frequently to learn new words and to check for the correct spelling of words. I especially like to hear the pronunciation of words. This easy to use application provides concise definitions.\xe2\x80\x9d \xe2\x80\x93 A Google User \xe2\x80\x9cI was pleasantly surprised at how easy the app was to use & how thorough the meanings are. I use to carry a small dictionary with me...but now I have my handy dandy phone app. Very convenient...excellent app!\xe2\x80\x9d \xe2\x80\x93 Michelle C. \xe2\x80\x9cIt\'s an amazing free dictionary app. Allows you not only to know the definition, but also allows you a thesaurus to allow a better sense of understanding. 5 stars.\xe2\x80\x9d \xe2\x80\x93 A Google User----This free dictionary app contains advertisements and options to share content via social media.Recent changes:* The widget now displays properly.New in 4.0:\xe2\x80\xa2\tCompletely redesigned and refreshed UI, specifically for Android devices \xe2\x80\xa2\tNew Android action bar and Holo theme\xe2\x80\xa2\tMassive content update with over 2,000 new Dictionary.com entries\xe2\x80\xa2\tFun and informative word slideshows\xe2\x80\xa2\tOptimized for Jellybean and the new Android devices including the Samsung Galaxy 3 & Nexus 4'
p4
tp5
tp6
.