((S'Title'
p0
S'Diet Assistant - Weight Loss \xc3\xa2\xcb\x9c\xe2\x80\xa6 '
p1
tp2
(S'Description:'
p3
S'\xe2\x98\x85 Highest rated diet & weight loss planner app on the Google Play Store! \xe2\x98\x85Take giant leaps on your quest towards your perfect body weight with Diet Assistant \xe2\x80\x93 Weight Loss.  Simply tap in your target weight and the purpose for your new diet, and sit back and allow Diet Assistant \xe2\x80\x93 Weight Loss to present you with brilliant meal options that will tantalise your taste buds and send your metabolism into overdrive.\xe2\x98\x85 We have partnered with Pocket-Change to offer you awesome real rewards & prizes for just using the app! \xe2\x98\x85Diet Assistant \xe2\x80\x93 Weight Loss contains meal plans for vegetarian, pescatarian, and high-protein diets along with many more.  If you are looking to lose weight, maintain your weight, or simply embrace a healthy way of eating and living, this is the application you need.\xe2\x98\x85 Over 2 Millions satisfied users on more than 200 countries! \xe2\x98\x85Key features:\xe2\x80\xa2 Range of diet plans across nutritional categories\xe2\x80\xa2 Dedicated shopping list per each diet plan\xe2\x80\xa2 Options to amend diets and meals to users tastes, with guidance relative to their diet plan\xe2\x80\xa2 Forum facility to discuss ideas and dieting tips with other users\xe2\x80\xa2 Weight-loss manager & coach (kilograms, pounds or stones)\xe2\x80\xa2 Weight Chart / Graph\xe2\x80\xa2 Built-in BMI (Body Mass Index) calculator\xe2\x80\xa2 Customizable weight & shopping list alerts\xe2\x80\xa2 Forum to share your weight loss experience\xe2\x80\xa2 Earn awesome rewards & prizes with Pocket Change\xe2\x80\xa2 Sleek & intuitive UI\xe2\x80\xa2 Personal pocket-size weight-loss manager\xe2\x80\xa2 Works as your personal dietitian & nutritionist\xe2\x80\xa2 Home screen widget\xe2\x80\xa2 Diet and weight-loss tips & tricks\xe2\x80\xa2 Database backup & restore\xe2\x80\xa2 Much more!Whether you go for the in-built menu options or create your own health boosting meal plans, Diet Assistant \xe2\x80\x93 Weight Loss app is your perfect companion as you look to revolutionise your life.  Track your weight against your targets and talk with fellow dieters in the built-in forum to stay motivated and on course to reach your goals!Diet categories include:\xe2\x80\xa2 Vegetarian\xe2\x80\xa2 Pescatarian\xe2\x80\xa2 Low GI\xe2\x80\xa2 High protein\xe2\x80\xa2 Healthy USER REVIEWS: \xe2\x80\xa2 "Absolutely amazing!! This app is so well done. I have been looking for an app that wasn\'t just about weight loss but about getting healthy. Found it!!"\xe2\x80\xa2 "Excellent app! I use it to manage my diet & weight and pair the app with myfitnesspal to count the daily calories"\xe2\x80\xa2 "Helps me stay in control of my weight as well as providing diet choices and recipes"\xe2\x80\xa2 "Diet Assistant makes dieting very easy. One thing I truly love is that you can go in, check your next meal and log a new weigh in less than a minute!" \xe2\x80\xa2 "Lot of nice diet plans to choose from. I\'m combining this app with adidas miCoach for better results!"\xe2\x80\xa2 "Fantastic app! Great diets to choose from, clean interface and weight tracking." \xe2\x80\xa2 "The shopping list is so useful!"\xe2\x80\xa2 "Main point is not counting calories but eating healthy. There are other calorie counter apps that do that for you."\xe2\x80\xa2 "Great app for dieters, very easy to use and well organized. Worth getting the ad-free version"\xe2\x80\xa2 "Works great with CardioTrainer. Must have app for any healthy person!"\xe2\x80\xa2 "This actually works! Not only I lost weight but I even feel better. Thank you so much!!" Social- Follow us on Twitter @DietAssistantAp- Find us on Facebook: http://www.facebook.com/DietAssistantUpgrade to the Pro version to get access to the Custom Diet Editor that allows to create your own diet plans!The recipes displayed on the app are to be used as a guidance only. Because its flexibility "Diet Assistant - Weight Loss" can also be used in combination with apps like Noom ,Calorie Counter or Calorific.keywords: diet app, diets, calorie counter, calories, pocket change rewards, weight-loss, weigh, meal planner, nutrition, points, point, fitness, trainer,personal diets, pocket-size manager, shopping list, recipe search, exercise, push ups, sit ups, weight watchers, watcher, slimming, slim fast, vegetarian, vegan, BMR, atkins, detox, fat, libra, obese, scarsdale diet, GI diet, hcgRecent changes:\xe2\x80\xa2 New forum section with new topics\xe2\x98\x85 We have partnered with Pocket-Change to offer you awesome real rewards for just using the app! \xe2\x98\x85Earn rewards by:- Invite your friends- Update your weight- Remove the ads\xe2\x80\xa2 Loads of improvements to the menu options. You can open the menu on your device by tapping the header. This will display a range of options you can do on the screen.\xe2\x80\xa2 Better access to the weight chart from the weight section\xe2\x80\xa2 Share with other users which diets work best for you!'
p4
tp5
tp6
.