((S'Title'
p0
S'DigiCal+ Calendar & Widgets '
p1
tp2
(S'Description:'
p3
S"Experience the most stylish Android calendar with Holo light and dark themes with 6 powerful calendar views and 5 beautifully designed widgets!\xc2\xa0DigiCal + is the premium version of DigiCal, which is ad-free and offers more widget configuration options. It allows you to change the widget\xe2\x80\x99s transparency level and the font size of the line items. There's also a month widget and a custom background color picker for the day, day list, grid and month widgets. We are planning to release more paid-only features in the near future.\xc2\xa0 Feel free to try the free version before buying.\xc2\xa0---\xc2\xa0DigiCal is a stylish and easy to use calendar application that syncs all your appointment with Google Calendar. You can choose from six powerful calendar views (day, week, agenda, month, text month and list) in both portrait and landscape mode for an optimal user experience. Following the latest Android Holo Light and Dark theme, DigiCal is bringing the clean and intuitive user interface experience to smartphones and tablets running the Android versions 2.2 or higher. DigiCal also comes with five beautiful widgets (list, grid, day, day list and month).\xc2\xa0DigiCal\xe2\x80\x99s innovative features such as the smart action bar make it easy to edit, move, copy, paste and delete events. With our unique built-in location search, adding a location to your event has never been easier. All you need to do is type in the name of the place (cafe, store, park) and DigiCal will automatically look up the address and save it. With this feature, Google Now (Android 4.1+) knows where you'll need to go. It'll watch current traffic, plan your route and notify you when you should leave.\xc2\xa0An event pop-up will appear with detailed information, when an event is selected in the day, week and agenda views, this allows you to easily go through all your events without the need of opening and closing the pop-up for every individual event. Gestures like pinch to zoom and swipe to navigate are also supported. For example, you can quickly go through the dates in all the calendar views by swiping left or right.\xc2\xa0Discover how DigiCal can help you stay organized and become even more productive!\xc2\xa0\xe2\x9c\x93 Six unique calendar views (day, week, agenda, month, text month and list) including landscape mode\xe2\x9c\x93 Available in stylish Holo Dark and Light theme\xe2\x9c\x93 Five beautiful and fully customizable widgets (list, grid, day, day list and month).\xe2\x9c\x93 Stylish and intuitive user interface consistent with the Android Holo theme\xe2\x9c\x93 Fully compatible with any device running Android 2.2 or higher\xe2\x9c\x93 Smart action bar for quick editing, moving, copying, pasting and deleting events\xe2\x9c\x93 Built-in location search to quickly add locations to your events\xe2\x9c\x93 Support for Google Now (Android 4.1+), enabling it to notify you when it's time to leave for your appointment by planning your route, checking traffic and calculating your travel time\xe2\x9c\x93 Event pop-up makes it easy to go through your individual events\xe2\x9c\x93 Gestures like pinch to zoom and swipe to navigate are supported\xe2\x9c\x93 Improved notifications with shortcuts for snooze, map and navigation\xe2\x9c\x93 Custom background colors for the day, day list, grid and month widgets (DigiCal+ only)\xc2\xa0If you require assistance or want to give us some feedback or suggestions, please feel free to contact us on digical@digibites.nl. You can also check out our FAQ first, there may already be an answer to your question (https://digibites.zendesk.com). We cannot reply on your comments, so please send us an email instead if you have any questions!Recent changes:- New: Updated logo and added a button to hide the DigiCal+ license app in the launcher- Added a bit of code to check if DigiCal (non plus) is installed, and added a link to the Google Play Store if it isn't.- Added a few droids saying thanks :)"
p4
tp5
tp6
.