((S'Title'
p0
S'Dining Deals - Food Coupons '
p1
tp2
(S'Description:'
p3
S'Dining Deals is a free, top-reviewed coupons app that gives you the best deals for your favorite restaurants.Features Include:- The Best Hand-Picked Restaurant Deals: updated daily by our team of coupon clippers and deal finders. Every deal is hand-selected by our team. We\'re always adding new brands based on user feedback.- The Best Reviews: more than one thousand five hundred 5-star ratings and a 4.7 score make us one of the best reviewed applications in the shopping category. Download the app and find out why. - Simple Organization: you can sort our deals by brand (e.g. T.G.I. Friday\'s, Chili\'s, etc), newest arrivals, Hottest deals (the best deals) and deals you have liked.- Hot Deal Alerts: you can sign up for Hot Deal Alerts in the app and never miss another great deal. We send an Android notification when we find really great deals. If you don\'t like to receive notifications, you can easily turn them off.- Share Deals: you can share our deals with your friends via SMS and Email. - Exclusive Offers: we don\'t put annoying banner ads in our application. Instead, we run exclusive offer pages that give you the opportunity to sign up for emails from top brands. Instructions:Download the application and open it. The first time the application launches, we offer the opportunity to sign up for Hot Deal Alerts. You can also deactivate or activate this feature later in the Alerts section. We also offer a chance to sign up for emails for exclusive deals. If you sign up, you will see our exclusive deals, then our hottest deals. If not, then you will just see our hottest deals page and a button to load all of our coupons.Click "Load All Coupons" to access our vast restaurant deals from top brands. The top restaurants change regularly, but some of our popular brands include: T.G.I. Friday\'s, Chili\'s, Whole Foods, Olive Garden, McDonald\'s, Long John Silver\'s, KFC, Denny\'s, Papa John\'s, CiCi\'s Pizza, Restaurant.com, Pizza Hut, Arby\'s, Black Angus Steakhouse, Domino\'s Pizza, Boston Market, Carl\'s Jr., Red Lobster, Hardee\'s, Del Taco, Chuck E. Cheese\'s, Quiznos, Jack\'s, Wendy\'s, Buca di Beppo, Maggiano\'s, Benihana, Baskin Robbins, Lonestar Steakhouse, MiMi\'s Cafe, Jamba Juice, Subway, Smashburger, Fresh Choice, Outback Steakhouse and many more!Coupons are displayed as either coupon codes (for use online) or digital coupons (for use in stores). When possible, we always recommend that you print our coupons at home prior to using them in the restaurant. Some restauants don\'t accept coupons when displayed on a phone. You can print the coupon by navigating to the coupon details page, clicking Email This and then emailing the coupon to yourself to print from a computer.Feedback:Want to see more of a particular brand? Have problems with our application? Other ideas? Let us know in a review or by sending an email to bestcouponsanddeals@gmail.com.Terms of Use and Privacy Policy:By using this application you agree to our Terms of Use and Privacy Policy - http://pastehtml.com/view/bnr5klhqb.rtxtRecent changes:- Support for additional restaurants and deal types'
p4
tp5
tp6
.