((S'Title'
p0
S'DJ Funkmaster Flex '
p1
tp2
(S'Description:'
p3
S"Americas Greatest DJ, DJ FunkFlex brings you daily mixes, MC instrumentals from the biggest producers , breaking news, exclusive exciting content and you will have the ability to interact with FunkFlex direct. That you don't want to miss!!!!"
p4
tp5
tp6
.