((S'Title'
p0
S'DocuSign Ink-Sign & Send Docs '
p1
tp2
(S'Description:'
p3
S"Sign documents and get signatures quickly and easily from your Android device. A must-have app that will save you time and eliminate the need to print, fax or mail documents and forms for signature. Once you've tried it, you'll wonder how you ever got along without it!* Featured in USA Today, WSJ, TechCrunch, LifeHacker, Ubergizmo ** Rated a Top Productivity Tablet App * * Featured App by AT&T, HTC, and Motorola *Safe, secure and legally binding, DocuSign Ink empowers you to sign documents and get signatures from anyone, anywhere, whether they happen to be standing right next to you or are halfway around the globe. DocuSign is the most widely used eSignature platform, trusted by more than 27 million people who have DocuSigned in 188 countries around the world. Already have a DocuSign account? No problem; DocuSign Ink\xe2\x84\xa2 allows you to access your current account on the go.  HUNDREDS OF WAYS TO USE DOCUSIGN INK \xe2\x80\xa2\tSend contracts, invoices and work orders for signature.\xe2\x80\xa2\tSign school forms and permission slips.\xe2\x80\xa2\tSign and fill out insurance forms (health, renters, home, auto, personal . . . )\xe2\x80\xa2\tReview and approve project estimates, POs and change orders.\xe2\x80\xa2\tSign lease and rental agreements.\xe2\x80\xa2\tAuthorize direct deposit and change of address.\xe2\x80\xa2\tSign your new-job offer letter and paperwork.\xe2\x80\xa2\tFind solutions for every department: HR, finance, sales, purchasing, legal. Key FeaturesSIGN You can sign any document for FREE directly from your device; no pen or paper required. Supports multiple formats (PDF, images, Microsoft documents and more.) \xe2\x80\xa2\tFill out forms and templates. \xe2\x80\xa2\tCreate and adopt a signature (multiple color and formats.)\xe2\x80\xa2\tAccess and import documents from multiple sources.\xe2\x80\xa2\tComplete face-to-face signing with multiple signers.\xe2\x80\xa2\tImport documents directly from email.SENDYou can electronically send documents for signature and manage the documents you send. \xe2\x80\xa2\tSend documents to multiple people to sign.\xe2\x80\xa2\tComplete face-to-face signing with multiple signers.\xe2\x80\xa2\tNo more printing, scanning, or faxing send requests for signature and completed document directly from the app (email, Evernote, Box, Google drive, and more.)  \xe2\x80\xa2\tGet notified when documents have been signed and completed.\xe2\x80\xa2\tReceive five free sends when you sign up!STORE Access and store all your files & documents instantly and securely.\xe2\x80\xa2\tStore files for free (signed documents automatically store in the cloud). \xe2\x80\xa2\tSave completed documents to your Dropbox, Google Drive, Evernote, Box or Salesforce account.\xe2\x80\xa2\tOpen signed documents in other applications. SECURE Choose the solution trusted by banks and law firms. Get enterprise-grade security in the palm of your hand.\xe2\x80\xa2\tLegally binding; complies with the eSign Act.\xe2\x80\xa2\tComplete audit trail; see who signed when and where.\xe2\x80\xa2\tDocuments are encrypted; more secure than paper.\xe2\x80\xa2\tOnly eSignature app that tamper-proofs documents.\xe2\x80\xa2\tDocuSign eSignature platform is ISO 27001 SSAE16-compliant. MANAGE YOUR ONLINE IDENTITY\xe2\x80\xa2\tCreate your personal eSignature (multiple color and formats). \xe2\x80\xa2\tCustomize ID card; photo, name, title, company, address, phone number.\xe2\x80\xa2\tCustomize privacy settings. WORKS WITH\xe2\x80\xa2\tPDF\xe2\x80\x99s, Word Documents, Images, PDF Forms, Templates \xe2\x80\xa2\tImport and Export from Evernote, Box, Dropbox, Google Drive\xe2\x80\xa2\tDocuSign Personal, Professional, Workgroup, and Real Estate plans.Support DocuSign is available for: Desktop, Tablet and mobile devicesMobile platforms: Android, iOS and Windows 8Web: Chrome, Safari, Firefox, Internet ExplorerSupported accessories: HTC Scribe PenMore information about eSignature and ESIGN compliance: http://www.docusign.com/company/customer-partner-trustLearn more: http://www.docusign.com/products/docusignink/hiw-androidRecent changes:\xe2\x80\xa2\tNewly redesigned interface (based on your feedback!) \xe2\x80\xa2\tNow you can send documents for signature (up to 5 free envelopes). \xe2\x80\xa2\tSet up sending workflow and sequence if multiple signers are needed.\xe2\x80\xa2\tSitting across from your customer?  Host in-person signing without having to send.  \xe2\x80\xa2\tAdd a Widget to your home screen to quickly view document status\xe2\x80\xa2\tSet up your Identity for sending and signing."
p4
tp5
tp6
.