((S'Title'
p0
S'Documentales wifi '
p1
tp2
(S'Description:'
p3
S'Documentales Wifi es una aplicaci\xc3\xb3n con la que podr\xc3\xa1s ver gratuitamente en tu smartphone, tablet o tv (con cable HDMI)Periodicamente, se iran a\xc3\xb1adiendo nuevos t\xc3\xadtulos sin necesidad de actualizar la aplicaci\xc3\xb3n.'
p4
tp5
tp6
.