((S'Title'
p0
S'Dolphin Screen Cut '
p1
tp2
(S'Description:'
p3
S'\xe2\x98\x85\xe2\x98\x85\xe2\x98\x85\xe2\x98\x85\xe2\x98\x85 \xe2\x80\x9cWorks great. Takes picture of entire screen. Saves in your gallery and is clear when you zoom in!\xe2\x80\x9dCapture screen/image as screenshot and save onto SD card or your photo gallery with Dolphin Screen Cut. With Dolphin Screen Cut, you can:-\tCapture screen/image -\tCreate screenshot of entire or just part of webpage-\tResize screenshot -\tSave screenshot on SD card, photo gallery -\tShare via Facebook-\tShare via Twitter -\tShare via EmailBut in some pages like facebook,blank pages may be happedDolphin Screen Cut is an exclusive Add-on for Dolphin Browser\xef\xbc\x88Formerly Dolphin Browser HD\xef\xbc\x89. Just search \xe2\x80\x9cDolphin Browser \xe2\x80\x9d in Android Market or download here: http://bit.ly/D-AndroidWhat is an Add-on?Beef up your Dolphin Browser\xef\xbc\x88Formerly Dolphin Browser HD\xef\xbc\x89 by installing your favorite Add-ons. Similar to a desktop Plug-in, each Add-on will provides additional functionality on mobile device. Forgot password? Password Manager can help. Want a new look for your Dolphin? Download Shiny Shake to change colors. Want to read a webpage in French? Get Dolphin Translate. Click here to learn more: http://bit.ly/AndroidAdd-onListOther popular Dolphin Add-ons:\xe2\x80\xa2 Bookmark to SD\xe2\x80\xa2 Dolphin YouTube Search\xe2\x80\xa2 PDF Viewer for Dolphin\xe2\x80\xa2 Web to PDF\xe2\x80\xa2 Dolphin Google ServicesJoin the Dolphin community!Facebook: http://www.facebook.com/DolphinFans Twitter: https://twitter.com/DolphinBrowserAny further suggestions, please contact at support@dolphin-browser.com.Recent changes:Fix bugs.'
p4
tp5
tp6
.