((S'Title'
p0
S'Dolphin Desktop Toggle '
p1
tp2
(S'Description:'
p3
S'\xe2\x98\x85\xe2\x98\x85\xe2\x98\x85\xe2\x98\x85\xe2\x98\x85 \xe2\x80\x9cI used to hate it when a site would force me to use their mobile version site. Now the choice is mine! Thx dev!\xe2\x80\x9dSwitch quickly between two browsing views: Mobile view and Desktop view. With Dolphin Desktop Toggles, you can:- Load web pages as either traditional Android mode (mobile view) or Desktop mode (Desktop view)- Have more flexibility in accessing the an easy to view mobile webpage or webpage\xe2\x80\x99s full content and flashDolphin Desktop Toggles is an exclusive Add-on for Dolphin Browser\xef\xbc\x88Formerly Dolphin Browser HD\xef\xbc\x89. Just search \xe2\x80\x9cDolphin Browser \xe2\x80\x9d in Android Market or download here: http://bit.ly/D-AndroidWhat is an Add-on?Beef up your Dolphin Browser\xef\xbc\x88Formerly Dolphin Browser HD\xef\xbc\x89 by installing your favorite Add-ons. Similar to a desktop Plug-in, each Add-on will provides additional functionality on mobile device. Forgot password? Password Manager can help. Want a new look for your Dolphin? Download Shiny Shake to change colors. Want to read a webpage in French? Get Dolphin Translate. Click here to learn more: http://bit.ly/AndroidAdd-onListOther popular Dolphin Add-ons:\xe2\x80\xa2 Bookmark to SD\xe2\x80\xa2 PDF Viewer for Dolphin\xe2\x80\xa2 Web to PDF\xe2\x80\xa2 Dolphin Google Services\xe2\x80\xa2 Dolphin Screen CutJoin the Dolphin community!Facebook: http://www.facebook.com/DolphinFans Twitter: https://twitter.com/DolphinBrowserAny further suggestions, please contact at support@dolphin-browser.com.Recent changes:Update the icon'
p4
tp5
tp6
.