((S'Title'
p0
S'Dolphin Webzine '
p1
tp2
(S'Description:'
p3
S'\xe2\x98\x85\xe2\x98\x85\xe2\x98\x85\xe2\x98\x85\xe2\x98\x85 \xe2\x80\x9cThe Webzine feature is a very attractive and practical tool!\xe2\x80\x9dDolphin webzine brings elegance to web browsing by displaying web content beautifully like a magazine. With Dolphin Webzine, you can:- See all the latest articles of your favorite website with one tap, then another tap will take you the beautifully formatted page.- Select content from over 300 sources on topics including lifestyle, music, technology, business and many others including updates from Facebook and Twitter. - Read cached content offlineDolphin Webzine is an exclusive Add-on for Dolphin Browser  \xef\xbc\x88Formerly Dolphin Browser HD\xef\xbc\x89. Just search \xe2\x80\x9cDolphin Browser\xe2\x80\x9d in Android Market or download here: http://bit.ly/D-AndroidWhat is an Add-on?Beef up your Dolphin Browser\xef\xbc\x88Formerly Dolphin Browser HD\xef\xbc\x89 by installing your favorite Add-ons. Similar to a desktop Plug-in, each Add-on will provides additional functionality on mobile device. Forgot password? Password Manager can help. Want a new look for your Dolphin? Download Shiny Shake to change colors. Want to read a webpage in French? Get Dolphin Translate. Click here to learn more: http://bit.ly/AndroidAdd-onListOther popular Dolphin Add-ons:\xe2\x80\xa2 Box for Dolphin\xe2\x80\xa2 Dolphin.fm\xe2\x80\xa2 Dolphin QRCode Share\xe2\x80\xa2 Bookmark to SD\xe2\x80\xa2 Dolphin YouTube Search\xe2\x80\xa2 Dolphin eBay Search\xe2\x80\xa2 Dolphin Alexa Rank\xe2\x80\xa2 PDF Viewer for Dolphin\xe2\x80\xa2 Web to PDF\xe2\x80\xa2 Dolphin Translate \xe2\x80\xa2 Dolphin Brightness\xe2\x80\xa2 Dolphin Password Manager Lite\xe2\x80\xa2 Password Manager Pro\xe2\x80\xa2 Dolphin Google Services\xe2\x80\xa2 Dolphin Reader\xe2\x80\xa2 Google Reader Notifier\xe2\x80\xa2 Softpedia.com RSS\xe2\x80\xa2 Dolphin Tweet\xe2\x80\xa2 Bookmarks Widget\xe2\x80\xa2 Dolphin Desktop ToggleJoin the Dolphin community!Facebook: http://www.facebook.com/DolphinFans Twitter: https://twitter.com/DolphinBrowser'
p4
tp5
tp6
.