((S'Title'
p0
S'Download Music Free '
p1
tp2
(S'Description:'
p3
S'With this app you can download millions of songs from the Internet directly to your Android device also includes a music player to listen to your favorite music and Download at the same time.OPTIONS;-Download MP3 music from the Internet.-Includes a music player.Download to your SD Card.tags: mp3, download, music, internet, android mp3, play music.'
p4
tp5
tp6
.