((S'Title'
p0
S'Dragon Ball ringtones '
p1
tp2
(S'Description:'
p3
S'Do you like Dragon Ball?Here are the most classic and the coolest Dragon Ball theme song, episode, sound effects.You can choose your favorite sound settings for your cell phone ring tones.Contents:1: Dan dan kokoro hikareteku2: Fight oh fighing road3: Invincible4: Cyborg song 175: Super house version6: Forever earth7: Led train8: Please isshou no onegai9: Roller through10: Space people11: Wild dance night12: Heartbreak Melody13: Adventure Travel14: What is a dream15: Mo Incredibles16: The bright yellow soldier17: Potala in flash18: New flyfeature- Set phone ringtones- Set notification ringtones- Save to sd card or Internal phone storageIf bug exists, please tell us (E-mail), we will fix it as soon as possible.Thank you very much for your support!'
p4
tp5
tp6
.