((S'Title'
p0
S'Draw HD '
p1
tp2
(S'Description:'
p3
S'Draw HD is an amazing app for drawing. It is fun for all ages and can be used in endless ways. It has many features that you are going to like . Start drawing and unleash your creativity and impress your friends . Main features : - Beautiful design - Millions of colours to choose from. - Share your drawings via Email,Facebook,Twitter. - Endless background options : colours , gradients , images , grids - 25 amazing drawings ready to be coloured . - Import photos from your library - Many more ...... Download it and start drawing :)Recent changes:\xd8\xa7\xd8\xb5\xd8\xaf\xd8\xa7\xd8\xb1 \xd8\xa7\xd9\x88\xd9\x84\xd9\x8a'
p4
tp5
tp6
.