((S'Title'
p0
S'Dreamboard Mobile '
p1
tp2
(S'Description:'
p3
S'Dreamboard Mobile is the #1 digital dream journal app. 100% FREE, private, secure and confidential. The most fun and beautifully designed dreams app. Cannot remember your dreams? Want to analyze them? Lucid dreaming? Use Dreamboard Mobile on your Android smartphone and on the web. \xe2\x96\xb6 WITH DREAMBOARD YOU CAN... === Record your dreams in seconds === Log your dreams on your mobile when you wake by selecting a simple set of options like moods, feelings and colors and jot down a dream description. === Browse your dream journal === Create, annotate and browse your private personal dream journal. Past dreams are saved for you to read, rediscover and update at any time.=== Analyze dreams over time === Observe trends in their dreaming activity. Dreamboard finds similarities between past dreams, aggregates dream data in a private dashboard and gives users feedback about their dreams \xe2\x96\xb6 NEW IN DREAMBOARD! \xe2\x9c\x94 Totally revamped UI \xe2\x9c\x94 Very fast and "lightweight" app \xe2\x9c\x94 Full synchronization of Dreamboard from Android to any device/tablet \xe2\x9c\x94 Easy fast entry interface to add a new dream in second \xe2\x9c\x94 Predefined tags and data, such as emotions, places, colors or people \xe2\x9c\x94 Predefined dream symbols and archetypes \xe2\x9c\x94 Add your own tags and descriptions \xe2\x9c\x94 Ability to highlight recurrent dreams, lucid dreams or a dream series \xe2\x9c\x94 Alarm clock with reminder/invitation to record your dream \xe2\x9c\x94 Daily reminder/notification to record your dream \xe2\x9c\x94 Full keyword search of your dream journal \xe2\x9c\x94 Dashboard with stats and information about your dreams \xe2\x9c\x94 Improved dream analysis and stats dashboard \xe2\x9c\x94 Improved \xe2\x80\x9cdream tree\xe2\x80\x9d graphical representation \xe2\x9c\x94 Facebook and Twitter login \xe2\x9c\x94 Complete privacy and security of your dream journal \xe2\x96\xb6 OUR USERS SAY... \xe2\x80\x9cI love the idea! i\'m always googling the meaning of my dreams.\xe2\x80\x9d \xe2\x80\x9cHad actually been thinking about starting a dream journal again right before you sent me this-- I think this a great idea\xe2\x80\x9d \xe2\x80\x9cSo excited about learning my other life!! The dream world! a lot of our life is dreaming!\xe2\x80\x9d \xe2\x80\x9cI found the graphic design fun, peaceful and easy on the eyes\xe2\x80\x9d \xe2\x80\x9cI LOVE this application, great concept! love your design.\xe2\x80\x9d \xe2\x80\x9cI always post my dreams on my web journal so this even better!!! thanks for creating this.\xe2\x80\x9d \xe2\x80\x9c@Dreamboard is pretty impressive. Much easier than pen and pencil dream-journaling. Can\'t wait to see what they add to their site.\xe2\x80\x9d \xe2\x80\x9c@Dreamboard I\xe2\x80\x99m excited to start my dream journal. YAY!\xe2\x80\x9d \xe2\x96\xb6 MORE INFO... Go to dreamboard.com for more info!Keywords: dream journal, dream tracking, psychology, lucid dreaming, healthcare'
p4
tp5
tp6
.