((S'Title'
p0
S'Duego - Meet New People Nearby '
p1
tp2
(S'Description:'
p3
S'\xe2\x98\x85\xe2\x98\x85\xe2\x98\x85\xe2\x98\x85\xe2\x98\x85 DuegoDuego is a FREE app for meeting new people nearby!Duego is a new fun and social way to chat, flirt, date and meet new people nearby. It\'s easy to get started and it\'s FREE.On Duego you can date and flirt with singles nearby, make new friends or just chat with interesting people! Duego is meet new people, reinvented on mobile!If you want to chat, flirt, date or just meet new people nearby, Duego is perfect for you! It\'s safe, 100% real profiles and thousands of guys and girls joining every day!Why you should use Duego:\xe2\x98\x85 It\'s a perfect place to chat, flirt, date or just make new friends!\xe2\x98\x85 It\'s easy to get started and it\'s FREE!\xe2\x98\x85 It\'s location based to give you the most relevant people nearby!\xe2\x98\x85 It\'s available on mobile, tablet and computer in 180 countries worldwide.\xe2\x98\x85 It has a beautiful design and is easy to use.\xe2\x98\x85 It\'s meet new people, reinvented on mobile!What people say about Duego:"Duego is a great app to meet new people nearby. It took me just a second to join and within minutes I was already browsing some cute guys, liking their profiles and looking at their photos!" -Zoe, 25"On Duego it is easy to find smart, interesting and cute girls to hang out with, or even go on a date. I\'ve met so many new amazing people on Duego!" -Alex, 28"I really recommend Duego if you want to meet new people in your city! It\'s great app if you want to chat or flirt, and it\'s free! I\'m really hooked :)" -Sandra, 29"Wow! What a great design, I really love this app! And it works too, lots of girls from my university use it! You guys rock! Keep up the good work!\xe2\x80\x9d -Fernando, 24\xe2\x80\x9cI was skeptical about these meet new people apps, but Duego totally changed my mind. I decided to install it when I moved to Paris, and so far I\'ve met lots of new friends and even went on a few dates with great guys. Duego really made it easy for me to get to know people here in Paris! Today Duego is one of my favorite apps!" -Ad\xc3\xa9le, 23, ParisRecent changes:Duego is a FREE app for meeting new people nearby!Recent Updates:v1.2.0- Wizards will help you get to know all the features in the app- Access photos directly from various lists- Locations are represented in a better way- Bug fixesv1.1.0- New graphics and notifications to show the moderation status of profile photos- The profile page can now be refreshed with a pull-to-refresh gesture- Facebook photos should now load faster- Bug fixes'
p4
tp5
tp6
.