((S'Title'
p0
S'Easy Cache Cleaner '
p1
tp2
(S'Description:'
p3
S'\xe2\x98\x85>1500,000 users use it clean cache\xe2\x98\x85Fastest scan speed\xe2\x98\x85One-Click clean system cache\xe2\x98\x85Helpful item menu\xe2\x98\x85Sort apps by cache size or name\xe2\x98\x85Reminder function\xe2\x98\x85Two display styleEasy Cache Cleaner is a android system tool which can clean useless application cache files ,it could save your phone disk space and make your phone speed up.[What is Application Cache Files]Application Cache Files are temporary files created by applications. For example, when browser visit a web page, it will save the image files as cache files. These cache files are not useful when app ends, so you need a system tool help you clean these old cache files. Often clean cache , is a good habit, it could save your disk space and make your phone speed up.[Feature]\xe2\x98\x85One-Click clean system cache\xe2\x98\x85Fastest scan speed\xe2\x98\x85Sort apps by cache size or name\xe2\x98\x85Reminder function\xe2\x98\x85Two display style\xe2\x98\x85Helpful item menu(Open,Manage,Playstore Page,uninstall)\xe2\x98\x85More features are coming soon[About Permissions]All permissions required by this app are used for implement app function or required by ad ,this app has a 4.6 average rating based >1500000 users and >80000 ratings ,so please don\'t worry about permissions ,my apps won\'t do anything hurt users.[Thanks]Thanks thses friends translate and test this app:Russian:Roman RublevskiyItalian:Gian Luca BignardiCzech:Kamil TollingerFrench:Gregor MeunierGerman: Dejan GojkovMexican:Rodolfo Rmz CejaKorean Friend :\xeb\xb0\x95\xeb\xaf\xb8\xeb\xa6\xacHungarian Friend :Pogr\xc3\xa1nyi "Poggy" Zolt\xc3\xa1nBrazil Friend :DelphinoTested Devices:Samsung Galaxy 2Samsung Note 2HTC Desire SSamsung  Nexus SGalaxy Nexus i9250(By Dejan Gojkov,thanks)Samsung Galaxy Y (By Delphino)ZTE SkatePlease do not hesitate to give suggestion or report bug, please contact bazingatech@hotmail.comWebsite of Icon Author:http://www.photoshopedia.com/http://www.doublejdesign.co.uk/http://www.icon-king.com/Keywords:cache clean system easy data useful file hot useful freeRecent changes:V1.22\xe2\x98\x85Fix BugV1.19\xe2\x98\x85Compatible with ROM 4.2V1.18\xe2\x98\x85More faster Scan Speed V1.17\xe2\x98\x85Add more reminder options:always show reminder in notification bar /last clean > 3 hours /last clean > 6 hoursV1.16\xe2\x98\x85show total app numbers and scanning speedV1.151.Remove redundant dialog ,lesser click needed ,more easy to use.2.Fix the bug of reminder.3.Move clean button to screen bottom ,near to your hand when use app.V1.11\xe2\x98\x85Fix shortcut bugV1.10\xe2\x98\x85Optimized UI\xe2\x98\x85Add item menu \xe2\x98\x85fix some bugs'
p4
tp5
tp6
.