((S'Title'
p0
S'edjing free DJ mix rec studio '
p1
tp2
(S'Description:'
p3
S'Voted as Best App of the Year at the AppAwards 2013\xe2\x98\x86 edjing is the best Pro DJ app on Android \xe2\x98\x86\xe2\x80\x9cedjing is more than just a successful app, it stands out by its wide range of effects offer and its smooth usage.\xe2\x80\x9d Androidmag.deIt\xe2\x80\x99s the 1st social DJ App to Play, Mix and Share your sounds for free! A perfect way to share your passion for music and let others discover your mixing talent! \xe2\x98\x86 SOUNDCLOUDEnjoy access to SoundCloud and Mix all the music you love!\xe2\x98\x86 JUST LIKE A REAL DJ WOULD: Realize professional-like transitions thanks to the crossfader. Match the beats manually or click on the Sync button to synchronize the bpm (beats per minute) of your tracks and achieve seamless transitions.\xe2\x98\x86 PLAY. MIX. SHARE & PARTY! ;)Being a DJ has never been so easy! Party all night with edjing! Impress your friends during parties by mixing your songs like a real DJ or let this friendly DJ app mix your playlists while you\xe2\x80\x99re dancing your heart out!Indeed, thanks to the Auto mix function, edjing does all the transitions for you. You can customize the transition you want and request the auto synchronization of bpm (auto sync bpm option) so that the beats of your music always match.Have fun remixing the trendiest tracks of the moment on your new pocket turntables!\xe2\x98\x86 FEEL THE BEATS & REINVENT YOUR MUSIC:Add all the effects you like and keep reinventing the music you love! Scratch or add special sound effects to enrich your mix and create new sounds: your sound!Enjoy a wide range of sound effects. 7 free FX available: scratch, flanger, echo, loop, pitch, equalizer, cue point. You can add multiple effects at the same time: scratch on a loop or add a Flanger on a loop for instance.You can also get more awesome effects via our in-app Store!All the effects are available via the FX menu (FX button at the bottom of the turntable)\xe2\x98\x86 RECORD & SHARE YOUR CREATIONS WITH YOUR FRIENDS:Record your mixes and share them with your friends on Facebook and Twitter thanks to the "eMix" feature. Record up to a whole hour of mixing. After recording your mix, don\xe2\x80\x99t forget to share them with your friends.\xe2\x98\x86 Let yourself immerse in a world of music: yours! YOU ARE THE DJ, NOW IT\'S OVER TO YOU!edjing is the new flagship app! More than 3,5 millions Downloads already! Join our DJ community and take control of your parties!  Play. Mix. Share.More than 2,5 million people already use edjing to mix their music ! Subscribe now and join the world largest social network of DJ to be! N.B: edjing has developed its own Sound System to offer you the best audio experience possible: real time sound processing enabling you to mix your music live with increasingly realistic DJ effects.edjing also gives you the possibility to listen to your mixes and those of your friends on its internet website: www.edjing.comDiscover the top mixed tracks! Who will record the most comments on his/her mix? Who will top the rankings of the most listened mixes and get to shine? It\xe2\x80\x99s fun and free!Make your move! Play. Mix. ShareGeneral Characteristics: \xe2\x98\x86 OS: Android 4.0 and more\xe2\x98\x86 Screen Compatibility: from 3.7\xe2\x80\x99\xe2\x80\x99 to 10\xe2\x80\x99\xe2\x80\x99 and more \xe2\x98\x86 eMix function to share your mix on Facebook and Twitter (depending on Android phone)\xe2\x98\x86 Access to your music library to mix all your tracks \xe2\x98\x86 2 Turntables + Cross Fader \xe2\x98\x86 Scratch / Pitch on Vinyl like a real DJ\xe2\x98\x86 Free DJ effects (FX): Cue, Flanger, Loop, Echo, equalizer\xe2\x98\x86 Wide Sound Spectrum for optimum Beats localization \xe2\x98\x86 A store with additional effects (FX): Reverse, Double flipping, Auto Scratch, Reverbs\xe2\x98\x86 The possibility to earn vinyls to buy effects\xe2\x98\x86 Possibility to record your mix: recording in High Definition CD quality, wave format \xe2\x98\x86 "AutoMix" mode for automatic transitions between titles of your playlists \xe2\x98\x86 BPM synchronization (sync)\xe2\x98\x86 Ability to remix mp3 files of more than 1 hourContact us at support@edjing.com for any feedback!TAGS : dj, mix, turntable, turntables, scratch, beats, mixer, traktor, djay, virtual dj, deejayRecent changes:2.3.1:- RESOLVED: Compatibility with devices using Intel Inside processors- General optimization of the app performances- Minor bugs resolution2.3.0:- NEW: Access your SoundCloud playlists and Mix all the music you love!- Deezer available on edjing Free for Android!- Menu and music library graphic redesign- Native skin Graphic improvement- Bug resolution:    - Reseting of the app after loading a music: Resolved2.2.2:- Minor bugs resolution'
p4
tp5
tp6
.