((S'Title'
p0
S'English Phrasal Verbs '
p1
tp2
(S'Description:'
p3
S'FREE English Phrasal Verbs App with around 3000 phrases.FEATURES:-Around 3000 English Phrasal Verbs-Clean User Interface-Offline Database-Word Pronunciation-App2SDCard Support-Favorite ListRecent changes:Version 1.0'
p4
tp5
tp6
.