((S'Title'
p0
S'English Grammar Lessons '
p1
tp2
(S'Description:'
p3
S'Learn the English Grammars in lessons explained in ArabicIf you like it please vote for this application with 5 stars and share it with Google plusfor any help, suggestions or even criticism please email us.www.drmsi.comwww.ddd.bz'
p4
tp5
tp6
.