((S'Title'
p0
S'English Grammar 3000 '
p1
tp2
(S'Description:'
p3
S'Learn English and improve your English Grammar skill with free 3000 practice quizzes:-1000 practice quizzes at Basic Level-1000 practice quizzes at Intermediate Level-1000 practice quizzes at Advanced LevelEach set of 1000 quizzes is organized into 20 lists for your easy navigation. In addition,quizzes with incorrect answers are automatically saved into INCORRECT lists that help you quickly review those quizzes.Apps in iPhone/iPad or Kindle Fire version are also available'
p4
tp5
tp6
.