((S'Title'
p0
S'Entry Manager '
p1
tp2
(S'Description:'
p3
S'Eventbrite organizers - stay organized and check in attendees faster at your event with Eventbrite\xe2\x80\x99s Entry Manager app. Now available on Android phone and tablet device! Scan tickets or look up names on the guestlist, and use multiple devices without worrying about the same ticket being used twice. All check-ins are synced with our servers, so you can use more than one Android or iOS device at different points of entry.With the Eventbrite Entry Manager app you can:- Look up and check in attendees off a list- Easily validate ticket barcodes using the camera-based scanner- Check in attendees using multiple devices at the same time- View live sales and attendance stats- Analyze your attendance data online after the eventDo you also own an iPhone or iPad? The Entry Manager app is also available for download in the Apple App Store. All check-ins and event data will sync seamlessly across both platforms.We currently have the following known issues, but we are actively working to address them. Thanks for your understanding while we work out the kinks!- For events larger than 1,000 attendees, performance may be slower depending on your device- If you find additional issues, please let our Support team know at support@eventbrite.com or 1-800-350-8850.Also available in German, Spanish, French, Italian, Dutch, Portuguese, and Swedish.Anyone can use Eventbrite to set up an event registration page, sell tickets, and manage check-ins with Entry Manager. Learn more at Eventbrite.com.Keywords: event, events, entry, management, ticket validation, guestlist, eventbrightRecent changes:Bug fixes and minor UI enhancements'
p4
tp5
tp6
.