((S'Title'
p0
S'Equalizer '
p1
tp2
(S'Description:'
p3
S"Improve your phone or tablet's sound quality with the first true global Equalizer app and home-screen widget!Equalizer lets you adjust sound effect levels so that you get the best out of your Music or Audio coming out of your phone. Apply Equalizer Presets based on Music Genre, or quickly create your own custom preset with the 5 band Equalizer controller. Additional Audio Effects supported include: Bass Booster, Virtualizer and Reverb Presets.\xe2\x98\x85 Permissions: Requires INTERNET_PERMISSION for downloading additional widget skins.\xe2\x98\x85 Requires Android 2.3 Gingerbread or up. Custom ROMs may not work due to issues with the ROM. If your ROM works please post so that others know. If you have issues, please contact us and let us know what ROM you are using. Features:\xe2\x98\x85 11 Stock Presets\xe2\x98\x85 Preset auto-detection (See list of supported players below)\xe2\x98\x85 5 Band-level Equalizer Controller\xe2\x98\x85 Audio sampler to test your Equalizer settings\xe2\x98\x85 Bass Booster\xe2\x98\x85 Virtualizer\xe2\x98\x85 Reverb Presets\xe2\x98\x85 Integrates with stock Android Music player\xe2\x98\x85 Works on both wired and Bluetooth A2DP headsets\xe2\x98\x85 Works with streaming music like Pandora, Spotify, etc.\xe2\x98\x85 Power Mode options to enable/disable effects\xe2\x98\x85 Beautiful 4x1 and 2x1 Equalizer widgets for your home-screen\xe2\x98\x85 Additional widget skins available for download\xe2\x98\x85 Transparent background mode available for widgets\xe2\x98\x85 Notification shortcut available for quick access\xe2\x98\x85 Fully optimized for phones and tablets\xe2\x98\x85 No root requiredFull features include: (Requires purchasing Unlock key)\xe2\x98\x85 Save Custom Presets\xe2\x98\x85 Delete, Edit, Rename Presets\xe2\x98\x85 Create Home-screen shortcut for Presets\xe2\x98\x85 Backup and Restore Presets from SD cardStock presets include:\xe2\x98\x85 Normal\xe2\x98\x85 Classical\xe2\x98\x85 Dance\xe2\x98\x85 Flat\xe2\x98\x85 Folk\xe2\x98\x85 Heavy Metal\xe2\x98\x85 Hip Hop\xe2\x98\x85 Jazz\xe2\x98\x85 Pop\xe2\x98\x85 Rock \xe2\x98\x85 Latin (New)Equalizer does not work with all music players. Some have equalizers of their own, and others are just not compatible. If you have issues with your music player please contact us. We recommend using Google Play Music, Meridian Mobile, or Omich player.Installation of Unlock Key:This is an unlock key and not a stand-alone application, all you need to do is download the key and install it on your device. The first time you open it you will see a dialog and you will then be taken to our Equalizer application, that's all you need to do!We appreciate your feedback and encourage you to help us improve our products. Visit our website http://www.smartandroidapps.com and don't forget to check out our other apps in the market.Smart Android Apps, LLCRecent changes:3.2.8-Force close on some devices3.2.7-Force close fix for some users when trying to contact developer3.2.6 -Added shortcuts for equalizer on and off, can be used with Takser and Locale-Auto on/off feature on supported players (Google Play Music and Meridian Mobile)-Force close fixes for some devices and music players"
p4
tp5
tp6
.