((S'Title'
p0
S'Espier Screen Locker '
p1
tp2
(S'Description:'
p3
S'SUMMARYEspier Screen Locker is an iOS-style screen locker plugin dedicated to Espier Launcher (v2.0.9 or later). Espier screen locker can set the simple password, unread text messages and other notifcations from third-party apps on the locked screen if you use Espier Notification plugin, and can quickly activate the camera, easily browse the latest information, fast capture the beautiful scenery around. Beautify your Android device from Espier Screen Locker! MAIN FEATURES1. Simple setup to experience the iOS-style screen locker;2. Sliding to unlock and the simple password allows you to experience the easiest and most secure lock screen;3. The notifications can be showed on the locked screen if you use Espier Notification plugin;4. Camera button to activate the camera, you can easily and fast capture the beautiful scenery around;5. You can select a widget that size is 4*1 or 5*1, and let it shows on the lock screen page;6. Easy-to-use, simple, and beautiful UIs; 7. Unique multi-language support;8. Genuine validation to prevent use of the maliciously cracked version of this app;9. Use Espier Notifications plugin at the same time, you will get a complete \xe2\x80\x9ciPhone\xe2\x80\x9d! USAGE GUIDELINES1. Make sure that you have installed Espier Launcher v2.0.9 or above. 2. Download and install this plugin. 3. In the home screen of Espier Launder, tap the \xe2\x80\x9cEspier Hub\xe2\x80\x9d icon, choose \xe2\x80\x9cLauncher Plugins\xe2\x80\x9d and turn on the plugin. 4. Please set Espier Screen Locker as the default launcher to solve the issue on some Android devices which can be unlocked by pressing HOME key.5. In order to show the notifications on the lock screen, please install Espier Notifications plugin.IMPORTANT NOTES1. You can freely download and install this app from Google Play or other 3rd-party app markets. And you will get 14-day free use for evaluating this app. After this, you will be charged for a valid and permanent license.2. A permanent license of this plugin cost 800 Espier Coins. Espier Coin is a virtual currency, and 1,000 Espier Coins are equal to USD5.00. However, if you keep visiting Espier Mobile Portal from Espier Launcher, you will gain some GIFT coins. As a result, you might be able to buy the permanent license without any real payment!3. For more information about the Espier Coins, please refer to:http://www.espier.org/en/developers/blog/espier-micro-portal-peronal-center-released/Recent changes:Enhancements and optimizations:1) Optimize the UI effect.2) Optimize the animation effect.3) Added unlock special effects.4) Added the genuine validation.Fixed Bugs:1) Bugs which consume power.2) Other bugs.'
p4
tp5
tp6
.