((S'Title'
p0
S'ESPN Radio '
p1
tp2
(S'Description:'
p3
S"Take your sports wherever your ears go! Introducing the new and improved ESPN Radio app for your Android, with a host of expanded features and functionality for sports fans. Listen live to ESPN Radio, your favorite podcasts, live play-by-play and more. \xc2\xb7 LISTEN LIVE to internet broadcasts of over 35 ESPN Radio stations around the country\xc2\xb7 LISTEN to your favorite ESPN shows like Mike and Mike in the Morning, The Herd with Colin Cowherd, The Scott Van Pelt Show, The Michael Kay Show and many more!\xc2\xb7 LISTEN to play-by-play from some of your favorite college and professional sports teams*\xc2\xb7 LISTEN to 35 ESPN Radio podcasts including The B.S. Report with Bill Simmons, Pardon The Interruption, Around The Horn, Fantasy Focus and Tony Kornheiser Show\xc2\xb7 LISTEN OnDemand to SportsCenter - updated every 20 minutes!** NEW **  Create custom stations and playlists with your favorite teams/topics/players/sports/shows ** NEW **  Download your playlists for \xe2\x80\x98off-line\xe2\x80\x99 listening ** NEW **  Alerts/breaking news notifications from around the sports world  *Due to contractual limitations with certain content, especially play-by-play broadcasts, there are times when the schedule that's on-air won't match the schedule that's online. While we make every effort to update the schedule, occasionally the nature of play-by-play broadcasting limits our ability to accurately present the latest schedule (ie., rain delays, last minute schedule changes). We apologize for any inconvenience this causes. If you have specific schedule questions, please contact the station directly by visiting their website.Recent changes:This update fixes a bug that would sometimes prevent users on GSM based cellular networks from connecting to live streaming radio stations"
p4
tp5
tp6
.