((S'Title'
p0
S'ES Task Manager '
p1
tp2
(S'Description:'
p3
S"Uninstall the older version first before installation if you meet issues(such as widget disappear, cannot start,...).Save Battery,Free Memory,Kill Task,Uninstall App,Speed up the phone*add important app to ignore list to avoid to be killed!Click-choose,Long Press-MenuES Task Manager could be integrated in ES File Explorer.-----------------------------------------------------------More than 10 million users! One of best tools on Android market. Support 18 languages. ES File Explorer for Android is a free, featured all-in-one file manager & application manager & task killer & dropbox client & ftp client which explores your phone and your computer. It allows android users anywhere in the world to manage their resources for free, it makes easy to manage, stay connected using your 3G, EDGE or WiFi, and share with friends, upload photos, watch videos.Latest Features List :* File Manager -- Operate files(Copy, Paste, Cut/Move, Create, Delete and Rename, Share/Send) in the phone and computers* Multiselect files* Application manager -- Manage apps(Install, Uninstall, Backup, Shortcuts, Category)* Compress and Decompress ZIP files, Unpack RAR files, can create encrypted (AES 256 bit) ZIP files* View Different file formats, photos, docs, videos anywhere, support third party applications such as Document To Go to open document files* Thumbnails for APK,images, and with an inbuilt image browser* Text viewers and editors* Search files* Access your Home PC, via WIFI with SMB* FTP, it's your FTP client, manage the files on the FTP server as the ones on the sd card* Dropbox, it's an enhanced dropbox client other than the official version. It can save photos and videos to your dropbox and share your photos and docs, easily edit docs in your Dropbox.* Bluetooth file transfer tool. You can copy and paste files between bluetooth ready devices.It supports OBEX FTP for browsing devices and transfering files between Bluetooth devices.* Kill tasks, with a one click, pretty simple widget for auto kill, with ignore list to ignore some applications you don't want to kill. It is an advanced task killer to kill running applications and clean memory(This feature needs ES Task Manager module installed)* Shortcuts, bookmark manager (This feature needs ES Bookmark Manager module installed)* Root explorer feature. It is the ultimate file management tools for root users. You might access the whole file system and data directories, and change permissions.* Developers can visit our website for the developer interface for picking files from your applications, email attachments, etc.* And much more. Old description:Free, Featured File manager & App manager & taskkiller which explores PHONE & PC.*copy/cut move*thumbnails*multiselect*edit text*manage apps*send as*search*(de)compress*media on ftp*access PC*bluetoothIt's a file manager, a file explorer, a app manager, just bring all your photos, docs, and videos anywhere. It's ES File Explorer. It's a free client for FTP, Dropbox (dropbox .com), SMB, Bluetooth. It has inbuilt txt reader, text editor, image viewer, zip viewer and player, it would copy, move, cut, paste, create, rename, it manage files, folders, applications, memory,it can do sharing by WIFI. Always have your stuff with you, no matter when and where.It's ES File Explorer, It's made by ES.ES File Explorer ES File Explorer ES File Explorer ES File Explorer ES File Explorer ES Task Manager ES Task Manager ES Task Manager is from ES----------------------------------------------------------We're working for a best managers for users of ES, so, do not hesitate to CONTACT ES with your advice, or if you have any issue.Recent changes:FAQ: cannot find widget? move the application to the phone and reboot.V1.3.11)Fix issues on ICS(Android 4.0)2)Long press Menu to sort it3)Add widget icon on process listV1.31)New start page(Skip it from the settings)2)Power Optimization3)Phone InformationV1.2New UIClean cacheNavigation pagePower managementAuto start management for root...V1.1.4New Widget StyleNew IconAny issue, mail to us"
p4
tp5
tp6
.