((S'Title'
p0
S'Europe Tv Live '
p1
tp2
(S'Description:'
p3
S"Europe Tv Live (countries like : Bulgaria, Denmark, Finland, France, Germany, Greece, Iceland, Italy, Netherlands, Norway, Portugal, Romania, Russia, Spain, Sweden, Turkey, UK, Ukraine, US.A)Completely free.* No need to uses extra devices, extra utilities.* Just use your mobile device (phone,tablet, etc.) .* Easy to use. Just click and watch. * Over 650 channels included!!Europe Tv Live is the best app for watching live tv channels from countries like :Bulgaria, Denmark, Finland, France, Germany, Greece, Iceland, Italy, Netherlands, Norway, Portugal, Romania, Russia, Spain, Sweden, Turkey, UK, Ukraine,  channels in your android for free!If you have any issue/suggestion/improvements regarding the application, please feel free to mail us.Add your comments and give stars on the market! Thanks.If you want us to add a new channel, send us email with channel name and a link to the channel. We will add it! This is not the official application of the different channels.We don't have any connection with content providers or have any rights regarding content.This app is just a mean to view the content in an organized way.This application uses internet connection. Wifi/3g/4g are supported connection protocols. Wifi is more economic and more robust internet connection,so we recommend to use wi-fiRecent changes:Version 0.0.3: Added Albania, refreshed stations listVersion 0.0.5: Refreshed stations list - changed icons"
p4
tp5
tp6
.