((S'Title'
p0
S'Evernote Food '
p1
tp2
(S'Description:'
p3
S"Evernote Food 2.0 is now available on Android!Evernote Food helps you remember the food you love. From discovering great recipes and restaurants to capturing your memorable food experiences, Evernote Food is the one app you need to remember your life in food.\xe2\x80\xa2 Explore the best recipes from across the web and save them to My Cookbook to try later\xe2\x80\xa2 Find great restaurants near you or anywhere in the world; add them to your wish list or book a reservation\xe2\x80\xa2 Document your food experiences through photos, notes, & locations\xe2\x80\xa2 Share your meals with friends through e-mail, Twitter, Facebook, or linksBonus: Since Evernote Food is part of Evernote, recipes you clip using Evernote Web Clipper on your desktop will also appear in the the My Cookbook section of the app. Use tags to organize them based on diet and ingredients.Additionally, anything you save in Evernote Food will show up in Evernote on any device you use.What's new in Evernote Food 2.0\xe2\x80\xa2 Explore Recipes - Thousands of recipes from the best food sites to browse, search, and save.\xe2\x80\xa2 My Cookbook - Recipes you save in the app, plus ones you've clipped or saved in Evernote, show up here, making them easy to find from any device.\xe2\x80\xa2 Restaurants - A location-based list and map view of restaurants that lets you clip and save the ones you want to try and see all the spots you've visited.\xe2\x80\xa2 My Meals - A photographic journey through all of your past meals and food adventures.Here are just a few ways you can use Evernote Food:\xe2\x80\xa2 Build your own online cookbook using My Cookbook, where you can save favorite and new recipes you want to try. \xe2\x80\xa2 Document each step of recipe preparation with photos and captions, from new creations to family traditions you want to preserve.\xe2\x80\xa2 Discover restaurants by location or cuisine and create a list of ones to visit in your city and for travel destinations. Book your table within the app using OpenTable.\xe2\x80\xa2 Remember culinary journeys using My Meals. Add images and notes on the food, wine, people, and ambience that make trips memorable.\xe2\x80\xa2 Capture your food memories of special restaurant or home-cooked meals enjoyed with family and friends. Take note of dishes you love so you can order them again.Learn more: http://evernote.com/food/Follow Evernote Food on Twitter: twitter.com/evernoteRecent changes:2.0.1:- Bug fixes2.0:Explore Recipes:- Explore and save recipes from your favorite sitesMy Cookbook:- Browse recipes you've saved in Evernote Food and collected in your Evernote account- The app automatically displays recipes from your Evernote accountRestaurants:- Discover, book and save restaurants you want to try"
p4
tp5
tp6
.