((S'Title'
p0
S'Evernote '
p1
tp2
(S'Description:'
p3
S'\xe2\x98\x85  New York Times \xe2\x80\x98Top 10 Must-Have App\xe2\x80\x99, Winner: TechCrunch Crunchies, Mashable Awards and the Webbys. \xe2\x98\x85  Evernote is an easy-to-use, free app that helps you remember everything across all of the devices you use. Stay organized, save your ideas and improve productivity. Evernote lets you take notes, capture photos, create to-do lists, record voice reminders--and makes these notes completely searchable, whether you are at home, at work, or on the go. Key Features:- Works with Evernote Business: Capture, browse, search, and share Business Notes and Business Notebooks from your smartphone or tablet. - Sync all of your notes across the computers and devices you use - Create and edit text notes, to-dos and task lists   - Save, sync and share files - Search for text inside images - Organize notes by notebooks and tags - Email notes and save tweets to your Evernote account - Connect Evernote to other apps and products you use - Share notes with friends and colleagues via Facebook and Twitter \xe2\x98\x85 Premium feature: take notebooks offline to access them anytime \xe2\x98\x85 Premium feature: allow others to edit your notebooks \xe2\x98\x85 Premium feature: add a PIN lock to your Evernote appHere are some ways to use Evernote for your personal and professional life: - Research smarter: snap photos of whiteboards and books - Take meeting and class notes, draft agendas and research notes - Plan a trip: keep track of travel plans, plane tickets and passports - Organize and save recipes; search by ingredients later - Create a grocery list or task list and check things off as you go - View web pages saved in Evernote on your desktop - Capture ideas and inspiration on the go - Access files and notes you create on your phone from your desktop - Keep track of products and prices for comparison shopping purposes - Keep finances in order: save receipts, bills and contracts - Reduce paper clutter by taking snapshots of restaurant menus, business cards and labels - Use Evernote as part of your GTD system to help you stay organized - To get the most out of your Evernote experience, download it on all of the computers and phones that you use. Evernote is available on any computer, phone and tablet device.More information about permissions at:http://evernote.com/privacy/data_usage.phpLearn more: http://evernote.com/getting_started/Recent changes:Fixed in 5.0.3> Crash at start on specific devices> Added Vietnamese glyphs> Performance issue on Kindle Fire> Crash in Multishot cameraCamera improvements> Page Camera mode beautifully digitizes photos of physical documents and pagesEvernote Smart Notebook by Moleskine!> Evernote for Android now works with the Evernote Smart Notebook by Moleskine> Order yours at http://evernote.com/moleskine'
p4
tp5
tp6
.