((S'Title'
p0
S'ExDialer & Contacts '
p1
tp2
(S'Description:'
p3
S'\xe2\x98\x86Super easy-to-use\xe2\x98\x86Fast and smooth\xe2\x98\x86Extra light-weight\xe2\x98\x86Smart T9 algorithm\xe2\x98\x8630+ languages\xe2\x98\x86Directly call/text to someone by swiping left/right\xe2\x98\x86Various themes and pluginsThis is a trial version with 7 days trial period. When the trial period expired, you will be asked to buy PRO version. You can still keep trying if you haven\'t decided to buy.Help to translate to your language, please visit http://crowdin.net/project/dialer\xe2\x96\x8cUseful Skills\xe2\x80\xa2 Long press the contacts button(at left-bottom corner of dialer view) to quick access favorites\xe2\x80\xa2 Dial "#" key to perform phone number searching\xe2\x80\xa2 Dial "*" key to display list of most frequently contacted contacts\xe2\x80\xa2 Swipe contact item left or right, to send SMS or make a call directly\xe2\x96\x8cPlugins\xe2\x80\xa2 ConnectVibratePerforms vibrate notification when outgoing call connected or call disconnected\xe2\x80\xa2 xMissedCallHelp exDialer to grant ability to clear missed call notifications\xe2\x80\xa2 ShortcutCustomize icons of exDialer by creating shortcuts\xe2\x80\xa2 GeocoderProvides the location information of phone numbers\xe2\x96\x8cKnown Issues\xe2\x80\xa2 Missed call notifications remained> Try "xMissedCall Patch" or "xMissedCall Plugin" if your phone is rooted.\xe2\x80\xa2 Unable to select SIM card ID when make a call on phones with Dual SIM cards.> Android SDK does not support Dual SIM cards. So, I have no way to solve this problem until Google release new SDK which supports Dual SIM cards.\xe2\x96\x8cLanguagesEnglish, Chinese, Polish, Greek, Chinese Traditional, Portuguese, Spanish, Russian, German, French, Danish, Czech, Hebrew, Slovene, Persian, Bulgarian, Italian, Georgian, Turkish, Romanian, Hungarian, Vietnamese, Indonesian, Norwegian, Arabic, Latvian, Croatian, Slovak, Dutch, Korean, Serbian, Belarusian, Estonian\xe2\x96\x8cAcknowledgments:  Excellent MiUI rom  http://www.miui.com  thinkpanda teamTranslations  Translators on Crowdin http://crowdin.net/project/dialer  Piotrek Paszek --- Polish  dancer_69 --- Greek  Kayusumi --- Chinese Traditional  Filipe Garcia --- Portuguese  hopler --- Spanish  \xd0\x98\xd0\xbb\xd1\x8c\xd1\x8f \xd0\xaf\xd0\xba\xd0\xbe\xd0\xb2\xd0\xbb\xd0\xb5\xd0\xb2 & \xd0\x98\xd0\xbb\xd1\x8c\xd1\x8f \xd0\xb8 \xd0\x90\xd1\x81\xd1\x8f --- Russian  TweetyPeety --- German  scrpn30 --- French  Neo3000x --- Danish  crking --- Czech  0ftal --- Hebrew  gepardus --- Slovene  Alireza Afkar --- Persian  \xd0\xa1\xd1\x82\xd0\xbe\xd1\x8f\xd0\xbd \xd0\x98\xd0\xb2\xd0\xb0\xd0\xbd\xd0\xbe\xd0\xb2, \xd0\x94\xd0\xb8\xd0\xbc\xd0\xb8\xd1\x82\xd1\x8a\xd1\x80 \xd0\x94\xd0\xb8\xd0\xbc\xd0\xb8\xd1\x82\xd1\x80\xd0\xbe\xd0\xb2 --- Bulgarian  stegg, Alex --- Italian  giorgi-alonso --- Georgian  \xc3\x96zg\xc3\xbcrce --- Turkish  Turdo D. --- Romanian  Indiant --- Hungarian  alienyd --- Vietnamese  distan7 --- Indonesian  MariusOX --- Norwegian  machhho --- Arabic  janni_mz --- Latvian  Mihovil Stanic --- Croatian  pRo_lama --- Slovak  Planet X --- Dutch  dusttea, Sang Gu Bach --- Korean  Marko Kostic --- Serbian  Ivan Katlianik --- Belarusian  iff2 --- Estonian  \xd0\x86\xd0\xb3\xd0\xbe\xd1\x80 \xd0\x9e\xd0\xbc\xd0\xb5\xd0\xbb\xd1\x8c\xd1\x87\xd1\x83\xd0\xba --- Ukrainian  All guys in XDA forum who give me great suggestionsKeywords: phone,dialer,dial,contacts,contact,theme,smart dialer,T9,pinyin,miui,quick dial,speed dialRecent changes:v125*Add menu item to Filter Calls. (Long press delete button to quick access)*Under default setting, open stock dialer to clear missed call notifications, if xMissedCall not installed*Small bugs fixedv122*New default theme named "Simplism"*Some small bugs fixed*Set trial period to 7 days (when expired, app is still usable)'
p4
tp5
tp6
.