((S'Title'
p0
S'Eye-Fi '
p1
tp2
(S'Description:'
p3
S'With an Eye-Fi X2 card, you can instantly upload full resolution photos & videos directly from your digital camera to your Android smartphone or tablet, wherever you are. Connect your Eye-Fi X2 card directly to your Android device anywhere using Direct Mode - no tethering, Wi-Fi router or Wi-Fi hotspot required. Just turn your camera on, and let Eye-Fi do the work for you.Thanks to the Eye-Fi app, you can automatically back up and organize photos and videos by date on your home computer, or share them on your favorite online site. Now you can get all your photos backed up and organized, whether you took them with your digital camera or Android device. No cables. No hassles.*** You need to have an Eye-Fi account to use this app. ***Key benefits: \xe2\x80\xa2\tWireless backups & organization on your computer. Eye-Fi sends your full resolution photos and videos to your computer. No more fussing with cables. \xe2\x80\xa2\tStay organized. Eye-Fi automatically organizes photos & videos on your computer by date.\xe2\x80\xa2\t Select all or just the photos and videos you want and choose where they go. Want to send a few pictures to your friends on Facebook, another group of photos to your Picasa album? Eye-Fi makes it easy. When used with an Eye-Fi X2 card:\xe2\x80\xa2\tInstant uploads from your camera to your Android device\xe2\x80\x99s photo gallery \xe2\x80\x93 anywhere. The Eye-Fi X2 card connects directly to your Android device using Direct Mode. No tethering, Wi-Fi router or Wi-Fi hotspot required.\xe2\x80\xa2\tUse your favorite Android apps to view, edit and share your photos\xe2\x80\xa2\tWant to share on-the-go? The Eye-Fi app can use your Android device\xe2\x80\x99s data connection (EDGE, 3G or Wi-Fi) to upload stored photos to your favorite online sharing site, wherever you are (data charges may apply). Eye-Fi makes wireless SDHC memory cards that make your existing digital camera wireless too. Learn more at www.eye.fi Supported photo sites include: Costco.com, Evernote, Facebook, Flickr, Picasa, Shutterfly, Snapfish, Smugmug, WalMartSupported video sites include: Flickr, Picasa, Smugmug, YouTubeIf you have any issues go to http://forums.eye.fi and post  your question or send to support@eye.fi.Recent changes:*** IMPORTANT: Update your Eye-Fi card to work around android OS bug causing crash. ***  - Fixed OS Ver 2.2 upload issue - Added remove all uploads (long press) in status view - Fixed selection of media destination on some phones - Better thumbs on 7" tabsNew Features: - GPS tagging using your mobile device (accessed in Settings->Application preferences)Performance/General - Better image handling/scrolling - Remove \'Avoid poor connection\' check.'
p4
tp5
tp6
.