((S'Title'
p0
S'Eye test '
p1
tp2
(S'Description:'
p3
S"When was the last time you had your eyes tested? You can\xe2\x80\x99t remember? Yeah, well, neither do I! With this eye test you can test your vision at home easily and totally free! After doing the tests you should be able decide whether or not you should see  an eye doctor (optometrist, optician). Doing the vision tests is fun, and you can also share the results with your friends on Facebook!**The app is in English! Please don't give me bad ratings because the app is not in your language!**The application has 6 types of eye tests:* Visual acuity tests (based on a Snellen chart, numbers and text, with black or white background)* An Ishihara Color Blindness  test* 4 Amsler grid tests* An AMD test for macular degeneration* A Glaucoma survey* A Written test aka. how much do you know about the eye?If you want more tests, download the pro version that has 7 more tests:  OKN strip, Red Desaturation, Contrast sensitivity, duochrome test, Landolt C (Landolt ring) test, Tumbling E test, Astigmatism testhttps://play.google.com/store/apps/details?id=com.b2creativedesigns.eyetestproDISCLAIMER:Due to variations in each screen accuracy (screen size, brightness/contrast, resolution) the eye tests are not perfect.Do not consider the tests in the app official tests. These tests only mean to give you an idea whether or not you should see an eye doctor or go on an eye therapy.In order to be able to keep the application free, we need to implement ads. Please do not give us bad ratings because you don't like ads. Rate our application by it's performace, design, compatibilty or anything you want.VISUAL ACUITYThe visual acuity test is a routine part of an eye examination, particularly in case of vision problems. At a young age, these vision problems can often be corrected or improved. Undetected or untreated vision problems can lead to permanent vision damage.COLOR BLINDNESSColor Blindness is a commonly misleading term, because most people think color blind people cannot see colors. They can see colors, but cannot make out the difference between some couples of complementary colors. With our color test you can check if you are colorblind or not.AMSLER GRIDThe Amsler grid is a grid of horizontal and vertical lines used to check vision problems caused by changes in the retina, particularly the macula as well as the optic nerve.AMDAge-related macular degeneration is a progressing eye condition that affects millions of people. The disease attacks the macula, which is responsible for the sharp, central vision.GLAUCOMAGlaucoma is a group of diseases that damage the eye\xe2\x80\x99s optic nerve and can result in vision loss. If left untreated, It can lead to blindness. With the proper treatment you can protect your eyes and vision.What to do if I get bad results?If your results indicate you may have vision problems, you should see an eye doctor. Having regular eye examinations promotes eye health. It also allows your doctor to measure your vision and make the necessary changes to your prescriptions.You can also download eye training apps to preserve your eye sight and improve vision. You should take better care of your eyes and vision. Preserving vision health is one of our most important thing to do. Omitting eye care and eye exams can result in serious vision damage.If you experience any eye problems using the web browser, to-do apps, calendars, writing messages or checking the phone book or the call log, you should take this test to check if you need eye treatment and/or vision training.Night vision improves night vision, it also improves night vision, this visual acuity test improves your visual acuity and your night vision.Recent changes:1.6 Added description of all pro tests.1.5 Removed title bar to free up screen space.1.4.7 Added Google Analytics to analyze usage.1.4.6 Amsler Grid force close fixed!1.4.5 Removed Leadbolt ads as they were classified as virus by some antivirus software. The app is totally virus free whatever some users say, checked with AVG and Avast"
p4
tp5
tp6
.