((S'Title'
p0
S'Face Swap Lite '
p1
tp2
(S'Description:'
p3
S'Want to swap faces in a photo? Face Swap Lite makes it so easy and fun to switch faces, everyone can do it!Face Swap Lite has all the features as the full version, it is ad supported and adds a tiny watermark to your results.Buy the full ad-free version here: https://play.google.com/store/apps/details?id=com.swap.faceUse it to amuse people at your next party, boring day at the office, or family get together. Swap the faces of your friends, co-workers, mom and dad, even your grandparents!Simply take a picture, or import one from your gallery, and Face Swap will scan and locate the faces. Don\xe2\x80\x99t worry if it won\xe2\x80\x99t detect your face, just drag and resize the masks over the faces. Then push the Swap button and get creative!\xe2\x98\x85 FEATURES \xe2\x98\x85 \xe2\x9c\x94 Easy to use: Snap/Import -> Fine tune -> Save/Share\xe2\x9c\x94 Powerful controls for pixel perfect results: move, scale and rotate your masks.\xe2\x9c\x94 4 new image filters: Brightness, Contrast, Hue and Saturation\xe2\x9c\x94 Universal app: Works on phones and tablets, both portrait or landscape mode\xe2\x9c\x94 Share your creations: Use any sharing option available on your device!\xe2\x9c\x94 Ad-supported, no intrusive permissions!\xe2\x98\x85 REVIEWS \xe2\x98\x85 "Laugh your head off" - AndroidZoomGreat app! \xe2\x9c\xad\xe2\x9c\xad\xe2\x9c\xad\xe2\x9c\xad\xe2\x9c\xad\xe2\x9d\x9dI have been looking for a good face swapping app for android for some time now and this is it! Totally worth it!\xe2\x9d\x9eFINALLY ON ANDROID \xe2\x9c\xad\xe2\x9c\xad\xe2\x9c\xad\xe2\x9c\xad\xe2\x9c\xad\xe2\x9d\x9dThe only face swap app on android :-)\xe2\x9d\x9eWOW!!!! \xe2\x9c\xad\xe2\x9c\xad\xe2\x9c\xad\xe2\x9c\xad\xe2\x9c\xad\xe2\x9d\x9dI didn\'t expect much from it but WOW I\'m really impressed. The app does magic to faces, they blend really well. I can\'t see why some people complained about it. They were probably too lazy to fine tune the details. Its all in the details people!! Work for it :)\xe2\x9d\x9e\xe2\x98\x85 TIPS \xe2\x98\x85 For best results, use photos taken in good lighting, faces should not be covered or at excessive angles. Use the Mirror or Rotate to adjust the faces perfectly.\xe2\x98\x85 FOLLOW US \xe2\x98\x85 Our Facebook page: http://www.facebook.com/faceswapusFollow us on Twitter: https://twitter.com/#!/FaceSwap_appFace Swap Lite is a funny application made for entertainment purposes only. NOTE: As much as we strive to make this available to over 1000 different Android devices, some crashes might occur, please send us a message before giving it a bad review. We promise to reply in the shortest time possible as your opinion is important to making our app better.This app is ad supported, but it does not require invasive permissions like other apps do. You can get the full version to remove these advertisements and to support the development of new features. Thank you!Recent changes:Version  2.0 - Adjust brightness, contrast, hue and saturation on swapped faces- Improved croppingVersion 1.1- Rotate masks/faces, just select a face, tap rotate and use the slider- Greatly improved face detection- Move and scale swapped faces- Swap up to 10 faces inside the same image- Bug fixes---For technical issues, please send us an email: help [at] faceswap [dot] us. We would love to help and we cannot reply to reviews.---'
p4
tp5
tp6
.