((S'Title'
p0
S'Fandango Movies '
p1
tp2
(S'Description:'
p3
S'Download Fandango Movies \xe2\x80\x93 Times & Tickets, the #1 movie ticketing app and winner of three Webby Awards!  Winner: Shopping (Tablets & All Other Devices) Jury AwardWinner: Shopping (Tablets & All Other Devices) People\xe2\x80\x99s Voice AwardWinner: Entertainment (Handheld Devices) People\xe2\x80\x99s Voice AwardFandango, the nation\xe2\x80\x99s leading movie ticketing service and one of the Web\xe2\x80\x99s top moviegoer sites is available as a free app for your Android!  Whether browsing from your couch or the local coffee shop, everything you need to know about \xe2\x80\x9cwhat\xe2\x80\x99s in theaters\xe2\x80\x9d is at your fingertips.  Fandango\xe2\x80\x99s app makes the moviegoing experience better than ever!  New in This Version\xe2\x80\xa2\tFeeling social? Sign into your Fandango account to manage Facebook sharing \xe2\x80\xa2\tNo matter what device you\xe2\x80\x99re on, sign into your Fandango account to access your saved credit card, view purchase history, ticket details, \xe2\x80\x9cFavorite Theaters\xe2\x80\x9d and \xe2\x80\x9cMy Movies\xe2\x80\x9d lists \xe2\x80\xa2\tVisa Signature account holders \xe2\x80\x93 save your card for faster ticket purchasing and access to special offers with TIXPRESS\xe2\x84\xa2! \xe2\x80\xa2\tGeneral bug fixes and usability enhancementsApplication Features Browse Movies:\xe2\x80\xa2\tUse our "Next Hour" feature to quickly find movies playing within the hour in your area \xe2\x80\x93 sort movies by start time or distance\xe2\x80\xa2\tFind out what\xe2\x80\x99s playing \xe2\x80\x93 use Voice Search, browse movies by \xe2\x80\x9cIn Theaters\xe2\x80\x9d and \xe2\x80\x9cComing Soon\xe2\x80\x9d lists, filter by MPAA rating or view by \xe2\x80\x9dMost Popular\xe2\x80\x9d and "Top Box Office" \xe2\x80\xa2\tUse our \xe2\x80\x9cSearch\xe2\x80\x9d function to find movies, theaters and performers\xe2\x80\xa2\tPersonalize your search with the \xe2\x80\x9cMy Movies\xe2\x80\x9d list! Save the movies you want to see, sign up for FanAlerts\xe2\x84\xa2 to be notified when they hit your local theater and rate the movies you\xe2\x80\x99ve seen\xe2\x80\xa2\tView high-quality trailers and movie photos\xe2\x80\xa2\tCheck out the \xe2\x80\x9cVideo\xe2\x80\x9d section to watch the latest episode of Fandango\xe2\x80\x99s original video series, Weekend Ticket, and view video galleries!\xe2\x80\xa2\tView the most accurate showtimes; read fan ratings and reviews, genres, synopses, run times and director and cast lists\xe2\x80\xa2\tRead Metacritic reviews, featuring the most respected movie critics and Metascores\xc2\xa9 that combine individual critic scores into an overall grade for each film\xe2\x80\xa2\tCheck out Movie Tweets to view the ten most recent tweets posted about a specific filmFind Theaters:\xe2\x80\xa2\tFind theaters closest to you using Android phone\'s GPS feature\xe2\x80\xa2\tAdd theaters to a "Favorites" list for faster searching\xe2\x80\xa2\tDiscover theater amenities such as stadium seating and wheelchair accessibility\xe2\x80\xa2\tConnect with Google Maps to find driving directionsPurchase Tickets in a Flash:\xe2\x80\xa2\tBuy tickets without leaving the app for 21,000+ screens \xe2\x80\x93 & counting \xe2\x80\x93 more than on any other app! Including all AMC Theatres locations!  \xe2\x80\xa2\tAt participating theaters, go straight to the ticket-taker to have your mobile device scanned with "Mobile Ticket"\xe2\x80\xa2\tReserved Seating available!  For select theaters, you can now pick your seat directly from the app and breeze into the theater just before showtime!  \xe2\x80\xa2\tCreate or sync your Fandango account to securely store your credit card or use Fandango gift certificates as a payment option\xe2\x80\xa2\tSave your theater reward card numbers, apply to applicable orders & earn rewards points! (Participating theaters only)\xe2\x80\xa2\tVisa Signature account holders - save your card for faster ticket purchasing & access to special offers with TIXPRESS\xe2\x84\xa2! (iPhone only) \xe2\x80\xa2\tGive the gift of movies! Now you can purchase Fandango Gift Cards directly from the appShare + Sync:\xe2\x80\xa2\tFeeling social? Sign into your Fandango account to manage Facebook sharing \xe2\x80\xa2\tRate and review movies directly from the app and share with other Fandango users or post to your Facebook wall\xe2\x80\xa2\tNo matter what device you\xe2\x80\x99re on, sign into your Fandango account to access your saved credit card and loyalty card numbers, view purchase history, ticket details, \xe2\x80\x9cFavorite Theaters\xe2\x80\x9d and \xe2\x80\x9cMy Movies\xe2\x80\x9d lists Help us make Fandango even better! Please send detailed feedback and report issues to: androidappcomments@fandango.com.Recent changes:New in This Version\xe2\x80\xa2\tFeeling social? Sign into your Fandango account to manage Facebook sharing \xe2\x80\xa2\tNo matter what device you\xe2\x80\x99re on, sign into your Fandango account to access your saved credit card, view purchase history, ticket details, \xe2\x80\x9cFavorite Theaters\xe2\x80\x9d and \xe2\x80\x9cMy Movies\xe2\x80\x9d lists \xe2\x80\xa2\tVisa Signature account holders \xe2\x80\x93 save your card for faster ticket purchasing and access to special offers with TIXPRESS\xe2\x84\xa2! \xe2\x80\xa2\tGeneral bug fixes and usability enhancements'
p4
tp5
tp6
.