((S'Title'
p0
S'Fart Sound Board '
p1
tp2
(S'Description:'
p3
S'Top free fun fart app!+++ 15 Apps in 1! +++A lot of fart sounds on different boards. Each button reacts realistically and the high quality sounds are all professionally recorded and tuned.Features:\xe2\x98\x85The automatic "Fart Machine Extreme":A fart will play when a voice or a noise is too loud. You can set up the sensitivity with one simple slide and choose the trigger modus, sound movement and touch.Extremely funny when the phone is hidden somewhere :-)\xe2\x98\x85The mega "Fart Sound Board":With this fart board you can play farts easily by pressing different buttons.\xe2\x98\x85The fart piano:Play the fart piano with tons of great farts.Choose one of the 3 different fart modus and play it as you would with a real one.You can try and play your favorite MP3 songs/music or invent some new ones. You could become a compositor like Mozart and Bethoven and become the new fart symphony master.\xe2\x98\x85The fart cushion:This is a must, to have for every fart fan :-)Warning: Do not sit or think about letting somebody do it as the phone will not carry the weight of a human being.\xe2\x98\x85The fart grenade:Let the fart grenade explode in the time you define! You can hide the device and let it explode :-)\xe2\x98\x85Pull my finger 3D:Pull the 3D finger and hear the different farts :-). This is a great functionality for kidding friends.\xe2\x98\x85Stinky A** Detector:Find out if your friends are stinky. Great FUN at parties! ;-)Advice: By using this tool, do not let you friend discover that you move your finger on the secret slide bar.\xe2\x98\x85The talking fart:Talk to the elephant and he answers with his funny fart voice and reacts to what you say or your touch.\xe2\x98\x85The fart shaker:Shake your phone! The one who shakes the phone the most will be elected as "Fart Mega Man"!\xe2\x98\x85The fart game:Collect points by quickly touching the right butts. Pay attention to the wrong ones which are red.\xe2\x98\x85Remote Fart:Prank your friends. Connect 2 phones together and then use the remote fart soundboard on one phone to play the sound on the other phone.\xe2\x98\x85A\xe2\x80\xa6Lighter\xe2\x98\x85Jokes Collection:Funny jokes divided in many categories in different languages like English, German, Spanish and Italian:Jokes about animals, police men, lawyers, doctors, teachers, manager, women, cats, waiters, weather, military, army, etc.\xe2\x98\x85Image Faker:A tool to create new fantastic fake pictures that you will be able to send per mail, share with Whatsapp, Twitter, Skype, another Messenger Tool or simply upload them to Facebook, Flickr, Dropbox etc. Turn yourself or your friend into a pig, monkeys, a shark, a bodybuilder, a fighter, a monster, an alien, a gangster, a skeleton or create other funny pics starring T-rex, different signs, toilet, garbage, taxi, etc.\xe2\x98\x85StickersGive your pictures a personal touch. Select either a photo from your gallery or an image which is already faked. Take the selected pic and start personalizing by choosing between numerous stickers. You will be spoiled for choice in selecting the coolest sticker. It contains stickers with various subjects like, hats, wigs (hairstyles), bugs, flames, spiders, sunglasses, eyes, mouth expressions like kisses, scary objects with blood, etc. Let your pictures communicate something or create some comics by writing some fun stuff into bubbles.This is a free app - enjoy it!Recent changes:- Performance improvement- Faster loading- Stability increased- Better supporting for lower devices- Bugfixing'
p4
tp5
tp6
.