((S'Title'
p0
S'FFF - Facebook photos & videos '
p1
tp2
(S'Description:'
p3
S"FFF is the best app to watch Facebook photos and videos -*Watch photos and videos from Facebook news feed in full screen in different qualities*Play Facebook & YouTube videos directly*Slideshow*Save Facebook photos / videos*Watch friend's post wall and album photos*You can share, like, comment the postsFun From Friends,Fun From Facebook, andFun From FREEdi!Recent changes:*Bug fix"
p4
tp5
tp6
.