((S'Title'
p0
S'FidMe - Loyalty cards '
p1
tp2
(S'Description:'
p3
S'FidMe: Gather all loyalty cards, vouchers and discounts on your phone!No more plastic cards or paper, no more forgetting in the shop, let your wallet breathe and join in the leading application of loyalty cards on mobile! All cards of your brands and shops nearby in one app! You wanted evolution, here it is!FidMe 4 is:\xe2\x9c\x94 Save more than 3000  loyalty cards on your mobile in 14 languages\xe2\x9c\x94 Connect your loyalty programs in real time to view your remaining points and vouchers!\xe2\x9c\x94 Manage your notifications and vouchers to receive offers from your favorite brands!\xe2\x9c\x94 Shops and franchises, create your free buffer card!\xe2\x98\x85 \xe2\x98\x85 \xe2\x98\x85 \xe2\x98\x85 \xe2\x98\x85 "App of the Week" France, Holland, Belgium - Apple 05/12\xe2\x98\x85 \xe2\x98\x85 \xe2\x98\x85 \xe2\x98\x85 \xe2\x98\x85 The good plans for the  school year 2012! - T\xc3\xa9l\xc3\xa9 Poche 09/12\xe2\x98\x85 \xe2\x98\x85 \xe2\x98\x85 \xe2\x98\x85 \xe2\x98\x85 First mobile loyalty application in France - Source M\xc3\xa9diam\xc3\xa9trie 10/11\xe2\x98\x85 \xe2\x98\x85 \xe2\x98\x85 \xe2\x98\x85 \xe2\x98\x85 Finally mobile applications that are helpful! - Le Parisien (05/12)\xe2\x98\x85 \xe2\x98\x85 \xe2\x98\x85 \xe2\x98\x85 \xe2\x98\x85 [FidMe] reinvents the way to shop: Science and Future 11/11\xe2\x98\x85 \xe2\x98\x85 \xe2\x98\x85 \xe2\x98\x85 \xe2\x98\x85 Top 12 free applications - GQ News 01/11FidMe is ALWAYS free, without ads, you can synchronize your cards. Foremost YOUR application, it is thanks to YOUR feedback that we can improve it!FidMe means also:\xe2\x9c\x94 Barcode Recognition\xe2\x9c\x94 Simple and advanced geolocation of shops and stores.\xe2\x9c\x94 Subscribe to the cards around you! Discover new shops.\xe2\x9c\x94 Manage your account on www.fidme.com  (for individuals and businesses).\xe2\x9c\x94 Create your cards, share them, Facebook, Twitter, ...\xe2\x9c\x94 Scan the FidMe codes of your favorite merchants for stamps !\xe2\x9c\x94 Notifications in FidMe to never miss any tip.\xe2\x9c\x94 Check-ins, stamps, sponsoring, hundreds of combinations to earn points!\xe2\x9c\x94 Participate in the development of the FidMe community by suggesting your local shops!\xe2\x9c\x94 Smart links to official loyalty applications of brands.Thousands of loyalty programs available : Tesco, Nectar, Boots, Costa Coffee, Matalan, Game, Subway, Blockbuster, Superdrug, Ikea, Iceland, Shell, British Airways, Accor, HMV, Air France, Odeon, Sainsubury\'s...Hundreds of new businesses join FidMe every week!Go to your app or directly to www.fidme.com  to know everything!Join us on Facebook: http://www.facebook.com/FidMeNews Follow us on Twitter: http://twitter.fr/FidMeNews \xe2\x98\x85 7 trophies in 2011 (LSA, Ecommerce, ...), 4 in 2012 (Mobile Show Dubai,  The Mobile 2012 Paris...) \xe2\x98\x85Your feedback helps us to improve, please contact us on the website or on support@fidme.com !Thank you, you are almost 2 million in the FidMe family!FidMe by Snapp (www.fidme.com)FidMe is a registered trademark \xc2\xa9 2012 Snapp (www.snapp.fr)Recent changes:You asked for it , FidMe Team did it! Now you can test the application without creating an account. With this lighter version, you can save up to 5 cards in your m-wallet!We invite you to create an account to get all the benefits from FidMe features. Anyway, with or without account, FidMe remains FREE  and with no ads !We also improved some interface details and fixed some bugs (including FacebookConnect). Enjoy the update and have a good shopping!FidMe Team'
p4
tp5
tp6
.