((S'Title'
p0
S'File Expert HD '
p1
tp2
(S'Description:'
p3
S'File Expert HD is an ultimate app for managing your files on your mobile phones or tablets.File manager&explorer, app manager, Wi-Fi file transfer, cloud storage integrater-all in one!File Expert HD works on Android 4.0+, if you are running on Android 2.x or 3.x please try File Expert.File Expert currently supports 25 languages: English, Simplified Chinese, Traditional Chinese, Korean, Russian, Japanese, Hebrew, Italian, Spanish, Portuguese (pt-PT), Hungarian, German, Turkish, Polish, French, Romanian, Arabic, Czech, Dutch, Indonesian, Swedish, Greek, Ukraine, Bulgaria and Catalan.Key Features:* Optimized tablet layout, tree hierarchy file management experience just like on PC* New UI experience-Android Holo theme inteface* Browse Gallery, Video, Music, E-Books, Documents, Apps, Plug-in, APK files, Zip Files, Clouds, Favorites on start page.* Access to Phone SD card, External SD card and Phone Internal Storage on start page. * Quick Send- An extremely easy way to send files to your friends. Quick, Secure and Super Easy!* Share files via Wi-Fi with Web PC Suite, Share My Contents, Network Clients* Powerful File Manager- supports all basic file operations like Copy, Cut, Paste, Delete, Create, Sort, Rename, Details, Favorites, Hide, Create Shortcut. Batch operation and more!* Search SD card, perform operations on search results* Web PC Suite- Featured HTTP Sharing in old versions. When open service, turn your device into a HTTP Server and visit it wirelessly on PC in a Windows style interface. Double click on APK file to install.* FTP Sharing - When open service, turn your debice into a FTP Server. Manage your files on other FTP Clients.* NFC Tapping & Wi-Fi Direct Support-You can use NFC or Wi-Fi Direct enabled phone to transfer files and apps. Long press on a file to send.* Wi-Fi Send- Directly send files via Wi-Fi between File Expert powered devices. Long press on a file to send.* DLNA Sharing - Turn your smart phone to a full-featured DLNA media server! Access your media files on your Windows Media Player became so easy!* Access your host computer from phone-Samba Client, FTP Client, SFTP Client, FTP Client, WEBDAV Client, Bluetooth Client* Root access to system folders and files like Root Explorer. Remount /system to read write. Requires rooted phone and works with Pro Key.* Memory Manager- Apply difference roles to manage memory.It works with Pro Key.* SafeBox-Password protect for your personal files.It works with Pro Key.* Cloud Storage - Use one app to access various cloud services! Support Google Drive, Dropbox, Box.net, SkyDrive, SugarSync, Ubuntu One and more!* Bluetooth - Full-featured Bluetooth capabilities include OBEX FTP, OPP* App Manager - Uninstall/Backup apps. Click to install apps. Support silent operations if on rooted devices.* Archive manager - Create and decompress ZIP archive, Decompress RAR. You can view your ZIP/RAR/GZIP/TAR/TGZ/BZ file just like accessing a folder and directly decompress unique files and folders* One Touch Clean-Clear histories and unused files* Thumbnails - View thumbnails* Image Viewer - Supports both local and remote folder* Powerful Text Editor* Help your player to play media that store on SMB share (your player needs to support HTTP streaming).The ONLY file manager that can directly open some types of videos over SMB network* Theme manager - Choose alternative themes that you love!* File Picker - Help you open files * Many other very useful features are waiting for you to discover!If you\xe2\x80\x99d like to enjoy exclusive features please consider purchasing File Expert Pro Key Plugin. Pro Key needs to work with File Expert HD.Exclusive features included:1.Root Explorer2.Memory Manager 3.Safebox 4.Silent Uninstall 5.Silent InstallUser Manual:1. User Manual(By Shane Monroe): http://bit.ly/filexpert2. Settings/HelpTwitter: @FilexpertFacebook: File ExpertAny questions please let us know. Thanks!Recent changes:The New File Expert HD is coming!\xe2\x97\x8f Running on Android 4.0+ and more stable!\xe2\x97\x8f Tree Hierarchy file management experience and more convenient!V1.0.3 Change Log1.Improve Search feature: folders will show in search result2.Modify the order of folder in left tree directory. Folders will be sorted by Name and be more convenient to check.3.Fix a bug that Dropbox will be failed to connect sometimes4.The Safebox user interface is more intuitive 5.Update Russian translation'
p4
tp5
tp6
.