((S'Title'
p0
S'FilmOn Family TV '
p1
tp2
(S'Description:'
p3
S'FilmOn enables you to watch live TV for free in Standard Definition on your computer or mobile device wherever an internet connection is available. You can watch your local channels or select from our huge line-up of channels from the US, Europe, Latin America and Asia. Watch live Sports, News, Lifestyle, Movies, Shopping, Kids and more.If you wish to watch in HD and record your favorite shows or series, you can do so for a small fee.'
p4
tp5
tp6
.