((S'Title'
p0
S'FilmOn America TV '
p1
tp2
(S'Description:'
p3
S'Watch LIVE local TV for free!Watch over 200 LIVE TV Channels for free in SDWatch over 500 VOD Channels for free in SDWe host over 45, 000 video on demand titles that have been cleared for worldwide distribution. We refresh these shows every few seconds which include hit titles such as Entertainment Tonight, TMZ Live, The Best of UFC, The Soup and many more. These are all from providers like CNN, Disney, ESPN Fuel, CBS, Discovery, Fox and NBC'
p4
tp5
tp6
.