((S'Title'
p0
S'Firefox Browser for Android '
p1
tp2
(S'Description:'
p3
S'Firefox for Android is the free mobile web browser that puts the power of the open web in your hands. The official Mozilla Firefox android browser is fast, easy to use, & customizable, with the latest security and privacy features to help you stay safe on the internet. Fast\xe2\x80\x94 Access, browse, and search the web at blazing speedsSmart\xe2\x80\x94 Keep your favorite sites and mobile videos at your fingertips with smart searching, easy-to-use tabs, and desktop-to-mobile Sync featuresSafe\xe2\x80\x94 Make sure your Android web browser stays safe & private with extensive security settings, add-ons, and features like Do Not Track In the Press:\xe2\x80\x9cFor many Android users, Mozilla\xe2\x80\x99s updated Firefox app could quickly become their favorite mobile browser... I\xe2\x80\x99ve found it to be the best mobile browsing experience I\xe2\x80\x99ve had yet.\xe2\x80\x9d \xe2\x80\x93 VentureBeat \xe2\x80\x9cThe first thing you\'ll notice about the new version of Firefox for Android is how fast it really is\xe2\x80\xa6Firefox stands out for quick page loads and really smooth panning and zooming around web sites. \xe2\x80\x9c \xe2\x80\x93 Lifehacker  "On my Samsung Galaxy S II, the new Firefox glides smoothly through any web page, whether it\xe2\x80\x99s optimized for mobile browsing or not.\xe2\x80\x9d \xe2\x80\x93 TIME \xe2\x80\x9cFirefox for Android is a lot snappier now. It starts up quicker and loads Web pages faster\xe2\x80\xa6 What that means for the user is a much better browsing experience\xe2\x80\x9d \xe2\x80\x93 Information week Features: \xe2\x98\x85 Add-ons: Customize your web browser just the way you like it with add-ons including ad-blocker, password manager, and more\xe2\x98\x85 Awesome Screen: Firefox\xe2\x80\x99s Android browser keeps everything organized so you don\xe2\x80\x99t have to. The Awesome Screen automatically sorts your favorite sites onto one, easy-to-read page\xe2\x98\x85 Awesome Bar: Firefox learns from you as you browse, so you never have to waste time looking for a website. Search your Top Sites, Bookmarks, and History, and Firefox will help you find the site that you are looking for\xe2\x80\x94with little to no typing. \xe2\x98\x85 Fast: Get to the internet faster, with quick start-up and page load times \xe2\x98\x85 HTML5: Experience the unlimited possibilities of the mobile internet with support for HTML5 and Web APIs \xe2\x98\x85 Mobile Video: Firefox\xe2\x80\x99s Android browser is perfect for mobile video, and has mobile video support for a wide range of video formats including h.264\xe2\x98\x85 Reader Mode: Automatically transform cluttered articles and stories into beautiful, easy-to-read pages right in your browser\xe2\x98\x85 Security: Keep your browsing safe & private. Control your privacy, security and how much data you share on the web.\xe2\x98\x85 Sync: Sync your Firefox Desktop tabs, history, bookmarks, and passwords to all your devices and streamline your browsing For a complete list of features, check out mzl.la/FXFeatures Learn More about Firefox for Android: \xe2\x98\x85 We\'d love to hear any suggestions you have so we can keep making browsing better for you. Share it at mzl.la/FXinput\xe2\x98\x85 Have questions or need help? Visit http://support.mozilla.org/mobile\xe2\x98\x85 Read about Firefox Permissions: http://mzl.la/Permissions\xe2\x98\x85 Learn more about what\xe2\x80\x99s up at Mozilla: mzl.la/Blog\xe2\x98\x85 Like Firefox on Facebook: mzl.la/FXFacebook \xe2\x98\x85 Follow Firefox on Twitter: mzl.la/FXTwitter Curious about add-ons? Check out add-ons for: \xe2\x98\x85 Browsing: Adblock Plus, AutoPager, Full Screen mobile, and more\xe2\x98\x85 Security: LastPass Password Manager, NoScript, Dr. Web LinkChecker, and more\xe2\x98\x85 Reading: AutoPager, Readability, X-Notifier lite, and more\xe2\x98\x85 Watching: Low Quality Flash, TubeStop, and more\xe2\x98\x85 Social Networks: Hootbar, Shareaholic, Foursquare, and moreABOUT MOZILLAMozilla is a proudly non-profit organization dedicated to keeping the power of the Web in people\'s hands. We\'re a global community of users, contributors and developers working to innovate on your behalf. When you use Firefox, you become a part of that community, helping us build a brighter future for the Web. Learn more at mozilla.org.Recent changes:What\'s New:- Per-Tab private browsing- Gingerbread and Honeycomb support for H.264/AAC/MP3 hardware decoding- Top Sites in about:home is now customizable- The \'Quit\' menu item has been removed from Firefox versions running on ICS and higher. When done browsing just tap swipe off recent application list. Use the QuitNow add-on if you want more control- System requirements lowered to 384MB of RAM and QVGA displaysLearn more: https://www.mozilla.org/mobile/notes/'
p4
tp5
tp6
.