((S'Title'
p0
S'FirstAid+Pets '
p1
tp2
(S'Description:'
p3
S'FIRST AID SAVES LIFEFIRST AID INFORMATOIN ABOUT PEOPLE, CATS AND DOGS ARE NOW WITHIN EASY REACHTHE RIGHT TREATMENT CAN SAVE THE LIFE OR THE FALSE TREATMENT CAN KILLWITH THIS PROGRAM YOU CAN APPLY THE FIRST AID RULES FOR PEOPLE, CATS AND DOGS IN A CORRECT WAY . WITH EASY MENU, COMPREHENSIBLE EXPRESSIONS AND EFFECTIVE METHODS IN WORLD WIDE STANDARTS YOU CAN PROTECT YOUR BELOVED ONES AND PERFORM THESE VITAL TREATMENTS EFFECTIVELY AND CONSCIOUSLYIN ADDITION, FALSES KNOWN AS TRUES ABOUT THE FIRST AID ARE GIVEN IN ANOTHER PARTEMERGENCY PHONES OF THE WORLDWIDE COUNTRIES ARE ALSO INCLUDED IN THIS PROGRAM.I WISH HEALTHY AND PEACEFUL LIFEBEST REGARDS'
p4
tp5
tp6
.