((S'Title'
p0
S'Fish Tank Android Wallpaper '
p1
tp2
(S'Description:'
p3
S'Fish Tank Android Wallpaper - this is a free application that is subject aquarium. Subject completely new, but still a favorite among users. Aquarium still prefer a lot of people. But the free app Fish Tank Android Wallpaper offers its fans a brand new aquarium. The mysterious underwater world, different species of colorful fish, jellyfish and sea coral.With the free app Fish Tank Android Wallpaper, you will learn a new and mysterious world of real spearfishing! You have a unique chance to download the application for free on your phone, and the screen of your mobile device to complement the riot of colors of the underwater world.Boot the application on your android Fish Tank Android Wallpaper, setting it from the "Live Wallpaper".For such phones as Samsung Galaxy Note, Sony Xperia Z, Samsung Galaxy S3, Samsung Galaxy Note 2, Samsung Galaxy S4, Facebook phone HTC First.Tags:  To download free of charge, live wallpaper, 3d Live Wallpaper, android, Free LWP, wallpapers, Samsung Galaxy S3, fish, aquarium, Sony Xperia Z, galaxy, HD, Full HD, Photo, HTC First, Samsung Galaxy S4, fish tank, Facebook, Samsung Galaxy Note 2, screen, coral, android device.'
p4
tp5
tp6
.