((S'Title'
p0
S'Five Guys Burgers & Fries '
p1
tp2
(S'Description:'
p3
S"Skip the line! Find the closest Five Guys Burgers & Fries restaurant, place your order, and pick up your food today.1) Launch the app and find your Five Guys.2) The first time you'll sign in or create a new account it links up with our online ordering site at http://www.gofiveguys.com3) Order your food - don't forget to save your order as a Favorite for next time.4) Go pick it up!  Skip the line and head straight to the order pickup counter at the store, tell them your name and get your food.Recent changes:v.2.1.201302061553- Support for new menu offerings- Map multiple locations- Check recent orders- Select saved credit card from list- Support future card management capabilities"
p4
tp5
tp6
.