((S'Title'
p0
S'FolderSync Lite '
p1
tp2
(S'Description:'
p3
S"FolderSync is a application that enables simple sync to cloud based storage to and from local folders on the device memory card. It currently support multiple SkyDrive, Dropbox, SugarSync, Ubuntu One, Box.net, LiveDrive, HiDrive, Google Docs, NetDocuments, Amazon S3, FTP, FTPS, SFTP, WebDAV or windows share (Samba/CIFS) accounts, and support for more platforms are planned. Read-only access to protected file-system also supported - requires root.Effortlessly sync your files. Backup your music, pictures and other important files from the phone to your cloud storage or the other way around. It has never been easier. Tasker / locale support enables fine grained control of your syncs.FolderSync also contains a full file manager, that enables you to manage your files locally and in the cloud. Copy, move and delete  your files in your cloud/remote accounts. Support for creation/deletion of buckets in Amazon S3. Upload and download files from the phone. It's all supported.You could also try out the lite version, so you can test functionality before you buy. The lite version only allows two accounts and has no sync filters or Tasker support.There is also a lite version, so you can test functionality before you buy. The lite version only allows two accounts and has no sync filters or Tasker support.IMPORTANT: If you cannot create account in landscape on tablet: http://www.tacit.dk/foldersync/bugsFollow news here:http://twitter.com/#!/FolderSyncThe full change log can be found here:http://www.tacit.dk/foldersync/changelogGet support:http://www.tacit.dk/supportPlease read the FAQ. I have addressed most comments there:http://www.tacit.dk/foldersync/faqDetailed description:You can choose any folder on the memory card to sync. Currently one-way and two-way sync are supported. Sync intervals and other sync settings can be specified for each sync item you configure. You set up a folderpair to sync and it will automatically keep your files in sync.Current supported providers:\xe2\x98\x86 Amazon S3 Simple Storage Service\xe2\x98\x86 Dropbox\xe2\x98\x86 SugarSync\xe2\x98\x86 NetDocuments\xe2\x98\x86 Google Docs\xe2\x98\x86 Google Drive\xe2\x98\x86 Box.net (WebDAVs)\xe2\x98\x86 LiveDrive (WebDAV/FTP)\xe2\x98\x86 HiDrive (WebDAV/FTP)\xe2\x98\x86 FTP\xe2\x98\x86 FTPS (SSL/TLS implicit)\xe2\x98\x86 FTPES (SSL/TLS explicit)\xe2\x98\x86 SFTP (SSH File Transfer)\xe2\x98\x86 Samba/CIFS/Windows Share\xe2\x98\x86 Skydrive\xe2\x98\x86 Ubuntu One\xe2\x98\x86 WebDAV\xe2\x98\x86 WebDAVs (HTTPS)Current features:\xe2\x98\x86 Multiple accounts (full version)\xe2\x98\x86 File manager - manage your cloud files\xe2\x98\x86 Amazon S3 Client Side Encryption support\xe2\x98\x86 Tasker/locale support (full version)\xe2\x98\x86 User defined sync filters (full version)\xe2\x98\x86 Sync to and from you selected provider\xe2\x98\x86 Two-way sync with support for deletions\xe2\x98\x86 Backup/restore settings\xe2\x98\x86 User specified sync interval or specific sync times\xe2\x98\x86 Choose connection types for each sync item\xe2\x98\x86 Support for syncing of subfolders\xe2\x98\x86 Sync of hidden files can be disabled\xe2\x98\x86 No ads (full version)Deletion in two-way sync:To enable deletions in two-way sync, the option \xe2\x80\x9cDo not sync deletions\xe2\x80\x9d must be uncheckedFTPS/FTPES servers without resume support:Use these at your own risk, as uploads may become corrupt.Recent changes:Version 2.4.8 (07-03-2013)- Bugfix: fixed issue with local changes not being synced (again).- Bugfix: fixed issue with detecting Wimax as 4G.Version 2.4.7 (12-02-2013)- Bugfix: fixed issue with local changes not being detected on some devices.- Bugfix: instant sync causes instability for some, when watching many folders for changes. New option on setting page must be enabled, if instant sync should watch subfolders....Full changelog:http://www.tacit.dk/foldersync/changelog"
p4
tp5
tp6
.