((S'Title'
p0
S'Food '
p1
tp2
(S'Description:'
p3
S'"D10 Cooking" brings you the latest news, recipe and reviews in food. Get to know the trendy and useful information to aid your house cooking.  You will pleasantly surprise your guest or family with delicious food and innovative cooking methods from a secrete weapon on your mobile phone. Fresh and delicious updates are delivered to you everyday.'
p4
tp5
tp6
.