((S'Title'
p0
S'Forest Live Wallpaper 3D '
p1
tp2
(S'Description:'
p3
S"You like to walk in the wood? The free Forest Live Wallpaper 3D android app opens the surprising picturethe live forest on the screen of yours the android device.Forest Live Wallpaper 3D android app represents the real forest with amazing distinctness thanks to tilt shift style.Quite simple android app Forest Live Wallpaper 3D in the structure have:backgrouds HD Forest3d objects Fresh LeavesThanks to the small size the Forest Live Wallpaper 3D android app perfectly works practically for all the android devicesas with HD or with Full HD permission, and with a small display resolution.Forest Live Wallpaper 3D doesn't demand payment at installation on yours the android device.Forest Live Wallpaper 3D need to be downloaded on phone and to establish from the section Live wallpaper. Very simple in management of the 3D objects settings. Keeps a resource of your accumulator the android device.Forest Live Wallpaper 3D android app smoothly work on such phones, as Samsung Galaxy Note, Sony Xperia Z, Samsung Galaxy S3, Samsung Galaxy Note 2, Samsung Galaxy S4.To download the free supplement the android of Forest Live Wallpaper 3D on the phone and it is obligatory to show it to the friends!App languages:englishRussianespa\xc3\xb1olportugu\xc3\xaas\xe4\xb8\xad\xe6\x96\x87 (Zh\xc5\x8dngw\xc3\xa9n), \xe6\xb1\x89\xe8\xaf\xad, \xe6\xbc\xa2\xe8\xaa\x9eitalianoBahasa Indonesia\xe0\xa4\xb9\xe0\xa4\xbf\xe0\xa4\xa8\xe0\xa5\x8d\xe0\xa4\xa6\xe0\xa5\x80, \xe0\xa4\xb9\xe0\xa4\xbf\xe0\xa4\x82\xe0\xa4\xa6\xe0\xa5\x80\xe6\x97\xa5\xe6\x9c\xac\xe8\xaa\x9e (\xe3\x81\xab\xe3\x81\xbb\xe3\x82\x93\xe3\x81\x94)\xed\x95\x9c\xea\xb5\xad\xec\x96\xb4 (\xe9\x9f\x93\xe5\x9c\x8b\xe8\xaa\x9e), \xec\xa1\xb0\xec\x84\xa0\xec\x96\xb4 (\xe6\x9c\x9d\xe9\xae\xae\xe8\xaa\x9e)Tags:  To download free of charge, live wallpaper, forest live wallpaper, Top, leaves, HD Galactic, 3d Live Wallpaper, Fresh Leaves, 3d objects, android app, Free LWP, Forest, Samsung Galaxy S3, Sony Xperia Z, galaxy, HD, Full HD, xperia z live wallpaper,Photo, backgrounds hd, Samsung Galaxy Note 2, Pixel, Xperia Z, android, device, fall, tilt shift, leaves.Recent changes:Bugs Fix"
p4
tp5
tp6
.