((S'Title'
p0
S'Forest Morning Live Wallpaper '
p1
tp2
(S'Description:'
p3
S'Wildlife in the new Forest Morning Live Wallpaper android appendix!Simple and unique version of photo processing so that the image is three-dimensional, and the sight picture on the screen was just fascinating already exists. This effect can be achieved with the free android Forest Morning Live Wallpaper made in the style of tilt shift.It is thanks to this style, the application can open a maximum fullness topic Forest live wallpaper.Of the free version of Forest Morning Live Wallpaper includes such backgrounds hd, like a picture Forest Morning and the picture Fresh Leaves.Because of the very small size of the application Forest Morning Live Wallpaper, a great opportunity to get the job done even in the rather weak android.The application is tested and on phones with a small screen resolution, and 90% plates (with Full HD and HD resolution).Huge plus applications is the fact that it is free of charge, without any money embezzlement. The holder the right to boldly offer your friends download the application. After loading the Forest Morning Live Wallpaper for your android from section Live Wallpaper will be rapid and trouble-free to install it. Practical interface to adjust settings will enable 3D objects Fresh Leaves on your preferences and desires.Forest Morning Live Wallpaper android app prevent faults and failures when it is used in such phones as: Sony Xperia Z, Samsung Galaxy Note 2, Samsung Galaxy Note, Samsung Galaxy S3, Samsung Galaxy S4, Facebook phone HTC First.You certainly will be satisfied with this offer, you just have to download it to your device.Tags:  To download free of charge, HTC, live wallpaper, forest live wallpaper, HTC First, Top, leaves, HD Galactic, 3d Live Wallpaper, Fresh Leaves, 3d objects, android app, Free LWP, Forest, Samsung Galaxy S3, Sony Xperia Z, galaxy, HD, Full HD, xperia z live wallpaper,Photo, backgrounds hd, phone HTC First, Samsung Galaxy Note 2, Pixel, Facebook, Xperia ZL, android, device, fall, tilt shift, leaves.Recent changes:Bugs Fix'
p4
tp5
tp6
.