((S'Title'
p0
S'Formula 1 2013 '
p1
tp2
(S'Description:'
p3
S'The new app Formula 1 TeraByte Technology brings more live content and information to fans of speed monitor the 2013 season.'
p4
tp5
tp6
.