((S'Title'
p0
S'francetv pluzz '
p1
tp2
(S'Description:'
p3
S'Pour voir, revoir et partager les programmes de France T\xc3\xa9l\xc3\xa9visions !Retrouvez gratuitement francetv pluzz, sur vos smartphones et vos tablettes Android, et profitez :- des chaines en direct, 24h/24 (France 2, France 3, France 4, France 5 , France \xc3\x94 ainsi que votre 1\xc3\xa8re pour les utilisateurs en r\xc3\xa9gion ultramarine),- de tous vos programmes disponibles en replay, pendant les 7 jours suivant leur diffusion ; cela concerne toutes les chaines du groupes, y crompris les programmes des 24 antennes r\xc3\xa9gionales de France 3 et des 9 chaines "outre-mer 1\xc3\xa8re",- d\'un guide TV sur 15 jours, vous permettant \xc3\xa0 la fois de cr\xc3\xa9er des alertes pour les programmes \xc3\xa0 venir (l\'appli vous pr\xc3\xa9vient 15min avant leur diffusion) et de lancer directement les programmes pass\xc3\xa9s devenus disponibles en replay,- d\'un moteur de recherche pour retrouver facilement votre programme par mot cl\xc3\xa9, par chaine, par date, par genre ou m\xc3\xaame par r\xc3\xa9gion (m\xc3\xa9tropolitaine ou ultramarine)- d\'un espace param\xc3\xa9trable pour acc\xc3\xa9der rapidement \xc3\xa0 vos programmes favoris, vos alertes et vos contenus r\xc3\xa9gionaux. Enfin, n\xe2\x80\x99h\xc3\xa9sitez pas \xc3\xa0 partager avec vos amis, via les fonctionnalit\xc3\xa9s sociales int\xc3\xa9gr\xc3\xa9es \xc3\xa0 l\xe2\x80\x99application, tous vos coups de c\xc5\x93ur.Aidez-nous \xc3\xa0 am\xc3\xa9liorer cette application ! Envoyez-nous vos suggestions et signalez-nous les bogues \xc3\xa9ventuels en nous \xc3\xa9crivant \xc3\xa0 : supportmobile@francetv.frAttention : la technologie vid\xc3\xa9o utilis\xc3\xa9e (qui permet d\'adapter la qualit\xc3\xa9 en fonction de votre connexion) demande un certain niveau de performances (ressources CPU) qui nous oblige parfois \xc3\xa0 rendre incompatible certains terminaux ; nous travaillons activement \xc3\xa0 am\xc3\xa9liorer cette situation.--Avertissement :Pour permettre une qualit\xc3\xa9 de vid\xc3\xa9o optimale, l\'application utilise une technologie dite de streaming adaptatif, qui permet d\'adapter en temps r\xc3\xa9\xc3\xa9l la qualit\xc3\xa9 de la vid\xc3\xa9o en fonction du d\xc3\xa9bit disponible via votre connexion r\xc3\xa9seau. De fait, quelques dizaines de secondes d\'ajustement au lancement d\'une vid\xc3\xa9o peuvent s\'av\xc3\xa9rer n\xc3\xa9cessaires pour obtenir la meilleure qualit\xc3\xa9 ; et r\xc3\xa9ciproquement, en conditions de faible r\xc3\xa9ception, la qualit\xc3\xa9 de la vid\xc3\xa9o risque d\'\xc3\xaatre amoindrie.Pour acc\xc3\xa9der \xc3\xa0 la diffusion de votre cha\xc3\xaene 1\xc3\xa8re en direct, vous devez obligatoirement accepter, pour des raisons de droit, que votre application vous g\xc3\xa9olocalise et vous d\xc3\xa9livre ainsi la cha\xc3\xaene diffus\xc3\xa9e dans votre r\xc3\xa9gion (Guadeloupe, Guyane, La R\xc3\xa9union, Martinique, Mayotte, Nouvelle Cal\xc3\xa9donie, Polyn\xc3\xa9sie Fran\xc3\xa7aise, Saint Pierre et Miquelon et Wallis et Futuna).Cette Application est gratuite hors co\xc3\xbbt d\xe2\x80\x99abonnement \xc3\xa0 l\xe2\x80\x99op\xc3\xa9rateur et hors surco\xc3\xbbt \xc3\xa9ventuel factur\xc3\xa9 par l\xe2\x80\x99op\xc3\xa9rateur pour le chargement et l\xe2\x80\x99envoi des donn\xc3\xa9es. L\xe2\x80\x99utilisation de cette Application pouvant engendrer une consommation importante de donn\xc3\xa9es, particuli\xc3\xa8rement en consultation de vid\xc3\xa9os, France T\xc3\xa9l\xc3\xa9visions vous recommande de v\xc3\xa9rifier aupr\xc3\xa8s de votre op\xc3\xa9rateur mobile que vous disposez bien d\xe2\x80\x99un abonnement adapt\xc3\xa9e \xc3\xa0 cet usage.Pour des raisons de droits, les vid\xc3\xa9os ne sont pas accessibles en dehors du territoire Fran\xc3\xa7ais.France T\xc3\xa9l\xc3\xa9visions se r\xc3\xa9serve le droit de ne pas autoriser l\xe2\x80\x99installation de cette application sur les terminaux sur lesquels la qualit\xc3\xa9 de lecture de ses vid\xc3\xa9os sera jug\xc3\xa9e insuffisante.Recent changes:* version 1.2 [24/04/13] *- Refonte de la lecture vid\xc3\xa9o (+ am\xc3\xa9lioration qualit\xc3\xa9)- Ajout de la compatibilit\xc3\xa9 pour les devices 7 pouces* version 1.1 [24/07/12] *- Correction du mode plein \xc3\xa9cran- Refonte graphique (logos + ic\xc3\xb4ne)- Am\xc3\xa9lioration des fonctionnalit\xc3\xa9s de recherche* version 1.0.1 [12/06/12] *- Correction des probl\xc3\xa8mes de stabilit\xc3\xa9 sur les terminaux en 2.2 et inf\xc3\xa9rieur* version 1.0 [07/06/12] *- 1\xc3\xa8re  version de l\'application'
p4
tp5
tp6
.