((S'Title'
p0
S'Free Hypnosis '
p1
tp2
(S'Description:'
p3
S'The Best Hypnosis & Self Development Programmes.70 plus Free Hypnosis and Coaching audio titles - including Joseph\'s 11 lesson (8hr) Confidence Programme.5 Star - "I\'ve downloaded apps on getting over ur ex and managing anger and they have both helped me... It makes life easier for me"5 Star - "Life Saver Joseph is a God send, I have struggled my whole life with Anxiety & Self Confidence issues, so I downloaded a few of His MP3\'s & WOW what a change"5 Star - "So much better than other hypnosis apps on the Market, this is simple and has so much choice. There\'s more than enough free content to keep me happy as well as paid sessions on several subjects, that cost less than my morning coffee. It\'s a free app, and the amount of free content makes it more than worth the download"5 Star - "I have tried many different hypno apps and this for me is a clear winner well done Joseph 5 Star - "Fabulous, really works! Thanks Joseph!:-)"5 Star - "Brilliant. Very helpful Mp3s. Great for relaxation and other issues. Gets you thinking differently. 10 out of 10"5 Star - "Fantastic app take JC with you everywhere. 20-30 min on the train or bus listening to this stuff can set you up for the day or put things into perspective going home. Brilliant stuff"5 Star - "Very useful. Impressed with the personal service from Joseph himself!"5 Star - "This app is brill just when u think there is no help u turn round and there is thank" 5 Star - "I appreciate everything that Joseph does! Its helping me soo much!!"5 Star - "works well, and when it doesn\'t the people behind it are right there with you to make out work. good customer service and quality scripts I\'ve already bought 3 tracksSince being injured on duty whilst serving as a Police Officer I have suffered from numerous physical injuries and chronic pain in addition I suffer from Chronic PTSD. When many doctors gave up I started looking at Hypnotherapy. I came across Joseph Clough, I now use his self hypnosis products which have helped me improve my standard of life. His Products are made to a very high standard and his technique will help you to achieve what you decide to set your goals as whether it is Personal Development or working on an area of your life to help improve your quality of life. You can save a lot of time having to look at other products online and in this App Market (Many that are very poor quality) by downloading this Joseph Clough App and start improving what ever area of your life you desire. Dr Nic Castle"5 Star - "I listen to this app everynight and my performance in making money has increase. Thanks . And no they are not over priced. You just must be broke"5 Star - "I find this to be soothing, motivating, inspiring, etc. depending on what recording I use. All the free content has been of such fantastic quality. Most free hypnosis mp3\'s are short, leave you wanting more and are just a trailer to get you to buy the full recording. These are high quality. I really enjoy this site and get alot out of it"Free Hypnosis/Hypnotherapy MP3 downloads by Celebrity Hypnotherapist, Author, Coach, Trainer and Hay House Author Joseph Clough.Recent changes:\xe2\x80\xa2 70 plus Free Hypnosis and Coaching audio titles - including Joseph\'s 11 lesson (8hr) Confidence Programme.\xe2\x80\xa2 Bug Fixes\xe2\x80\xa2 If you\'re enjoying the free app please review it so we can make more changes in the world! Your friend, Joseph'
p4
tp5
tp6
.