((S'Title'
p0
S'FREE Tablet AntiVirus Security '
p1
tp2
(S'Description:'
p3
S"Free real-time antivirus protection for your Tablet.AVG\xe2\x80\x99s Tablet security app for Android\xe2\x84\xa2 protects you from harmful viruses, malware, spyware and text messages (for SIM supported devices) and helps keep your personal data safe.Download Free Now!Over 70,000,000 people already installed AVG\xe2\x80\x99s mobile apps. Join them now and:\xe2\x96\xba Scan apps, settings, files, and media in real time\xe2\x96\xba Browse the Web safely and securely \xe2\x96\xba Detect apps that use intrusive ads and PUP (potentially unwanted program) \xe2\x96\xba Kill tasks that slow your device \xe2\x96\xba Monitor battery, storage and data package usage (for SIM supported devices)\xe2\x96\xba Enable finding/locating your lost or stolen tablet via Google Maps\xe2\x84\xa2\xe2\x96\xba Remotely lock/wipe your device to protect your privacy using AVG\xe2\x80\x99s anti-theft consoleAVG FREE Tablet Antivirus Security \xe2\x80\x93 quick & easy mobile protection! With AVG\xe2\x80\x99s Android app you\xe2\x80\x99ll receive effective, easy-to-use virus and malware protection, as well as a real-time app scanner, anti-theft device locator, task killer and local device wipe to help shield you from threats to your privacy and online identity.AVG\xe2\x80\x99s FREE Tablet AntiVirus Security also:\xe2\x96\xba Defends against malicious apps, viruses, malware and spyware\xe2\x96\xba Identifies unsecure device settings and advises how to fix them\xe2\x96\xba Helps ensure contacts, bookmarks and text messages (for SIM supported devices) are safe \xe2\x96\xba Checks media files for malicious software and security threats\xe2\x96\xba Guards you from phishing attacks\xe2\x96\xba Can be scheduled to run daily, weekly, or on demandApp Features: * Protection * Performance * Anti-Theft * PrivacyAntiVirus:\xe2\x96\xba Scan downloaded apps, games and files and remove malicious content Safe Web Surfing: *Applicable to Android's default browser\xe2\x96\xba Search, shop and use social networks with peace of mind, knowing your mobile identity and personal data are protected from phishing attempts and malware\xe2\x96\xba Scan websites to check if harmful. Should a suspicious URL address be detected, you will be redirected to a \xe2\x80\x9cSafe Page\xe2\x80\x9dPerformance: \xe2\x96\xba Monitor battery, storage and mobile data package (for SIM supported devices) to optimize device performance\xe2\x96\xba Get notified when your battery is below a preset level and turn-off unused functions to save power\xe2\x96\xba Storage optimization monitors internal and SD card usage (when supported) and helps optimize storage space\xe2\x96\xba Traffic monitor - keep track of your 3G /4G data plan (for SIM supported devices) usage by getting notifications when you are near to reaching your monthly limitTask killer:\xe2\x96\xba Kill tasks that slow down or freeze up your device.Anti-theft & Device Location:\xe2\x96\xba Locate your lost or stolen device and get help finding it via Google Maps\xe2\x84\xa2\xe2\x96\xba Lock your device remotely via AVG\xe2\x80\x99s Anti-Theft console or by sending it a text message (for SIM supported devices)\xe2\x96\xba Set a lock screen message to help the locator find you\xe2\x96\xba Make your device ring even if mutedLocal wipe:\xe2\x96\xba Wipe your device\xe2\x80\x99s content \xe2\x96\xba Manually select specific data you want deleted using the Local Wipe Advanced Feature\xe2\x96\xba Format a SD card (for supported devices)App locker [14 day trial]:\xe2\x96\xba Lock apps to protect your privacy and safety or lock your device settings to secure its configurationApp Backup [14 day trial]:\xe2\x96\xba Backup apps from your device to your SD card (when supported) so you can restore them whenever necessaryAntivirus Free is available in:EN, DE, ES, FR, JA, KO, ZH (simplified & traditional), PT, RU, AR, IT, PL, CS, NL & HE.For the latest mobile security & protection updates:Join our Facebook community: http://bit.ly/AVG_facebookJoin our Google+ community: http://bit.ly/AVG_GooglePlusFollow us on Twitter: http://bit.ly/AVG_TwitterFollow our Blog: http://bit.ly/AVG_BlogsGoogle\xc2\xae is a trademark of Google, Inc., registered in the USA and in other countries. Google Maps\xe2\x84\xa2 and Android\xe2\x84\xa2 are trademarks of Google Inc.  All other trademarks are property of their respective owners.Recent changes:\xe2\x96\xba New design: sleeker & easier-to-use interface\xe2\x96\xba Improved scanning: additional app scanner level to detect adware that you can remove\xe2\x96\xba Bugs fixes\xe2\x96\xba For the latest AntiVirus, Malware & ScamWare updates:    + Join our Facebook community: http://bit.ly/AVG_facebook    + Join our Google+ community: http://bit.ly/AVG_GooglePlus    + Follow us on Twitter: http://bit.ly/AVG_Twitter    + Follow our Blog: http://bit.ly/AVG_Blogs"
p4
tp5
tp6
.