((S'Title'
p0
S'French Dictionary '
p1
tp2
(S'Description:'
p3
S'The French dictionary explains the meaning of 110000 French words, based on French Wiktionary. This is a monolingual French dictionary: words must be entered in French.Features:\xe2\x99\xa6 More than 110000 definitions plus 224000 inflected forms\xe2\x99\xa6 Fast, as it works offline, internet is used only when a word is not found in the offline dictionary\xe2\x99\xa6 You can leaf through words using your finger!\xe2\x99\xa6 Installation on SD card is supported.\xe2\x99\xa6 Bookmarks and history\xe2\x99\xa6 Random search button (shuffle)\xe2\x99\xa6 Integrated with Google Quick Search Box \xe2\x99\xa6 Compatible with Moon+ Reader and FBReader\xe2\x99\xa6 Easy and functional user interfaceYou can listen to the word pronunciation, provided that voice data have been installed in your phone (Text-to-speech engine).An offline dictionary needs memory. In case your device has low memory, please consider to use the online dictionary: https://play.google.com/store/apps/details?id=livio.dictionaryQuestion & Answers: http://goo.gl/UnU7VInformation for application developers:\xe2\x9c\x94 This application provides Dictionary API for 3rd party developers, please read further details: http://thesaurus.altervista.org/dictionary-androidRecent changes:Version 1.7\xe2\x99\xa6 De nouvelles d\xc3\xa9finitions ont \xc3\xa9t\xc3\xa9 ajout\xc3\xa9esVersion 1.6\xe2\x99\xa6 transcription phon\xc3\xa9tique API (alphabet phon\xc3\xa9tique international)Version 1.5\xe2\x99\xa6 formules math\xc3\xa9matiques et chimiquesVersion 1.4\xe2\x99\xa6 mots compos\xc3\xa9s'
p4
tp5
tp6
.