((S'Title'
p0
S'Fruit Ninja Free '
p1
tp2
(S'Description:'
p3
S'Fruit Ninja is a juicy action game with squishy, splatty and satisfying fruit carnage! Become the ultimate bringer of sweet, tasty destruction with every slash.Swipe up across the screen to deliciously slash fruit like a true ninja warrior. With three games modes in single player and worldwide leaderboards using Openfeint, the addictive gameplay will keep you coming back for even higher scores.Fruit Ninja features three packed gameplay modes - Classic, Zen and the new Arcade, featuring powerups including Freeze, Frenzy and Double Score! The bonus Dojo section includes unlockable blades and backgrounds, and you can also unlock achievements and post scores to the online leaderboards with Openfeint.Fruit Ninja is the original and the best slasher on Android!****LIKE FRUIT NINJA ON FACEBOOK!http://www.facebook.com/fruitninjaFOLLOW HALFBRICK ON TWITTER!http://www.twitter.com/halfbrick****Recent changes:With the release of Fruit Ninja Free comes a host of new and exciting changes. Apart from being free Fruit Ninja now provides language support for over 14 languages!We have also not only crammed in more languages, but managed to improve performance across a range of devices.Stay tuned for heaps of new content (and a few surprises) coming real soon!'
p4
tp5
tp6
.