((S'Title'
p0
S'Fussball Live Ticker Herzrasen '
p1
tp2
(S'Description:'
p3
S'Hol Dir Deutschlands spannendsten Live-Ticker f\xc3\xbcr unterwegs: Mit der neuen Herzrasen-App bist Du n\xc3\xa4her dran am Spielgeschehen und erh\xc3\xa4ltst alle Infos zur aktuellen Bundesliga Saison, Champions League, Europe League, DFB Pokal und WM Quali 2014:*** KONFERENZ-TICKER: Verfolge gleichzeitig mehrere Live-Spiele einer Liga und verpasse keine Highlights mehr*** VOTING: Tippe auf den Ausgang einer Partie vor Beginn des Spiels und teile Deinen Tipp \xc3\xbcber Facebook und Twitter*** TICKER-MELDUNGEN: Live-Ticker mit den wohl meisten redaktionellen Kommentaren pro Live-Spiel in revolution\xc3\xa4rem Design*** SCHNELL: Mit den Twitter-Feeds passend zum Live-Spiel erf\xc3\xa4hrst Du am schnellsten, wenn ein Tor gefallen ist*** SOCIAL: Neben Twitter-Feeds im Live-Ticker kannst Du eigene Kommentare mit Deinen Freunden bei Twitter und Facebook teilen*** GESTEN-STEUERUNG: Schluss mit langweiligen Klickorgien und Einstellungen - Mit der innovativen Steuerung wischst und zoomst Du Dich ganz einfach durch die App*** LIVE-STATISTIKEN: Im Live-Ticker gibt es Live-Statistiken wie Ecken, Abseits, Fouls, Torsch\xc3\xbcsse und Tore*** PUSH:  Mit der Erinnerungsfunktion und Push-Benachrichtigungen verpasst Du keine Spiele und Tore mehr*** TV:  Herzrasen informiert dich \xc3\xbcber Live-\xc3\x9cbertragungen im Free-TVDas schreiben andere Portale \xc3\xbcber die Herzrasen App:******\xe2\x80\x9eDie Aufmachung der App ist gelungen, die Bedienung intuitiv\xe2\x80\xa6\xe2\x80\x9c Appgefahren.de\xe2\x80\x9eHerzrasen bietet alles, was sich ein Android-Herz f\xc3\xbcr die Fu\xc3\x9fball-EM 2012 w\xc3\xbcnscht.\xe2\x80\x9c Android-User.de\xe2\x80\x9e\xe2\x80\xa6Herzrasen ist ein echter \xe2\x80\x9cAugenschmaus\xe2\x80\x9c. Die Bedienung ist sehr intuitiv gestaltet.\xe2\x80\x9c Android-Blog.net******Wir arbeiten bereits an der n\xc3\xa4chsten Version und freuen uns \xc3\xbcber jedes Feedback, um gemeinsam mit euch die beste Live Sport Ticker App in Deutschland zu entwickeln. Solltet ihr Probleme haben oder euch fallen andere Fehler auf, bitten wir euch nicht gleich 1*-Bewertungen abzugeben. Meldet euch einfach \xc3\xbcber herzrasen@telekom.de oder besucht uns auf herzrasen.t-online.de \xe2\x80\x93 wir helfen gerne weiter.Wir w\xc3\xbcnschen euch weiterhin viel Spa\xc3\x9f mit der Herzrasen AppRecent changes:Version 1.1Vielen Dank f\xc3\xbcr Euer zahlreiches Feedback. Mit diesem Update gibt es einige Neuerungen:- Update auf 1. und 2 Bundesliga, Champions League, Europe League, DFB Pokal und WM Quali 2014- Erweiterung des Live-Tickers um einen "Konferenz-Ticker" f\xc3\xbcr mehrere Spiele einer Liga- Abgabe von Tipps auf Spielausg\xc3\xa4nge und Teilen via Facebook und Twitter- Erweiterung der Live-Statistiken'
p4
tp5
tp6
.