((S'Title'
p0
S'Galaxy S4 Sky n Bubbles LWP '
p1
tp2
(S'Description:'
p3
S'Free application Galaxy S4 Sky n Bubbles LWP. The plot is simple and beautiful as nature itself: abstraction, rainbow background and crossing the lines of color.We unconsciously, there and everywhere perceive the lines and colors: in the gym or cinema, home or on the street.The lines and colors. Live Wallpapers Galaxy S4 Sky n Bubbles LWP beautiful and simple, like life itself, is nothing superfluous in them, no, only the colors and lines.Enjoy a very beautiful themes, laid down in a basis of the plot: Cool Bubbles and Sky.The battery of your phone will retain a charge longer, because the application size is small.The installation procedure is surprisingly simple. Download the application to your phone and entered into the section \xc2\xabLiving Wallpaper\xc2\xbb, install it.Go to settings Galaxy S4 Sky n Bubbles LWP and expose the most optimum to your eye the number of 3D objects and speed.Ease of installation Galaxy S4 Sky n Bubbles LWP complemented by the fact that the application does not give failures when installing for the following phones: Facebook phone HTC First, Sony Xperia Z, Samsung Galaxy Note, the Samsung Galaxy s S3, Samsung Galaxy S4, as well as the Samsung Galaxy Note 2.Pay for a download Galaxy S4 Sky n Bubbles LWP to your phone do not need to.Tags:  To download free of charge, Cool Bubbles, rain, 3d, Live Wallpaper, android, Free LWP, fantasy wallpapers, Samsung Galaxy S3, abstraction wallpaper, Sony Xperia Z, HD, Full HD, Rain, Facebook, HTC First,Photo, Samsung Galaxy S4, Xperia ZL, Samsung Galaxy Note 2, picture, Rainbow, Cool, android device, tilt shift, top.Recent changes:errors are corrected'
p4
tp5
tp6
.