((S'Title'
p0
S'Galaxy S4 Bubbles Top LWP '
p1
tp2
(S'Description:'
p3
S"We offer a free android application Galaxy S4 Bubbles Top LWP, it is made in the style of tilt shift.This is a very classy way to handle photographs. Through the application of your image is larger and very beautiful. Macro theme live wallpaper Galaxy S4 Bubbles Top LWP Open with great fullness due to the unique style of tilt shift.Appendix Galaxy S4 Bubbles Top LWP shows the following backgrounds hd:Picture Fresh Bubbles,Picture Macro.Fairly low volume applications for android phone Galaxy S4 Bubbles Top LWP supports the work without problems even on low power devices android. Take the test applications on the tablets with HD resolution or with Full HD resolution at 90% nominal ratio to phones with a small screen resolution.Android application to possibly set free. And your friends can download it without paying a cent. Download to your android app Galaxy S4 Bubbles Top LWP Live Wallpaper of folders easily and without problems. You can adjust Fresh Bubbles 3D objects on the color screen of your android phone in a convenient interface - section number and speed settings, as you wish.Our application is distributed free of charge. So it is with great pleasure swing Galaxy S4 Bubbles Top LWP.Galaxy S4 Bubbles Top LWP are trouble-free on such phones asSamsung Galaxy Note, Facebook phone HTC First, Samsung Galaxy Note 2, Samsung Galaxy S4, Sony Xperia Z, Xperia ZL, Samsung Galaxy S3on your android and advise your friends! Please use! We're happy to please you with new applications! You will not regret it!Tags:  To download free of charge, Bubbles, 3d, Live Wallpaper, android, Free LWP, fantasy wallpapers, Samsung Galaxy S3, abstraction wallpaper, Sony Xperia Z, HD, Full HD, Rain, Facebook, HTC First,Photo, Samsung Galaxy S4, Xperia ZL, Samsung Galaxy Note 2, picture, Cool, android device, tilt shift, top.Recent changes:Bugs Fix"
p4
tp5
tp6
.