((S'Title'
p0
S'Galaxy S4 Rain n Grass LWP '
p1
tp2
(S'Description:'
p3
S"Free addition for the android of Galaxy S4 Rain n Grass LWP is made in tilt shift styleIt is style of processing of the photo and giving of tridimentionality of the image to them.Galaxy S4 Rain n Grass LWP image on the full screen becomes very beautifulThese pictures of Galaxy S4 Rain n Grass LWP let know the atmosphere of summer by means of titshift style. Free add Galaxy S4 Rain n Grass LWP in my configuration has different backgrounds hd:Picture of Grass, Image of Fresh Drop.Addition android Galaxy S4 Rain n Grass LWP takes up little space, so it is efficient and low-power android devices.Passing the test is 90% tablets, high-resolution HD, FULL HD. With the same success on mobile phones that operate at lower resolutions. Our supplement android is free and does not require any cash outlay. You can also recommend the website. Download it to your computer to your friends. Once you have downloaded the application Galaxy S4 Rain n Grass LWP on your device it will be set after you select it under live wallpapers. He's difficulties would arise. The interface in the Speed and the number is quite convenient in terms of management. Fresh Drop 3D objects on the screen of your phone or tablet as you wish Galaxy S4 Rain n Grass LWP android app do not bounce in the installation for the following models: Facebook phone HTC First, Samsung Galaxy Note, Sony Xperia Z, Samsung Galaxy S3, Samsung Galaxy Note 2, Samsung Galaxy S4.Download Budget addition to Galaxy S4 Rain n Grass LWP for your Android and show your friends.Tags: To download free of charge, rain, HTC First phone, Drop, 3d Live Wallpaper, android, Live Wallpaper, Xperia ZL, Grass,Free LWP, summer, Samsung Galaxy S3, Sony Xperia Z, HD, Full HD, Photo, Samsung Galaxy S4, Samsung Galaxy Note 2, screen, summer live wallpaper, Facebook, HTC First, android device.Recent changes:errors are corrected"
p4
tp5
tp6
.