((S'Title'
p0
S'Galaxy S3 Drop Live Wallpaper '
p1
tp2
(S'Description:'
p3
S'Galaxy S3 Drop Live Wallpaper simulates raindrops falling on your screen, inspired by original S3 rain drop background.To use: Home -> Menu -> Wallpapers -> Live WallpapersTo develop more free great live wallpapers, we have implemented some ads in settings.Advertisement can support our develop more free great live wallpapers.Our wallpaper contains "NO notification or icon ads"!!This live wallpaper has been tested on latest devices such as Samsung Galaxy S3 and Galaxy Nexus. Please contact us if your device is not supported.Note: If your wallpaper resets to default after reboot, you will need put the app on phone instead of SD card.Follow us on Twitter: https://twitter.com/androidwasabi" target="_blank">https://twitter.com/androidwasabiDisclaimer/TrademarksGalaxy S is a trademark of Samsung. This app is not affiliated with or endorsed by Samsung.Recent changes:- Updated latest Android 4.2.2 SDK- Removed "Download a free game" link'
p4
tp5
tp6
.