((S'Title'
p0
S'Galaxy Note 2 Live Wallpaper '
p1
tp2
(S'Description:'
p3
S'Download the free Galaxy Note 2 Feather live wallpaper with floating feathers.Now with "Water Droplet" effect! Enable this effect in the settings screen.Touch or tap the screen to add water drops on your home screen!To use: Home -> Menu -> Wallpapers -> Live WallpapersTo develop more free great live wallpapers, we have implemented some ads in settings.Advertisement can support our develop more free great live wallpapers.Our wallpaper contains "NO notification or icon ads"!!This live wallpaper has been tested on latest devices such as Samsung Galaxy S3 and Galaxy Nexus. Please contact us if your device is not supported.Note: If your wallpaper resets to default after reboot, you will need put the app on phone instead of SD card.Follow us on Twitter: https://twitter.com/androidwasabi" target="_blank">https://twitter.com/androidwasabiDisclaimer/TrademarksGalaxy Note is a trademark of Samsung. This app is not affiliated with or endorsed by Samsung.Recent changes:- Updated Google Admob SDK- Added more languages'
p4
tp5
tp6
.