((S'Title'
p0
S'GameChanger '
p1
tp2
(S'Description:'
p3
S'The GameChanger mobile app and website provides free scorekeeping and stat software for thousands of baseball and softball teams. Parents and fans can follow live with play-by-play updates, alerts, and instant recap stories.* Named "Most Promising Startup" at the MIT Sloan Sports Analytics Conference Trade Show* Made Forbes list of "Sports Names You Need to Know" for 2013* Winner of "Best in Show" at 2010 American Baseball Coaches Association Convention (ABCA)* "A no-brainer" - Los Angeles Times* \xe2\x80\x9cGameChanger is the call.\xe2\x80\x9d - NY Times* \xe2\x80\x9cThe GameChanger app is game changing\xe2\x80\x9d \xe2\x80\x93 CNBC Sports Business* \xe2\x80\x9cA scoring app that is a game changer\xe2\x80\x9d - WTIC* Chosen partner of USA Baseball, Little League International, Cal Ripken Baseball, MaxPreps.com, Perfect Game USA, eteamz.com and East Cobb Baseball. PRODUCT OVERVIEW* Coaches and scorekeepers will save valuable time with extensive stat management tools, spray charts and pitch-by-pitch game recaps.* Fans can view live GameStream plays or stats and read game recap stories. ONLINE RESOURCES* Learn more and get started at www.GameChanger.io.* FAQ and App User\'s Guide: www.GameChanger.io/help* Video Tutorials: www.GameChanger.io/help/tutorials GAMECHANGER APP FEATURES* Create your team, schedule, roster and lineup* Make easy roster edits and substitutions* Drag defensive players to location where ball is fielded* Drag and drop advancing runners* View live score, pitch counts and play-by-play recaps* Undo plays for in-game editing* Resume scoring a game with auto-save on every pitch* Digital scorebook WEB FEATURES (www.GameChanger.io)* Create teams, rosters and schedules for access on the app* View live play-by-play and game stats ("GameStream")* View post game box scores (basic and advanced)* View score book online.* 150+ stats including IP, H, R, ER, BB, SO, HR, ERA, total strikes, first pitch strikes, strike %, batters on or out in 3 pitches or less, AB, H, AVG, RBI, OBP, SLG, OPS, and 6-plus pitch at-bats (http://www.gamechanger.io/features/stat-list)* View dynamic spray charts for every ball put in play* Read and share auto-generated game recap stories GameChanger is designed by an entrepreneurial and customer-focused team at GameChanger Media, Inc. Testimonials: \xe2\x80\x9cGameChanger is essential for any baseball program.  Do your program a favor\xe2\x80\xa6become a Game Changer\xe2\x80\x9d \xe2\x80\x93 Marc L., High School Baseball Coach \xe2\x80\x9cThere is no better app for scorekeeping at any level.  I won\xe2\x80\x99t ever coach without it.\xe2\x80\x9d - Wilo C., Youth Baseball Coach \xe2\x80\x9cOur families, like most, live very dynamic lives and it was Game Changer that brought them the game.  It truly is a "Game Changer!"- Dwight S., High School Coach \xe2\x80\x9cI can\'t say enough good stuff about this program.\xe2\x80\x9d - Jill M., High School Softball Scorekeeper \xe2\x80\x9cGameChanger is every coach\xe2\x80\x99s most useful in-game tool.\xe2\x80\x9d - Dan M, Youth Coach \xe2\x80\x9cGameChanger absolutely made my life easier as a team manager.\xe2\x80\x9d Orlando D., Travel Team Manager & Scorekeeper \xe2\x80\x9cGameChanger has provided a streamlined approach to tracking stats for our high school baseball program. Evaluating post-game stats is a quick 10-15 minute process.\xe2\x80\x9d - Joel S., High School Coach \xe2\x80\x9cI instantly loved the ease of use.\xe2\x80\x9d - Kathy L., Tournament / League Administrator \xe2\x80\x9cGame Changer scorekeeper has changed how we generate and use information.\xe2\x80\x9d - Darren F, College Coach \xe2\x80\x9cWe utilize the spray charts. Game Changer has helped us win several games already!\xe2\x80\x9d - Jay H, Youth Baseball Coach\xe2\x80\x9cGame Changer baseball and game changer softball software is the easiest scoring program out there. Stat tracking and score keeping is now painless. It\xe2\x80\x99s now simple to score baseball and score softball on your Android device\xe2\x80\x9d - Sean, CT Score keeper.Recent changes:2.10.1 & 2.9.1 fix various sync issues & crashes2.8.1 fixes a number of crashes that were affecting scorekeepers2.8.0 includes several bug fixes.- Fixed error when editing team info- Fixed font rendering- Smoother performance scrolling through team lists- Fixed bug that blocked login after a practice game- Login / signup form usability'
p4
tp5
tp6
.