((S'Title'
p0
S'GameFront: Video Walkthroughs '
p1
tp2
(S'Description:'
p3
S"***This Android app is a FREE, massive library of video walkthroughs for tons of AAA games, right in the palm of your hand\xe2\x80\x94expertly produced by Game Front.com, a top video game news and information site.***TOTALLY ONE OF A KINDGame Front's \xe2\x80\x9cVideo Walkthroughs, Game Guides & Cheats\xe2\x80\x9d app is the first and only FREE video walkthrough library available in the app store! It's a perfect, one-of-a-kind couch companion for any gamer. Updated daily, the app is packed with helpful videos showing: cheats, achievements, trophies, unlockables and full game walkthroughs for dozens of top AAA games like Skyrim, Black Ops 2 and Halo 4.     FIVE STAR QUALITYThe app has launched to rave reviews, earning it a stellar five-star rating! Gamers have praised the app for its slick interface, intuitive customizability and sheer size. Download now and see what you've been missing!  TIPS, HELP, HOW-TO\xe2\x80\x99S\xe2\x80\x94WITH PERSONALITY. Whether you need help finding collectibles, unlocking Achievements and Trophies or beating a tough boss, Game Front has you covered. Our team of pro gamers provide in-depth strategies full of helpful, humorous audio commentary. Our walkthroughs don\xe2\x80\x99t just help you win\xe2\x80\x94they\xe2\x80\x99re simply fun to watch. CUSTOMIZABLE EXPERIENCE The app is yours to customize and make your own. Feel free to add feeds for certain games or platforms to the home screen so you get just what you want. Only want PS3 games? Go for it! Obsessed with Skyrim? You\xe2\x80\x99re more than covered. Looking forward to 2012\xe2\x80\x99s big releases? Stay tuned for video walkthroughs for: Halo 4, Black Ops 2, Assassin\xe2\x80\x99s Creed 3, Hitman: Absolution and Far Cry 3! ALL THE VIDEOS IN THE PALM OF YOUR HAND Over 3,000 walkthrough videos, for all your favorite games! Now you can conveniently load our walkthroughs on your phone without ever leaving the couch. IT\xe2\x80\x99S FREE! That says it all right there, doesn\xe2\x80\x99t it? You don\xe2\x80\x99t owe us anything for downloading the app. It\xe2\x80\x99s free and always will be.Enjoy, and game on! Keywords: game walkthrough, cheats, trophies, achievements, skyrim dragonborn, assassins creed 3, halo 4, black ops 2, game guide, unlockables, game cheats, far cry 3, hitman absolution**** Note: since this is a video streaming app and will require lots of data to download, we strongly recommend that you\xe2\x80\x99re connected to Wi-Fi for the best possible experience."
p4
tp5
tp6
.