((S'Title'
p0
S'Garden Design Ideas '
p1
tp2
(S'Description:'
p3
S'Garden design ideas for you. You can save and share all garden designs & decorating photos. This application shows you the galleries of beautiful and impressive garden design ideas and decorations. If you have on idea about your garden, this application can help you. This app. contains the various types of garden designs & decorating such as  : - simple, small, modern, - balcony, terrace gardens- backyard, front yard, rock- fairy, patio garden designs ideas - waterfall, ponds - flowers, mediterranean, pathway - Japanese, zen and more.You can get a hundred ideas of garden design and decorating from this application.Application Features:- A hundred pictures of garden design ideas- You can save all pictures to sdcard.- You can share all images to others.- You can set all pictures as wallpaper.- Easy to use: press menu to save, share, and set as wallpaper.'
p4
tp5
tp6
.