((S'Title'
p0
S'GirlsCamera:PhotoBooth Sticker '
p1
tp2
(S'Description:'
p3
S'\xe2\x99\xaa\xe1\x83\xa6\xe2\x99\xaa*\xe2\x80\xa2.\xc2\xb8\xc2\xb8\xc2\xb8.\xe2\x80\xa2*\xc2\xa8\xc2\xa8*\xe2\x80\xa2.\xc2\xb8\xc2\xb8\xc2\xb8.\xe2\x80\xa2*\xe2\x80\xa2\xe2\x99\xaa\xe1\x83\xa6\xe2\x99\xaa\xc2\xb8.\xe2\x80\xa2*\xc2\xa8\xc2\xa8*\xe2\x80\xa2.\xc2\xb8\xc2\xb8\xc2\xb8.\xe2\x80\xa2*\xe2\x80\xa2\xe2\x99\xaa\xe1\x83\xa6\xe2\x99\xaa\xe2\x80\xa2* Fun of a Print Club sticker machine (Purikura) is brought to a camera app as it is!\xe2\x99\xaa\xe1\x83\xa6\xe2\x99\xaa*\xe2\x80\xa2.\xc2\xb8\xc2\xb8\xc2\xb8.\xe2\x80\xa2*\xc2\xa8\xc2\xa8*\xe2\x80\xa2.\xc2\xb8\xc2\xb8\xc2\xb8.\xe2\x80\xa2*\xe2\x80\xa2\xe2\x99\xaa\xe1\x83\xa6\xe2\x99\xaa\xc2\xb8.\xe2\x80\xa2*\xc2\xa8\xc2\xa8*\xe2\x80\xa2.\xc2\xb8\xc2\xb8\xc2\xb8.\xe2\x80\xa2*\xe2\x80\xa2\xe2\x99\xaa\xe1\x83\xa6\xe2\x99\xaa\xe2\x80\xa2* It\'s a big hit in Asian countries\xe2\x98\x86Total downloads exceeded 3.3 million times!GirlsCamera that 1 million people enjoy each month is a camera app for girls that they can experience fun of a photo booth sticker machine anytime, anywhere.\xe2\x98\x86A feature of "Image Crop" was added.\xe2\x98\x86\xe3\x83\xbbThe number of items that can be used for free is more than 600 pieces!\xe3\x83\xbbThe number of added material of DIY stamps is more than 200 pieces and they are also popular.\xe2\x99\xaa\xe3\x83\xbbIt\'s from a manufacturer of a popular Print Club sticker machine! You can enjoy a photo sticker anytime, anywhere with an enhanced decorative function!\xe3\x83\xbbIt has plenty of features such as cute stamps, frames, effects, a color pen, a brush of a background, background removal, and easy whitening skin.\xe2\x99\xa1\xe2\x98\x85All are cute! Free items are more than 600 pieces.\xe3\x83\xbbCharacters and color of the pen are unlimited! You can colorfully decorate it with your favorite color!\xe3\x83\xbbMessage stamps will easily make your picture cute, if you just add one of them to the picture.\xe2\x99\xa1\xe3\x83\xbbLet\'s stylishly process it with the fashionable materials such as a stamp in the blogger style.\xe2\x99\xaa\xe3\x83\xbbYou can enjoy many fonts for free such as the text in the handwritten style!\xe3\x83\xbbOf course, you can process the picture with whitening skin!\xe3\x83\xbbIt\'s easy to process it with image filters, background removal, and the brush for the background.\xe2\x99\xaa\xe3\x83\xbbThere are a lot of recommended decorative items such as popular "Seasonal Collection", "Makeup Collection", which attracts the most attention now! \xe2\x80\xa8\xe2\x98\x85It\'s perfect for taking a picture with your friend or your family!The camera is basically the front-facing one, which is easy to take a picture by yourself!You can email from your cell phone with attached photos while you check whether your face is surely inside the frame.\xe2\x99\xa1 (You can turn it into a rear-facing camera.)Also, you can take pictures of your fashion, coordinates, makeup of the-days, or your pet or cooking. It\'s very useful in various scenes!\xe2\x98\x85Let\'s share the DIY stamps and enjoy them with everyone!You can make an original stamp and a frame such as a pictograph or a portrait by yourself; the stamp you made can be shared and used by everyone.\xe2\x99\xaaAll are free of charge and unlimited use ranging from the handwritten decorative mail style to an illustration with an animated style!The number of stamps everyone shares is more than 200 pieces every day.\xe2\x98\x86 Now, a total of 50,000 pieces is shared!Share a stamp and a frame you made with users in the world and enjoy them with everyone.\xe2\x98\x85Avoid blurring of an image due to the hand movement by using a timer!If you use a timer, you can avoid blurring of a picture and you can easily take a picture.\xe2\x98\x85You can easily start another camera app from GirlsCamera!Tap "Menu" button on the Picture decorative screen and tap "Start in app"!You can process the decorated picture with another app as it is.\xe2\x99\xaaAnd you can easily share the picture you finished processing with a friend by using email, Ameba, mixi, Facebook, twitter, Line, kakao talk, instagram, Dropbox.Let\'s have fun by sharing it with everyone on SNS or Blog!\xe2\x98\x85Let\'s print the picture you decorated with a printer. (It\'s only supported with the printer connected to Wi-Fi)You can print your decorated picture with the printer connected to Wi-Fi.\xe2\x99\xaaTap "Menu" button on the Picture decorative screen and tap "Connect to the Wi-Fi printer".\xe2\x98\x85Recommended pictures of everyone are open to the public every day on the Facebook page and the Pinterest page of GirlsCamera! Refer to it for decoration.\xe2\x98\x86\xe2\x80\xbb"Purikura", which refers to a photo sticker booth, is a registered trademark of Index Corporation.Recent changes:\xe2\x96\xa0What\'s NEW\xe2\x80\xa2NEW Background color'
p4
tp5
tp6
.