((S'Title'
p0
S'GO Cleaner & Task Manager '
p1
tp2
(S'Description:'
p3
S'#Over 5 Million Users\xe2\x80\x99 Choice#Advanced Task Manager. Monitor and kill apps. Clean rubbish, residual files, cache, free memory and speed up your android phone. Manage apps auto start. Powerful and easy to use, GO Cleaner & Task Manager is known as cleaner or task killer, it is the must-have tool to clean your phone and ensure a smooth and fast operation experience. Features: - one-click to kill general process, resident process, and system process- clean cache, residual files, Apk rubbish to release memory- check the healthy state of your phone and provide auto or manual optimization tips- set auto clear app list, clear condition (when screen off) or clear frequency- set white list of the apps you don\'t want to kill when you click kill apps- monitor the high risk apps which have access to your contacts, message, and network permission- move apps to SDcard- widgets with 1*1, 4*1, (4*2 only available for GO Widget)- support notification bar - low memory warning alert- detailed info about your phone hardware More Premium features with GO Cleaner & Task Manager Pro Version:- advanced task killer to kill most background running process- advanced kill to prevent apps auto start in the background ( need ROOT )- clean system rubbish, including residual file, cache, thumbnail picture, log file, invalid file and blank catalog- forbid app boot to speed up phone launching speed ( need ROOT )- monitor 2G/3G and wifi traffic daily and monthly to your phone and specific apps- control the specific app access to mobile data or wifi network- delicate themes designed only for Pro Version- automatically notify you when an app can be moved to SDcard- automatically detect residual file when uninstalling an app Questions:1. What, exactly, is rooting? Rooting your Android phone is a process in which you gain administrative permission and have access to abilities of your phone that were unavailable before root. Therefore, you can install custom Android OS ROMs, clean system caches and rubbish, control apps auto start, and use GO Cleaner & Task Manager better.  2. How to add Widgets of GO Cleaner & Task Manager onto your home screen? Press Menu> Choose "Add"> Choose "Widget" or "GO Widget"> Select the widget and the size you want.3. Why I paid by google play but still cannot use PRO Version?You might finish the payment process but Google cancelled the order and the money didn\'t transfer to our account. You may send us your payment ID, name, payment email to check payment process status.Make sure you have signed on Google account (the same as your payment ID). This is the official way to identify the PRO Version users.Make sure your network is connected. Google need to identify your account. 4.Why do apps restart again after killing?Some apps are restarted by system events, Task killer cannot prevent the apps from restarting again without root permission. We suggest you to root your phone and Upgrade to PRO Version, Advanced Task Killer can prevent apps restart in the background and release more RAM to speed up your android device, even save more battery.Keywords: advanced task manager, kills task, clean cache, clean residual, free memory, cleaner. Feel free to contact us if there is any problem or suggestion: golauncher@goforandroid.comWe are constantly improving GO Cleaner & Task Manager. If you like it, please do recommend it to your friends. Your support is always appreciated.Recent changes:1.[New function] Add \'Default app\' function in tool box. Free to change  default launch app as you want2.[Improve] Unified the width of all system widgets, and upgrade all the app widget theme 3.[Improve] Improve widget theme preview effect4.[Fixed] Fixed red point not stable issue*Use Getjar gold to get PRO Version, totally FREE!*Free to try \'Advanced Kill\' on the main page, need ROOT'
p4
tp5
tp6
.