((S'Title'
p0
S'GO Launcher EX '
p1
tp2
(S'Description:'
p3
S'GO Launcher EX is the most popular Android home launcher replacement app in Google Play. It offers you many first-ever features to customize your own homescreen experience. Go launcher EX provides you speedy and smooth operation, fancy and plentiful themes, and utility functions with imagination.Facebook: http://www.facebook.com/pages/GO-Launcher-EX/110639522355878Twitter: https://twitter.com/#!/golauncherKey Features: \xe2\x98\x86 Extremely smooth transition animation\xe2\x98\x86 Smooth flipping operation\xe2\x98\x86 More than 5000 personalized themes\xe2\x98\x86 Amazing custom gestures feature offers you more convenience and fun\xe2\x98\x86 Various GO widgets (weather, switcher, calendar\xe2\x80\xa6)\xe2\x98\x86 Efficient and strong app management function, including sorting, hide app, search, cleaning memory and refresh.New features:- Supports GO Launcher super themes (more homescreen effects),the last pic above is our "Dryad Super Theme".(Search "Dryad" in google paly, it\'s free to download)- Draw patterns to active apps (double click on home screen to active custom gesture)- Squeezing effect of icons and widgets (Jelly Bean style)Tips1. How to get themes, widgets and lockers?a) Search \xe2\x80\x98go launcher theme\xe2\x80\x99, \xe2\x80\x98go widget\xe2\x80\x99 or \xe2\x80\x98go locker\xe2\x80\x99 in Android Market.b) Use GO Store via menu button in GO Launcher.2. How to set transition animation?Use \xe2\x80\x98Effects settings\xe2\x80\x99 via button in GO Launcher.3. Icons are too small?Use \xe2\x80\x98Icon Size\xe2\x80\x99 option in \xe2\x80\x98Preferences->Visual settings->Icons\xe2\x80\x99 to make icons bigger.3. Long press the app icon to enter editing mode on home screen and app drawer.4. Glide up to open menu and glide down to pull down notification.5. The widgets in the screenshots belong to GO Widget, attainable from Android Market or GO Store.6. File browser can be found in the lower left of app drawer. 7. Process management feature is found down the running tab of app drawer. Clicking the broom icon and clean the memory.Important:1. GO Launcher is a totally free app without any charge. 2. If you cannot set \xe2\x80\x98GO Launcher\xe2\x80\x99 as the default home app, download \xe2\x80\x98Home Manager\xe2\x80\x99 to fix it. 3. \xe2\x80\x98DIRECTLY CALL PHONE NUMBERS\xe2\x80\x99 permission?It\'s required by the feature to create shortcuts of \xe2\x80\x98person\xe2\x80\x99 and \xe2\x80\x98direct dial\xe2\x80\x99. GO Launcher won\'t make unattended phone call and cost your money.5. \xe2\x80\x98READ CONTACT DATA\xe2\x80\x99 permission?It\'s required by the feature to create \'person\' shortcut as well as to add contact folder.Our commitments are respecting user privacy and delivering cool experience. Please help us by rating this app and recommending to the others.Want an extreme makeover to your phone? Try it out!Follow Us onFacebook: http://www.facebook.com/pages/GO-Launcher-EX/110639522355878Twitter: https://twitter.com/#!/golauncherOwned by and Visit 3G.cn Through Your Mobile. Copyright 2004-2012 All Rights Reserved.Recent changes:1.(New) Redesign the interface of system settings 2.(New) Manage all GO Launcher plugins in a centralized page (menu->plugins) 3.(Improve) Move some frequently-used options to the top of preferences 4.(Improve) Support theme of other launcher 5.(Fix) Error of rating box which popped up frequently 6.(Fix) Icons of some paid themes cannot be applied on Jelly Bean'
p4
tp5
tp6
.