((S'Title'
p0
S'Google Search '
p1
tp2
(S'Description:'
p3
S'Google Search app for Android: The fastest, easiest way to find what you need on the web and on your device.* Quickly search the web and your phone or tablet* Use your voice to search and more* Get personalized results based on your locationPlus: *Google Now* gets you just the right information at just the right time. It tells you today\xe2\x80\x99s weather before you start your day, how much traffic to expect before you leave for work, and more (Google Now is currently available on Android 4.1, Jelly Bean).Recent changes:For Android 4.1+ (Jelly Bean):- Real time package tracking from select carriers- Quick feedback and settings on cards- Faster Google search results'
p4
tp5
tp6
.