((S'Title'
p0
S'GO SMS Pro Widget '
p1
tp2
(S'Description:'
p3
S"GO SMS Pro Widget enables you to view messages on desktop. You can use this widget independently without GO SMS. But, to enjoy more powerful SMS funtion, you need to install the latest version of GO SMS Pro, which is the most popular SMS/MMS app in Android Market.** How to add GO SMS Widget on your home screen?- Long press on your home screen, press the Widget option and choose GO SMS widget. Make sure your home screen has enough room for the widget.Available Size:-icon-4x2Actions:- View- Reply- Write new message- Call- Delete- Mark as read- Widget settings, includes changing style**Note**Some funtions need you to bind to v3.59 or the newest version of GO SMS Pro, if your haven't installed or the version is too old, we suggest you to dowload or update your GO SMS Pro main program.** Related website **- Download the newest GO SMS Pro: 1.Search \xe2\x80\x9cGO SMS Pro\xe2\x80\x9d in google market; 2.https://market.android.com/details?id=com.jb.gosms- Visit our Blog: http://gosms.goforandroid.com- Visit our official website: http://www.goforandroid.com- Email to us: gomessanger@gmail.com- Visit our facebook profile: http://www.facebook.com/apps/application.php?id=178919808825035Thank you for your support very much."
p4
tp5
tp6
.