((S'Title'
p0
S'GO SMS Pro WP7 ThemeEX '
p1
tp2
(S'Description:'
p3
S'\xe2\x9d\xa4Important:This is a premium theme but free to download.  you may1.Pay with IAP ( In app purchase ) 2.Get it for free with Getjar Gold\xe2\x9d\xa4How to use this theme:1. After downloading and installing this theme, go to Application Center -> Theme Store -> Installed -> choose your theme -> Apply2. Choose pay with Google Checkout or Free with Getjar Gold.3. If you choose Getjar Gold, there will be several apps listed, just download some apps to earn gold and then purchase with Getjar Gold4. After purchase, select Installed -> choose the theme -> Apply5. Enjoy your theme and pay attention to our productsCopyright 2004-2012 3G.cn All Rights ReservedOfficial blog\xef\xbc\x9ahttp://gosms.goforandroid.comFeedback: gomessanger@gmail.com'
p4
tp5
tp6
.