((S'Title'
p0
S'GreenPower Battery Saver Free '
p1
tp2
(S'Description:'
p3
S'\xe2\x98\x85 GreenPower Battery Saver brings many extra hours to your battery life! \xe2\x98\x85"Charge less by extending your battery life with this amazing app""!! (Sprint newsletter)Unlike other battery savers like JuiceDefender that require regular user manual actions, GreenPower is an easy battery saver that is fully automatic: Once configured, it runs and saves your battery by itself. It does so by smartly managing Wifi, Mobile data, Bluetooth and Screen Brightness: Turning them off when you don\'t need them, but ensure minimum disturbance: Automatic turned ON when needed by you or by other apps (e.g retrieving mails). Easier, cleaner and faster than competitors like JuiceDefender , 2x battery saver and easy battery saver!GreenPower battery saver: 1.5 million downloads & 2 years of experience in Android Battery Saving!"GreenPower is a simple and easy battery saver, battery booster and power management software" (Engadget Chinese edition)HIGHLIGTS\xe2\x98\x85 Adds up to 100% battery life depending on usage\xe2\x98\x85 Automatically manages your Wi-Fi, Mobile Data (2G, 3G, 4G), Bluetooth, GPS, display brightness\xe2\x98\x85 Battery saving works with almost all devices and carriers\xe2\x98\x85 Supports all Android versions from Froyo to Jelly Bean\xe2\x98\x85 Easy yet powerful battery saver and battery booster"GreenPower battery saver mainly does one thing, but does it so well and so flexibly that the benefits reaped are considerable." (InfoWorld)INSTALL AND FORGETOr take time to configure the battery saving settings to get the most out of it and the best battery longevity!SATISFIED OR MONEY BACK GUARANTEETry Premium version for 24H and get a refund if you didn\'t like it by just sending us a mail. "GreenPower battery saver is a remarkable tool. Battery booster, time saver, top notch!" (AndroidPit)FEATURES\xe2\x80\xa2 Battery life indicator in notification area.\xe2\x80\xa2 Wifi management: Based on schedule, screen state, location, power connected, signal level...\xe2\x80\xa2 Mobile data management: Based on schedule, screen state, power connected... \xe2\x80\xa2 BLUETOOTH (premium) management: Based on devices connected or in range, screen state, power etc\xe2\x80\xa2 Traffic check: Configurable to prevent disturbing other apps\xe2\x80\xa2 Apps Whitelist & Blacklist (premium): To keep data on when using specific apps (like music streaming)\xe2\x80\xa2 Simple WIDGET (premium): To quickly pause or resume\xe2\x80\xa2 Night / Sleep mode (premium) fully configurable, Airplane mode...\xe2\x80\xa2 Tasker & Locale Plug-in (premium)\xe2\x80\xa2 Compatible with Cerberus 2.0\xe2\x80\xa2 Very lightweight and fast app\xe2\x80\xa2 Easy and clean interface\xe2\x80\xa2 Fully configurable settings\xe2\x80\xa2 Settings backup / restore\xe2\x80\xa2 30 Languages\xe2\x80\xa2 And more coming all the time...SUPPORT\xe2\x80\xa2 Dedicated Forum for support issues\xe2\x80\xa2 Support from the developer. I\'m answering each issue.\xe2\x80\xa2 Regular updates with bug fixes and new featuresPREMIUM ONLY\xe2\x80\xa2 Bluetooth support\xe2\x80\xa2 Widget\xe2\x80\xa2 Night mode (sleep mode)\xe2\x80\xa2 Tasker & Locale Plug-in\xe2\x80\xa2 Location-based Wi-Fi\xe2\x80\xa2 Apps whitelist & blacklist\xe2\x80\xa2 No ads\xe2\x80\xa2 The good feeling to support an independent developerKeywords: battery, easy battery saver, battery booster, juice defender, juicedefender, batteryfu, apndroid, 2x battery saver, 2 x battery saver, superpower, easy battery saver, bluetooth, Wi-Fi, 2G, 3G, 4G, power manager, power, power saver, deep sleep, battery booster, longevity, GO Power Master, android battery savingRecent changes:New feature: GPS!This new release brings several improvements and corrections. The complete release notes are available online:http://binary-mango.com/greenpower/index.php/release-notes'
p4
tp5
tp6
.