((S'Title'
p0
S'Grocery iQ '
p1
tp2
(S'Description:'
p3
S'Grocery shopping made quick and easy with the features you expect from the #1 grocery shopping list app. Build lists from our extensive product database using text, barcode, or voice search; sync and share lists with other devices and the GroceryiQ.com website; find related coupons and much more! "Grocery iQ takes the old-fashioned grocery list to the 21st century" \xe2\x88\xbc Forbes.com "Helps you when you\'re grocery shopping\xe2\x80\xa6sync up with your friends or your roommates or your family\'s list" \xe2\x88\xbc The Today Show "We all want to save money, so why not use your iPhone? The king of coupons is Grocery iQ...If you regularly shop at a grocery store or other retailer, be sure to install their app" \xe2\x88\xbc GiGaOM.com "If your shopping list is currently the back of an envelope that you\xe2\x80\x99ve scribbled some items on (mom!), then it\xe2\x80\x99s time for you to check out GroceryIQ." \xe2\x88\xbc InteriordesignHQ.com Key Features:\xe2\x9c\x93 Lists: Build grocery lists quickly from our database of millions of items. \xe2\x9c\x93 Aisles: Create custom aisles and reorder aisles for any list. \xe2\x9c\x93 Favorites: Easily add frequently purchased items to new lists, search and filter favorites to build lists quickly. \xe2\x9c\x93 History: Keep track of what you\'ve checked out and filter history by list. Easily create lists from history items. \xe2\x9c\x93 Multi-Barcode Scan: Add multiple items by simply pointing your camera at any product barcodes. \xe2\x9c\x93 Voice Search: Use advanced voice search to add items to your list. \xe2\x9c\x93 All List Items: Never forget an item again by viewing all items in "All List Items". Toggle your lists settings to view "All List Items" on any list you choose. \xe2\x9c\x93 Store Locator: Find nearby grocery stores and add your loyalty card. \xe2\x9c\x93 Sync: Sync your lists with the GroceryiQ.com website, friends and family. \xe2\x9c\x93 Coupons: Search free coupons, view recommended coupons, email or add coupons to your store loyalty card. \xe2\x9c\x93 Item Details: Add price and description, weight, quantity and more. Start simplifying your grocery shopping today!Recent changes:New in 2.6.4:\xe2\x9c\x93 Bug fixesNew in 2.6:\xe2\x9c\x93 Simplified List Management \xe2\x9c\x93 Search\xe2\x9c\x93 Quick Filters for Favorites and History \xe2\x9c\x93 Multi-Barcode Scan\xe2\x9c\x93 Multi-Word Voice Search \xe2\x9c\x93 Coupons Recommendations \xe2\x9c\x93 Updated Navigation \xe2\x9c\x93 Meijer Loyalty Card Support  \xe2\x9c\x93 Numerous bug fixes and stability improvements\xe2\x9c\x93 Support for Nexus 10 tablet and sync on Nexus 7 and similar devices\xe2\x9c\x93 Improved barcode scanning'
p4
tp5
tp6
.