((S'Title'
p0
S'Gtunes Music Downloader '
p1
tp2
(S'Description:'
p3
S'Simple-to-use music download tool.- Search, Listen and Download- Manage downloads list- Manage local music library- Save to sdcardTags: mp3 music download android gratuit contact ringtone alarm notification.'
p4
tp5
tp6
.