((S'Title'
p0
S'Guideline Central '
p1
tp2
(S'Description:'
p3
S'Medical guidelines in a concise, easy to read quick-reference format.The only clinical practice guidelines app you will ever need\xe2\x80\xa6Choose from a hundred different medical guidelines representing all of the main specialties from the most well-known medical associations in the world. These are official society guidelines, condensed into a quick reference format that is current, practical and portable.WE CURRENTLY OFFER OVER 60 FREE GUIDELINE TITLES. NOT ALL GUIDELINES ARE FREE...BUT 2/3 ARE!APP FEATURES-Official recommendations from respected medical associations-Key points, treatment, management, prevention, more-Easy navigation to critical information-Illustrated algorithms, charts, medical tables-Comprehensive drug information-Full text search-Instant updates-Online & offline functionality-Save favorite guidelinesGUIDELINES FROM THE FOLLOWING SOCIETIES\xe2\x80\xa2Infectious Diseases Society of America (IDSA)\xe2\x80\xa2American Heart Association (AHA) / American College of Cardiology (ACCF)\xe2\x80\xa2American Association for the Study of Liver Diseases (AASLD)\xe2\x80\xa2The Endocrine Society\xe2\x80\xa2American Academy of Allergy Asthma and Immunology (AAAAI)\xe2\x80\xa2American Academy of Child and Adolescent Psychiatry (AACAP)\xe2\x80\xa2American College of Chest Physicians (ACCP)\xe2\x80\xa2American Society of Clinical Oncology (ASCO)\xe2\x80\xa2American Diabetes Association (ADA)\xe2\x80\xa2American Academy of Neurology (AAN)\xe2\x80\xa2American Academy of Sleep Medicine (AASM)\xe2\x80\xa2American Association of Clinical Endocrinologists (AACE)\xe2\x80\xa2American College of Physicians (ACP) INCLUDED FOR FREENew treatment guidelines are added every month. Free guidelines rotate.Some sponsored titles require an email address to access. THESE ARE FREE. Email validation required.To unlock premium content: visit http://www.GuidelineCentral.com and select the guideline subscription you wish to purchase. Subscriptions start at $0.99.SAMPLING OF CURRENT GUIDELINESPsychiatry\xe2\x80\xa2Attention Deficit Hyperactivity Disorder (ADHD)\xe2\x80\xa2Depressive DisordersSleep Medicine\xe2\x80\xa2Sleep Apnea\xe2\x80\xa2InsomniaInfectious Disease\xe2\x80\xa2MRSA\xe2\x80\xa2Hepatitis C\xe2\x80\xa2Pediatric Community Acquired Pneumonia\xe2\x80\xa2Influenza\xe2\x80\xa2Aspergillosis\xe2\x80\xa2HIV\xe2\x80\xa2C Diff\xe2\x80\xa2Candidiasis\xe2\x80\xa2Community Acquired Pneumonia\xe2\x80\xa2Antimicrobial Stewardship\xe2\x80\xa2Fever & Neutropenia\xe2\x80\xa2Cryptococcosis\xe2\x80\xa2Complicated Intra-Abdominal Infections\xe2\x80\xa2Catheter Associated BacteriuriaEndocrinology\xe2\x80\xa2Diabetes Mellitus\xe2\x80\xa2Lipid Disorders\xe2\x80\xa2Glycemic Control\xe2\x80\xa2Hypoglycemic Disorders\xe2\x80\xa2Hyperglycemia\xe2\x80\xa2Androgen DeficiencyAllergy & Immunology\xe2\x80\xa2Immunotherapy\xe2\x80\xa2Vaccine Reactions\xe2\x80\xa2Food Allergy\xe2\x80\xa2Exercise Induced Asthma\xe2\x80\xa2Drug Allergy\xe2\x80\xa2Anaphylaxis\xe2\x80\xa2RhinosinusitisCardiology / Pulmonology\xe2\x80\xa2Ischemic Stroke\xe2\x80\xa2Pulmonary Arterial Hypertension\xe2\x80\xa2Stable Ischemic Heart Disease\xe2\x80\xa2STEMI\xe2\x80\xa2COPD\xe2\x80\xa2Asthma\xe2\x80\xa2Stroke Prevention in Atrial Fibrillation\xe2\x80\xa2Valvular Disease\xe2\x80\xa2Deep Vein Thrombosis\xe2\x80\xa2VTE Therapy\xe2\x80\xa2Coronary Artery Disease\xe2\x80\xa2Cardiovascular Disease PreventionHematology\xe2\x80\xa2Heparin Induced Thrombocytopenia\xe2\x80\xa2HemochromatosisOncology\xe2\x80\xa2Breast Cancer\xe2\x80\xa2Chemotherapy\xe2\x80\xa2Hepatocellular Carcinoma\xe2\x80\xa2Antiemetics for Cancer Treatment\xe2\x80\xa2Lung CancerNeurology\xe2\x80\xa2Parkinson Disease\xe2\x80\xa2Cluster Headache\xe2\x80\xa2Migraine\xe2\x80\xa2Alzheimer\'s\xe2\x80\xa2Epilepsy in PregnancyPain\xe2\x80\xa2Low Back Pain\xe2\x80\xa2Geriatric Pain Management\xe2\x80\xa2Diabetic Neuropathic PainGastroenterology\xe2\x80\xa2Irritable Bowel Syndrome\xe2\x80\xa2Constipation\xe2\x80\xa2Gastroparesis\xe2\x80\xa2GERDEar, Nose & Throat\xe2\x80\xa2Strep ThroatLiver Disease\xe2\x80\xa2Acute Liver Failure\xe2\x80\xa2Hepatitis BOrthopedics\xe2\x80\xa2Prosthetic Joint Infections\xe2\x80\xa2VTE in Orthopedic SurgerySurgery\xe2\x80\xa2Best Infiltration Practices for Abdominal Surgery\xe2\x80\xa2Bariatric Surgery\xe2\x80\xa2Prevention of ThrombosisDermatology\xe2\x80\xa2Skin & Soft Tissue InfectionsUrology\xe2\x80\xa2Urinary Incontinence\xe2\x80\xa2Urinary Tract InfectionsThe PERFECT MEDICAL APP FOR-Quick Reference-Point of Care-Clinical Trials-Physicians-Nurses-Pharmacists-Medical Students-Educators-Healthcare Quality Managers-all other Practicing CliniciansCUSTOMER SUPPORTContact us for help and app questions\xe2\x80\xa2 info@guidelinecentral.com\xe2\x80\xa2 http://www.GuidelineCentral.com\xe2\x80\xa2 407-878-7606 M-F, 9-5 ESTRecent changes:Now over 60 FREE titles available.Examples of New Free GUIDELINES titles added:STEMI (ACC/AHA)Hypertriglyceridemia (ENDO)Antimicrobial Prophylaxis in Surgery (ASHP)TAVRS (ACC/AHA)Prevention of Stroke in Nonvalvular Atrial Fibrillation (AHA)and MoreReceive 50% off Premium Guidelines through the month of April. Use code "ANDROID" at checkout.'
p4
tp5
tp6
.