((S'Title'
p0
S'Handcent SMS Skin (Metal) '
p1
tp2
(S'Description:'
p3
S'Metal Skin for Handcent SMS ,install it and apply it form handcent sms settings->custom style->skin*** App2SD ***This plugin support App2SD,you can move it to SDCARD and save your internal memory spaceRecent changes:Support New Handcent SMS 4.0'
p4
tp5
tp6
.