((S'Title'
p0
S'Handyman Calculator '
p1
tp2
(S'Description:'
p3
S'Complete construction calculator with simple inputs. The app for construction! Reduce Waste and Save Money!! Well tested by 400,000+ contractors and home owners.Top 100 productivity app. Give it a try! Now with "Time Tracking Tool".Easy of use:Search FunctionalityCustomize and create a list of favorite calculators."Recently used calculators" list.NotePad support: Save Calculated results in a notepad.New user interface for Tablets.Feet and Inches CalculatorMetre,CM and MM Calculator(+,-,*,/)Feet,inches TO Metre,cm,mm ConversionFeet,inches and \xc2\xa0Metre,cm,mm Arithmetic(+,-,*,/)Fraction CalculatorFraction Simplification Calculator.Square Footage CalculatorCubic Footage CalculatorSquare feet to Cubic feet CalculatorLumber, Concrete and Asphalt calculator.Length conversion.Area Conversion including Cents(India) conversion.Weight conversion temperature ConverterKilometers to Miles ConverterDensity ConverterFeet and Inches CalculatorBoard Foot CalculatorBoard feet and Linear feet ConversionLumber Weight CalculatorDeck Baluster CalculatorDeck Board CalculatorSpacing CalculatorWall Framing Calculator (Interior and Exterior)Firewood Calculator. Firewood BTU ChartLumber Log Volume calculator.Concrete CalculatorCircular concrete slab calculatorConcrete Stairs CalculatorConcrete Curb and Gutter CalculatorConcrete Block Fill Wall CalculatorExcavation Calculator(Basement)Asphalt Volume calculatorAggregate CalculatorDrywall calculatorCrown Molding CalculatorCarpet CalculatorCarpet Calculator(Metric)Laminate Flooring CalculatorWall Paper CalculatorTile CalculatorPaint CalculatorStairs CalculatorArc Length CalculatorAir Conditioning CalculatorHeater CalculatorRoof CalculatorRoof Pitch Angle ChartRafter Length CalcRebar Weight ChartMulch and Topsoil CalculatorPatio Pavers CalculatorBrick CalculatorPlants Calculator.Wood Fence CalculatorGrass Seed CalculatorSod CalculatorBlown Insulation R value CalculatorGolden Ratio(Golden mean) CalculatorSpeed, Distance and Time CalculatorRain water Collection CalculatorLoan CalculatorSpeed and Velocity Unit ConversionsWater Flow Rate Calculator. Tank Capacity Calculator (Rectangle and Cylindrical)Ohm\'s Law CalculatorResistor Color Code Calculator(4 & 5 band)Resistance ConversionPower Calculator Capacitance, Frequency and Inductance CalculatorCapacitance, Frequency and Resistance CalculatorVoltage Drop CalculatorWire Size CalculatorConvert between Decimal and FractionDiagonal calculatorDiagonal calculator with feet and inches units.Slope Calculator -- Calculate Slope, Distance and EquationRight Triangle CalculatorRectangle CalculatorSquare CalculatorCircle CalculatorPolygon CalculatorFraction to Percentage CalculatorAngle conversionsPower ConversionEnergy ConversionTorque ConversionForce Units ConversionLiquid Units ConversionPressure Units ConversionMagnetic Flux ConversionVolume FlowRate Units ConversionDegrees, Minutes, Seconds and Decimal Degrees ConversionBMI CalculatorMiles Per Gallon (MPG) CalculatorKilometers Per Litres CalculatorGas and Oil mixture Ratio CalculatorDiscount CalculatorDate Duration CalculatorTip CalculatorGraphing CalculatorPCB Trace Width CalculatorWorld ClockShipment Density CalculatorCurrency ConverterTime and Computer Unit Conv.Oil Drilling Calculators:\tMud Pump Output(PO)\tPressure Gradient\tPressure to Mud Weight Conv.\tSpecific Gravity Calc.\tEquivalent Circulating Density\tMaximum Allowable Mud Weight\tAnnular Velocity\tHydraulic Horsepower(HHP)\tFormation Temperature (FT)\tBuoyancy factorApp2SD support Serach Keywords: Wood Calculator, Lumber calculator, Timber Calculator, Wood Professionals app, Wood workers app, Construction calculator, Handyman, Electrical calculator, Voltage Calculator, Material EstimatorRecent changes:Concrete Weight CalculatorTrapezoid Area CalculatorConduit Offset Bender CalculatorDrill Size Chart=============================Metals and Alloys Density ChartUpdated Loan Calculator=========================Support for adding multiple measurements in Square feet, cubic feet abd board feet calculatorsRebar Weight ChartResistance ConversionWire Size CalculatorVoltage(12V and 24V) Drop Calculator========================================Deck Board CalculatorSpacing Calculator'
p4
tp5
tp6
.