((S'Title'
p0
S'Hardest Game Ever 2 '
p1
tp2
(S'Description:'
p3
S'Ranked #1 (Overall) in US, UK, Canada, Germany, Australia, ... for HARDEST GAME EVER 1, HARDEST GAME EVER 2 is definitely a game you don\'t want to miss out!From the developers that brought you the world #1 ranking games "What\'s My IQ?", "Stupidness 3", "0.03 seconds", you won\'t want to miss its sequel \'Hardest Game Ever 2\'!Hardest Game Ever 2 is a series of fun and exciting mini-game that measures your reaction time to the milliseconds and pixels! See how fast you can slap and how sharp is your reaction to catch the eggs before they touch the floor in milliseconds! Hardest Game Ever 2 promises to bring you hours of adrenaline drain! Challenge your family and friends and find out who\'s got the fastest reaction on iPhone/iPod/iPad/Android!Featuring:- Simple 3 Button Control- 24 Stages with 4 Challenging Levels- Ranking with Facebook Pals- Simple yet addictive gameplay- Multi-language InstructionsRead a few testimonial from our gamers for 0.03 seconds, testimonials don\'t lie:Amazing! - \xe2\x98\x85\xe2\x98\x85\xe2\x98\x85\xe2\x98\x85\xe2\x98\x85by Lainie24 - 10 February 2011"This game is very fun and very addictive, i Just had to play every level right then. I would definitely recommend this game! Its also a great test game and sometimes very tricky."Great fun! - \xe2\x98\x85\xe2\x98\x85\xe2\x98\x85\xe2\x98\x85\xe2\x98\x85by Nickram81 - 06 February 2011"If you don\'t have this yet then pick it up. After you master it you will laugh at your friends as they struggle with it."Fun - \xe2\x98\x85\xe2\x98\x85\xe2\x98\x85\xe2\x98\x85\xe2\x98\x85by Sarah Childers - 01 February 2011"I like competitive apps like this one. Seeing how good you are and watching yourself improve is a good pass time."Great fun for young and old alike. - \xe2\x98\x85\xe2\x98\x85\xe2\x98\x85\xe2\x98\x85\xe2\x98\x85by stevens321 - 03 January 2011"Played with my little nephew. Always love to find games we can play competitively and lots of fun."Love it - \xe2\x98\x85\xe2\x98\x85\xe2\x98\x85\xe2\x98\x85\xe2\x98\x85by KaylaJade09 - 28 January 2011"I love this game have it on my iPhone and now the iPad. I get stuck on some levels and just have my friends beat them. Turns into a group competition. LOVE IT ! !"So stupid but brill ! Nuf sed - \xe2\x98\x85\xe2\x98\x85\xe2\x98\x85\xe2\x98\x85\xe2\x98\x85by Mmmm cupcakes!! - 29 May 2011"Amazing it\'s so addictive and clever! Just finished and gonna reset best game ever and sooo clever !!!!!! Great little game 0.02s is ranked top 5 in more than 30 countries! You won\'t want to miss out it\'s sequel, HARDEST GAME EVER 2! Download now!**********************WARNING: This game contains some simple mini-games that looks way too easy till you try them! Not for the faint hearted!Recent changes:Enhance stages and added more challenging elements.Fixed Facebook unable to connect for some devices.Fixed unable to purchase for some devices.Added Multi Language Translation - Chinese, Russian, German, Italian, French, Japanese, Korean'
p4
tp5
tp6
.