((S'Title'
p0
S'HD Full Screen Caller ID '
p1
tp2
(S'Description:'
p3
S'Do you think the photo of contact is too small when you get or make a phone call. You could try to use this app, this app will display full screen and high quality photo of contact when you get phone call, make a phone call, miss a phone call or get SMS message. It will help you quick to know who is calling, who is sending to you a SMS message or who is you missing a phone call. Characters:\xe2\x98\x85 You can use 500 contacts for FREE\xe2\x98\x85 We offer 14 different themes for FREE\xe2\x98\x85 HD Full Screen Caller ID for incoming call.\xe2\x98\x85 HD Full Screen Caller ID  for outgoing call.\xe2\x98\x85 HD Full Screen Caller ID  for missed call.\xe2\x98\x85 HD Full Screen Caller ID  for SMS message.\xe2\x98\x85 You can choose a high quality photo as a full screen photo of contact.\xe2\x98\x85 Choose picture from facebookChange Log:v1.0.8 Change Iconv1.0.9 Fix some devices show wrong contact\'s namev1.1.0 Fix some devices can\'t answer a phone callv1.1.1 Fix some devices can\'t save contact\'s photov1.1.2 Bug Fixv1.1.3 Add more themes. Fix some devices can\'t save photo. Add zoom in and zoom out button.v1.1.4 Add speaker button.v1.1.5 Fix some devices "Change default photo" function don\'t work. Fix sometime don\'t show HD Caller ID.v1.1.7 Fix HD Caller ID hang on the screen. Add speaker button for 3th and 4th theme.v2.0.1 Add sync with Facebook function. Reduce apk size to 676KBv2.1.0 Add AD versionv2.1.1 Fix facebook network error problem.v2.1.3 Fix Bugv2.1.4 Reduce delay timev2.1.5 Fix some device can\'t rotate photo.       Fix problem about pro version contain adv2.1.6 Reduce delay timev2.1.7 Increase between speaker and end call buttonv2.1.8 Reduce delay time and fix some bugv2.1.9 Fix some bugsv2.2.0 Time duration for incoming callv2.2.1 Add Backup and Restorev2.2.2 Fix some bugsv2.2.3 Fix call duration errorv2.2.4 Add Change Fonts Sizev2.2.5 Fix some bugsv2.2.6 Fix some bugsv2.2.7 Fix missed call show wrong number. Fix send and cancel button of SMS don\'t work.v2.2.8 Multiple backup and restore files.v2.2.9 Fix some bugs. Support payment for Taiwan.v2.3.0 Add option to hide text message       Add option to hide contact\'s phone numberv2.3.1 Fix some devices call duration error.v2.3.3 Improve performancev2.3.4 Reduce the time of answer callv2.3.4 Add new themev2.3.5 Add Christmas themev2.3.7 Improve performancev2.3.8 Fix some bugsv2.3.9 Christmas theme for freev2.4.0 Fix some devices can\'t answer callv2.4.1 Add Chinese new year theme             Add Call Log functionv2.4.2 Fix some devices can\'t answer callv2.4.3 Fix bug about disabling key lockv2.4.4 Fix bug about disabling key lockv2.4.5 Fix some bugsv2.4.6 Add White Day themev2.4.7 Add Skull themev2.4.8 Add Butterfly themev2.4.9 Add Old fashioned carRecent changes:1. Add Old fashioned car2. Add Butterfly theme3. Add Skull theme4. Add Call Log function5. Improve performance'
p4
tp5
tp6
.