((S'Title'
p0
S'HD Live Tv '
p1
tp2
(S'Description:'
p3
S'Watch Your Favourite Tv Channels In Your Android Device with HD Quality Many Channels in All Catagory Live Stream On Your Mobile, You Need Fast Network Connection  For Use This App.There Is No Need Of Signup Or Flash PlayuerTHIS APPLICATION ONLY PROVIDES THE LINKS FOR THE LIVE STREAMING CHANNELS. ALL THE LINKS ARE GATHERED FROM VARIOUS FREELY AVAILABLE WEB SITES.his app doesn\'t actually stream the content, instead it combines various sources to present the content in a likable way. All the logos, trademarks and other symbols are the properties of their respective owners. We do not endorse or support any channel or any company. This app is distributed "as is" without warranty of any kind and the user may use it on his/her own risk. This app\'s users and third parties, agree to indemnify and hold harmless this app\'s creators and it\'s agents, from any damages claimed as a result of information, resources, products or services, or third party links obtained from this app. This app doesn\'t stream the content itself, so the creators can\'t be held responsible for any damages. If anybody still finds this app harmful in any way, they must send a request/notice to the creators first to remove the discrepancy. All the RTSP (Real-Time Streaming Protocol) links are gathered from various sources available open in the internet. So the app owner or developer or creator can\'t be held responsible for any damages.'
p4
tp5
tp6
.