((S'Title'
p0
S'HD Tattoo Designs Catalog '
p1
tp2
(S'Description:'
p3
S'Millions of Amazing Tattoo Designs at your fingertips! High-resolution photos and images of the most dramatic tattoos. HD quality pictures for Wallpapers, Backgrounds, and Lock Screens. SAVE magnificent tattoo photos to your Gallery EMAIL / TEXT the most beautiful examples to either yourself or your FriendsUse the most stunning tattoos to SET WALLPAPERS directly from the appDozens of tattoo categories including: \xe2\x80\xa2 Anchor \xe2\x80\xa2 Angel \xe2\x80\xa2 Ankh \xe2\x80\xa2 Barbwire \xe2\x80\xa2 Butterfly \xe2\x80\xa2 Celebrities \xe2\x80\xa2 Celtic knot \xe2\x80\xa2 Cross \xe2\x80\xa2 Crown \xe2\x80\xa2 Dolphin \xe2\x80\xa2 Dragon \xe2\x80\xa2 Eagle \xe2\x80\xa2 Falcon \xe2\x80\xa2 Fire \xe2\x80\xa2 Harley Davidson \xe2\x80\xa2 Heart \xe2\x80\xa2 Love \xe2\x80\xa2 Lower back \xe2\x80\xa2 Rose \xe2\x80\xa2 Scorpion \xe2\x80\xa2 Skull \xe2\x80\xa2 Snake \xe2\x80\xa2 Spider \xe2\x80\xa2 etc, etc, etc, etc, etc, etc, etc! Find ANY tattoos you like using the magic powers of the bing search. Billions of tattoos in this FREE app for you to ENJOY!'
p4
tp5
tp6
.