((S'Title'
p0
S'HealthTap '
p1
tp2
(S'Description:'
p3
S'HealthTap gives you answers and tips from 38,000 U.S. doctors. No waiting room. Free!\xe2\x98\x85\xe2\x98\x85\xe2\x98\x85\xe2\x98\x85\xe2\x98\x85 "HealthTap is the best and fastest way to quickly get great answers and very useful tips from reputable doctor anytime, anywhere. And astonishingly it\xe2\x80\x99s all free!"\xe2\x98\x85\xe2\x98\x85\xe2\x98\x85\xe2\x98\x85\xe2\x98\x85 "Best application ever. Amazing to see top doctors volunteer their valuable time and expertise to give free useful tips on both medical and wellness topics. Huge thanks to these tens of thousands of super bright big hearted docs!"\xe2\x98\x85\xe2\x98\x85\xe2\x98\x85\xe2\x98\x85\xe2\x98\x85 "Social media at its best @healthtap 3 answers in 3 minutes from 3 doctors\xe2\x80\xa6"\xe2\x98\x85\xe2\x98\x85\xe2\x98\x85\xe2\x98\x85\xe2\x98\x85 "This was by far the best answer I\xe2\x80\x99ve ever received for a very simple reason \xe2\x80\x93 it literally saved my life! HealthTap is the one app you *must* have on your mobile device \xe2\x80\x93 just-in-case!"...And we\'ve received over 4,500 notes from users thanking us for saving their lives!HealthTap was selected as a Top 10 health app on CBS, CNN and ABC and featured in numerous publications such as the New York Times, Wall Street Journal, NBC, TIME, the Financial Times, the Washington Post, Forbes, Bloomberg, and more.Sign up today and get free access to HealthTap from any smartphone, tablet, or computer.\xe2\x96\x8cWHAT THE PRESS IS SAYING:\xe2\x98\x86 Wall Street Journal \xe2\x80\x94 \xe2\x80\x9c...Our favorite...the quickest results, was the simplest to use. Helpful advice.\xe2\x80\x9d\xe2\x98\x86 NY Times \xe2\x80\x94 \xe2\x80\x9cHealthTap just might make you raise both eyebrows in surprise.\xe2\x80\x9d\xe2\x98\x86 CNN \xe2\x80\x94 \xe2\x80\x9cUse the app to choose a specific resolution and work with a doctor to achieve it\xe2\x80\x9d\xe2\x98\x86 Financial Times \xe2\x80\x94 \xe2\x80\x9cAs easy as booking a flight online or comparison shopping for a new sofa.\xe2\x80\x9d\xe2\x98\x86 PC Magazine \xe2\x80\x94 \xe2\x80\x9cThe next time you have a medical question...try asking the doctors on HealthTap.\xe2\x80\x9d\xe2\x98\x86 LifeHacker \xe2\x80\x94 \xe2\x80\x9cHealthTap puts a doctor on your smartphone, helps you find a good one to see in person."\xe2\x98\x86 Business Insider: \xe2\x80\x9cThe app that will change everything about healthcare\xe2\x80\x9d\xe2\x96\x8cFEATURES:\xe2\x9c\x93 Get fast, free, trustworthy health answers and healthy tips on any symptom, condition, medication, health concern, or even wellness topics from over 38,000 of the best U.S.-licensed doctors from the comfort of your mobile device.\xe2\x9c\x93 Get useful, beautiful daily healthy tips on a variety of healthy living and health topics written for you by the world\'s best doctors at no cost to you!\xe2\x9c\x93 Access health information that\'s current and vettedwith your own personalized, relevant feed that\'s always up-to-date.\xe2\x9c\x93 Get a free second, third or 10th opinion!with multiple answers from over 38,000 trusted physicians in 128 specialties.\xe2\x9c\x93 Store health information and share privately and securely with doctors of your choice. Easily store and securely and privately share scans, images and other health related documents with the best doctors directly.\xe2\x9c\x93 Find the best doctors for you, and schedule a time to see them in person right from the app! We have more than 1.2 million doctors in the deepest and most comprehensive mobile doctor directory.\xe2\x9c\x93 Try it all for free!!!Recent changes:This update unlocks the full spectrum of doctor knowledge by giving you access to all of the following on your Android smartphone or tablet:\xe2\x9c\x93 Answers \xe2\x80\x94 Quick, personal doctor responses\xe2\x9c\x93 TipTaps \xe2\x80\x94 Bits of doctor wisdom on 100 health topics\xe2\x9c\x93 Posts \xe2\x80\x94 Doctor insights and musings\xe2\x9c\x93 Doc2Doc \xe2\x80\x94 Deep doctor dialogue\xe2\x9c\x93 Updates \xe2\x80\x94 The latest from doctors you follow\xe2\x9c\x93 Publications \xe2\x80\x94  Cutting-edge medical research by doctorsAlso includes various bug fixes and enhancements from user feedback!'
p4
tp5
tp6
.