((S'Title'
p0
S'HEART + LUNG SOUNDS '
p1
tp2
(S'Description:'
p3
S'10 HEART SOUNDS + 10 LUNG SOUNDS FOR YOU STAY TUNED IN AUSCULTATION, AND STILL COMES WITH IMAGES OF AUSCULTATIONS POINTS! IF LIKE A 5 STARS PLEASELANGUAGES: PORTUGUES, ENGLISH, ESPA\xc3\x91OL.'
p4
tp5
tp6
.