((S'Title'
p0
S'Heart Rate Monitor '
p1
tp2
(S'Description:'
p3
S'Heart Rate Monitor is one of its kind application, which helps you to view your heart beat on screen taken from Camera. This app measures your heart beat rate automatically, when you place your index finger on the camera.   User reviewTheresa Brown \xe2\x98\x85\xe2\x98\x85\xe2\x98\x85\xe2\x98\x85\xe2\x98\x85 Very accurateCompared the app on one hand versus a pulse ox machine on the other and just 2 points differencePaul Bevins \xe2\x98\x85\xe2\x98\x85\xe2\x98\x85\xe2\x98\x85\xe2\x98\x85 CoolVery coolFor precise measurements: Sit in a rested position. Keep your finger on the camera and not on the flashlight. Try to keep your finger still and do not shake the device, while taking the measurement. Blood flow should be visible on the screen. It is preferable to use a high end mobile phone with flash light or tablet for accurate measurements. Note:For cameras without flash light, take measurements in a bright environment. Provide ample lighting to pass through your fingers to the Camera. Blood flow should be visible on the Screen and the screen should be red in color.   This app can be used to measure heart beat in front camera available in tablets or in the primary camera of mobile phones/tablets. Blood pressure is normal, when the heart beat is in the normal range provided in the Chart tab.Blood pressure will be above normal, when the heart beat is very much beyond the normal range in the normal condition.Features\xe2\x9c\x94 Automatically detects your heart beat by keeping your index finger on the camera.\xe2\x9c\x94 Save heart rate measured with date and time.\xe2\x9c\x94 View your heart beat on screen taken from Camera\xe2\x9c\x94 Configure alarm to notify you to measure your heart beat and check your health. \xe2\x9c\x94 Heart rate chart provided to identify any abnormalities in health.Keyword:Heart Rate Monitor,Instant Heart Rate Monitor,Heart Beat Monitor,Health and Fitness,Health,Hearts,Health,Fitness,Cardiograph,Quick Heart Rate MonitorMedical,Blood Pressure Monitor,Blood Pressure,Runtastic Heart Rate,Heart Rate Zone,Best,Cardiograph,Runtastic,Heart Rate Calculator,Pulse,Training,Free,Pulse MonitorRecent changes:Version 2.9.3\xe2\x9c\x94 Pulse Graphics\xe2\x9c\x94 Pulse Details view on screen\xe2\x9c\x94 Fixed xlarge devices\xe2\x9c\x94 Tab icon set front page.\xe2\x9c\x94 Default Notification disabled.\xe2\x9c\x94 Resolved width height issues sony and other devices\xe2\x9c\x94 Removed noise pulse\xe2\x9c\x94 Supported more devices \xe2\x9c\x94 Accuracy Consistent Reading\xe2\x9c\x94 App size Decreased. Current App size is just 596kb.\xe2\x9c\x94 Removed Noisy icon in tab'
p4
tp5
tp6
.