((S'Title'
p0
S'Hemnet '
p1
tp2
(S'Description:'
p3
S'Hemnets nya app ger dig ett helt nya s\xc3\xa4tt att hitta ditt dr\xc3\xb6mboende!Tre utm\xc3\xa4rkande nyheter \xc3\xa4r:1. Rita p\xc3\xa5 kartan - En helt ny funktion d\xc3\xa4r du kan rita ut dina egna s\xc3\xb6komr\xc3\xa5den.2. Hemnet-safari - Leta hus och l\xc3\xa4genheter n\xc3\xa4r du \xc3\xa4r p\xc3\xa5 spr\xc3\xa5ng med hj\xc3\xa4lp av GPS-funktionen.3. Ny s\xc3\xb6kfunktion - Nu med fritexts\xc3\xb6k, fler urvalskriterier och ett nytt nyckelordss\xc3\xb6k.S\xc3\xb6kMed ritfunktionen i Hemnets nya app kan du rita ut ditt eget s\xc3\xb6komr\xc3\xa5de direkt p\xc3\xa5 kartan, utan n\xc3\xa5gon begr\xc3\xa4nsning till kommuner eller stadsdelar. Det \xc3\xa4r m\xc3\xb6jligt att rita ut flera omr\xc3\xa5den och/eller gator.I det nya safari-l\xc3\xa4get ser du med hj\xc3\xa4lp av GPS-funktionen de objekt som \xc3\xa4r till salu d\xc3\xa4r du befinner dig. R\xc3\xb6r dig fritt p\xc3\xa5 kartan och se utbudet av bost\xc3\xa4der.S\xc3\xb6kfunktionen har nu fritexts\xc3\xb6k och en m\xc3\xa4ngd urvalskriterier som till exempel bostadstyp, pris, boarea, tomtarea, tid p\xc3\xa5 Hemnet och visningsdag. S\xc3\xb6ker du efter n\xc3\xa5got specifikt s\xc3\xa5 anv\xc3\xa4nd nyckelordss\xc3\xb6ket!TittaN\xc3\xa4r en s\xc3\xb6kning \xc3\xa4r genomf\xc3\xb6rd kan du enkelt bl\xc3\xa4ddra mellan resultaten och v\xc3\xa4lja alternativ f\xc3\xb6r hur dessa ska visas, som list- eller kartvy.Bl\xc3\xa4ddra bland stora bilder p\xc3\xa5 bostaden, se den p\xc3\xa5 kartan och l\xc3\xa4s den viktigaste informationen direkt i Hemnets app. Vill du ha ytterligare information kan du surfa vidare till den fullst\xc3\xa4ndiga objektsbeskrivningen p\xc3\xa5 m\xc3\xa4klarens sida. I appen kan du \xc3\xa4ven g\xc3\xb6ra en boendekostnadskalkyl p\xc3\xa5 bostaden.SparaDu kan spara dina favoritbost\xc3\xa4der och -s\xc3\xb6kningar till Mitt Hemnet (http://www.hemnet.se/mitt_hemnet) d\xc3\xa5 n\xc3\xa5r du dem \xc3\xa4ven via Hemnet.se (http://www.hemnet.se) Vill du ha bevakning p\xc3\xa5 en eller flera s\xc3\xb6kningar s\xc3\xa5 kan du v\xc3\xa4lja att f\xc3\xa5 e-post n\xc3\xa4r nya objekt kommer ut.DelaTipsa v\xc3\xa4nner och bekanta om bost\xc3\xa4der du gillar eller dela med dig av objektsinformationen. Du kan dela via e-post, sms, Facebook eller Twitter.Via applikationen hittar du \xc3\xa4ven olika tj\xc3\xa4nster som \xc3\xa4r relaterade till k\xc3\xb6p av ny bostad. Resultatet baseras p\xc3\xa5 det omr\xc3\xa5de d\xc3\xa4r du har valt att g\xc3\xb6ra din s\xc3\xb6kning.Ladda ner Hemnets app helt kostnadsfritt och hitta ditt dr\xc3\xb6mboende!Recent changes:- L\xc3\xb6st flera buggar som gjorde att appen kraschade- Nya flaggor f\xc3\xb6r Exekutiv Auktion och Borrtagen innan visning- Flaggor visas nu p\xc3\xa5 kartannotationer- F\xc3\xb6rb\xc3\xa4ttrad prestanda'
p4
tp5
tp6
.