((S'Title'
p0
S'HeyWire FREE Texting '
p1
tp2
(S'Description:'
p3
S'Text for FREE.  Really Free!We give you a real US number for free, that can text ANY number.  The person you are texting DOES NOT need to have HeyWire, you can text them directly to their normal phone.  Free Texting (Real SMS) & Picture Messaging in the USA and to 45 Countries from a real U.S. phone number, Worldwide Smartphone Messenger, Twitter, Facebook Chat + More... Fastest and highest rated text app!Text, Tweet & Chat like Crazy \xe2\x80\x93 One Simple App!  TEXT FROM THE WEB!!!Just go to www.heywire.com and login with your HeyWire number. \xe2\x80\x9cHigher star ratings than Textplus, TextFree, Twitter, Skype, Google Disco, Beluga, eBuddy, Yahoo messenger, Aim, TextME or Facebook.  Works on your tablet device unlike WhatsApp, MSN & Kik messenger!\xe2\x80\x9dFREE TEXTING (REAL SMS) & PICTURE MESSAGING\xe2\x98\x85 Send Text and Pics to all mobile phones in USA, Canada & most any mobile phone in Mexico, South/Central America & Caribbean\xe2\x98\x85 Real U.S. Phone Number included\xe2\x98\x85 Use it to reach friends with ANY SMS-capable phones\xe2\x98\x85 Friends don\xe2\x80\x99t need the HeyWire App to reply\xe2\x98\x85 Perfect travel companion to avoid costly texting\xe2\x98\x85 Voice-to-Text Message Creation if your Android device supports it\xe2\x98\x85 Fastest & most reliable Picture & Text MessagingSend real text and picture messages to friends on any phone in these countries: United States, Canada, Mexico, Brazil, Chile, Argentina, Peru, Puerto Rico, Jamaica, St. Kitts and Nevis, Trinidad and Tobago, Dominica, St. Lucia, Sint Maarten, Northern Mariana Islands, Monserrat, Turks and Caicos Islands, Grenada, Bermuda, Cayman Islands, United States Virgin Islands (USVI), British Virgin Islands (BVI), Antigua, Barbuda, Anguilla, Barbados, The Bahamas, Aruba, Curacao, Bonaire, Uruguay, Suriname, Paraguay, Ecuador, Guyana, Bolivia, Panama, Costa Rica, Nicaragua, Honduras, El Salvador, Guatemala, Belize, Venezuela, ColombiaHEYWIRE-TO-HEYWIRE SMARTPHONE MESSENGER+ Send text and picture messages worldwide when you    and your friends are on HeyWire+ Cross Platform: Android, iPhone, iPod Touch + iPad!+ Text in any language to friends using Heywire-AT&T-VerizonFACEBOOK CHAT See your Facebook Online Buddies and start chatting with your friends now!TWEETNOW: TWITTER-VIA-SMS WORLDWIDEThe first + only Global Text-to-Twitter Service with Tweet Notifications! In your HeyWire app, just tap \xe2\x80\x98TweetNow\xe2\x80\x99 and Text START GROUP MESSAGING Message up to 10 friends at once via SMS &Facebook Chat. Extend your message reach to friends on Twitter by adding 40404. Responses from friends remain personal! SMARTSMS - TXT AUTO-RESPONSE SmartSMS replies to texts when you can\xe2\x80\x99t! +++++++++++++ THE PRESS LOVES HEYWIRE! HeyWire makes it to the \xe2\x80\x9cDownload Immediately\xe2\x80\x9d List. CNET.com +++++++++++++ IS IT REALLY FREE? YES! Texting from a real phone number costs us real money so by placing a small ad within the app, we keep your messages flying around the world for FREE. HeyWire does use data, so make sure you have a data plan or use Wifi where available. For your friends who aren\xe2\x80\x99t on HeyWire, standard text messaging rates apply to text a U.S. Phone Number (nothing extra).HEYWIRE COMMUNITY Friend us: www.facebook.com/goheywire Follow us: www.twitter.com/goheywire Watch us: www.youtube.com/goheywire Need Help?: http://help.heywire.com Love HeyWire? Please rate us a 5 star in the Android Market!Thanks for downloading + giving us a try! Go HeyWire! We just released our new Content Messenger app called BNDWGN, give it a shot to follow all the things you are passionate about!  Thank you Team HeyWireRecent changes:We updated our Google notification services and it might take a minute when you first launch this new version.'
p4
tp5
tp6
.