((S'Title'
p0
S'Hi5 - Meet New People '
p1
tp2
(S'Description:'
p3
S'Want to meet interesting new people? Join hi5  today and meet new friends. With more than 300 million members in 220 countries, millions of new friendships are formed on hi5 every day.Download the hi5 Android app to:-Check your \xe2\x80\x9cMeet Me\xe2\x80\x9d feed-Browse friends and new people-Chat with people nearby or around the world-Play popular meeting game \xe2\x80\x9cPets\xe2\x80\x9dSign up today!Need help? Email androidsupport@hi5.com or visit http://contact.tagged.com/ics/support/ticketnewwizard.asp?style=classic.Recent changes:+ Several Pets bug fixes'
p4
tp5
tp6
.