((S'Title'
p0
S'Hide My Calls/Text- Baseball '
p1
tp2
(S'Description:'
p3
S'*Hide text messages/SMS messages for 5 contacts*Hide call logs for 5 contacts*Block text messages/SMS and Block calls *Decoy Icon, with 2 other Baseball decoy icon choices*Change Status bar icon and descriptions*Requires a password to get into the app for privacy*You MUST read directions at download!!!!*Export messages to secured location *Choose your own text message thread colors*Baseball game icon, baseball decoy screens and status bar notification*See failed attempts to get into app in the \xe2\x80\x9cLog File\xe2\x80\x9d*Change contacts/password/home screen shortcut anytime*Looks like a Baseball game app with subscription problems/errors*For \xe2\x80\x9cUnlimited\xe2\x80\x9d contacts see our \xe2\x80\x9cFull Version\xe2\x80\x9dHave you ever wanted to keep your text messages and your call logs private?  Would you like to block text messages or block calls from someone?  Would you like to be able to secure text messages from anyone and everyone with a password protected decoy app?  Are you just into Baseball and want a text messaging app with a cool theme? Well, here\xe2\x80\x99s your answer!Hide texts messages for 5 contacts safely with a password protected \xe2\x80\x9cBaseball App.\xe2\x80\x9d Once you download this app it will place a \xe2\x80\x9cBaseball\xe2\x80\x9d icon in your app drawer (called \xe2\x80\x9cBaseball\xe2\x80\x9d). The app appears to have errors to anyone else that looks at it. Text messages from selected contacts will be in this app only and will not be put in your \xe2\x80\x9cregular\xe2\x80\x9d text messages. Text messages in our app are completely separate and secure. When text messages are received, you get a notification in the status bar that says, \xe2\x80\x9cSubscription notice,\xe2\x80\x9d which goes with the baseball game theme of the app having a \xe2\x80\x9csubscription error.\xe2\x80\x9d Only you will know it\xe2\x80\x99s a text message notification. You can switch contacts when needed.  Don\xe2\x80\x99t worry - once the number is deleted or switched it will not put prior hidden text messages in your \xe2\x80\x9cregular\xe2\x80\x9d text messaging box.  Does not transfer existing text messages \xe2\x80\x93 the two areas are completely separate!  Does not support MMS\xe2\x80\xa6The hide call log feature allows you to add the contact and all incoming, outgoing and missed calls will be deleted from your regular call logs.  You must place the outgoing call from inside the app and you have the choice of saving your call logs inside the app!!!The Block text messaging feature will allow you to block incoming text messages. You have the option to save the blocked text messages so you can read them after you \xe2\x80\x9cunblock\xe2\x80\x9d the contact. Or we can discard the text messages as they come in. You can still send text messages to the contact while they are blocked. We have added the \xe2\x80\x9cCall Blocker\xe2\x80\x9d feature for that contact that is really a pain.  We also give you the choice to save the call log for these blocked calls or we can discard them as they come in for you.The decoy app does not remove or change your \xe2\x80\x9cregular\xe2\x80\x9d SMS icon in the app drawer. This is not a \xe2\x80\x9cBaseball\xe2\x80\x9d application or game! It is a decoy baseball application that allows you to hide or block your text messages with password protection.Features:*Hide SMS messages / block SMS messages from 5 contacts*Hide incoming/outgoing phone call logs for 5 contact *Select from your contact list or put in other contacts*Choose your own SMS color theme*Three icon options to put on your home screen *Change Status bar notifications and descriptions*Block unwanted text messages from selected contacts*Block Calls from a contact*Ability to set your notification options*Looks like a baseball game app that requires a subscription password*Logs failed attempts to get into the app, just in case you were wondering*Displays in your \xe2\x80\x9cApplications\xe2\x80\x9d list as \xe2\x80\x9cBaseball\xe2\x80\x9dRecent changes:NEW: auto-logoff options, resend messages!Recent: statusbar notification does nothing option, faster loading of long message threads, new menu button, export, custom statusbar notifications, "Wipe" feature, send/delivery confirmation, detects faulty SMS apps! Text/call blocking. Messaging color themes. Supports international numbers. Have some fun with it!Please contact us before you leave negative feedback or uninstall! (support@secondphoneapps.com) www.secondphoneapps.com'
p4
tp5
tp6
.