((S'Title'
p0
S'[High Quality]silent camera2 '
p1
tp2
(S'Description:'
p3
S'You please accept the latest version.Well that was when suddenly jammed App?- Please reboot ~Human silent cameraWhen you are using the silent applicationsYou can often see the visible screen and the screen is stored to another.(Photo gland, photo spread)Security have focused on the benefits of human silent camera(Rear front of the camera in order to optimize the size may vary)----- Feature -------- Rear Camera- Torrent- Light- Focus- Basic Shooting- Chapter 10, Chapter 5 Speakers- Timer 3 seconds, 5 seconds, 10 secondsPreview on off support- Gallery- KeywordsRecent changes:1.0.9- Galax 2 Torrent is1.0.8- Media scanner on off addGalax Torrent andoedeon ~Galax 2, because the sense of beat alignment (.. -; likely huibakham Hae - Young favor you should andoemyeon is when the review I must buy two Galax andoemyeon\xc2\xa0OTL OMG Oh my god)1.0.7- Some devices Torrent problem (TEST)- That may not resolve ...'
p4
tp5
tp6
.