((S'Title'
p0
S'hike '
p1
tp2
(S'Description:'
p3
S'Fun, free messaging for life. With hike, messaging has never been simpler.hike is a new messenger that lets you send free messages to your friends and family! With hike you can message friends that are on hike and also those who aren\'t on hike too! You\'ll never have to use another messaging app again. Better yet, its absolutely FREE!hike uses your 2G, 3G or WiFi (when available) to message with friends and family.WHY USE HIKE:\xe2\x98\x85 STATUS UPDATES & MOODS: You can now share status updates with your closest friends. With over 20 amazingly cute moods available, posting status updates have never been this much fun.\xe2\x98\x85 CIRCLE OF FRIENDS (formerly Favorites): Your status updates are shared only amongst your circle of friends. You can safely post fun, embarrassing updates knowing that your parents or boss will not see them :)\xe2\x98\x85 RECENT UPDATES: A central hub to view updates from your entire Circle of Friends\xe2\x98\x85 CHAT FOR FREE: Once you download the application, you can chat with any of your friends for free. Hike to hike messaging is free, always, worldwide.\xe2\x98\x85 FREE SMS INVITATION: Invite anyone & everyone via SMS for FREE.\xe2\x98\x85 GROUP CHAT: Create a group chat with friends and family on hike and also with those who aren\'t on hike via Free hike SMS. All in one group!\xe2\x98\x85 SHARE PHOTOS, VIDEOS: You can send photos, videos and much more to friends on hike!\xe2\x98\x85 SHARE LOCATION & CONTACTS: Share contacts and your location with friends.\xe2\x98\x85 FAST, SIMPLE, PERSONAL: hike is super fast. With sent, delivered, read and typing notifications, it feels like you\'re having a chat with someone in person.\xe2\x98\x85 NO USERNAME & PINS: \xc2\xa0Just like SMS, hike works with your phone number and integrates flawlessly with your existing phone address book. Its that simple.\xe2\x98\x85 ALWAYS ON: hike is ALWAYS ON. There no more confusion about logging in and logging out. With hike you\'re ALWAYS CONNECTED.\xe2\x98\x85 AS OPEN AS SMS: With hike you never need to add "buddies". Your Address Book is used to automatically connect you with your friends and family. You can message all your friends, even those who aren\xe2\x80\x99t on hike,\xe2\x98\x85 EMOTICONS: We did say it was \'Fun, free messaging for life\'. hike has some awesome emoticons that you can share with friends. You\'ve never seen more emotional and funnier emoticons!\xe2\x98\x85 FREE HIKE2SMS TO INDIA : We\'ve also built in FREE hike to non-hike SMS. So if your friends aren\'t on hike you can still message them. And better yet, for free! Free SMS can only be sent to India.\xe2\x98\x85 OFFLINE MESSAGES: Just in case your phones off, hike saves your messages offline until you turn your phone on again\xe2\x98\x85 128-bit SSL ENCRYPTION: Messages on hike are now encrypted over Wi-Fi\xe2\x98\x85 MOVE TO SD CARD: The app can now be stored on the SD Card!*** PIN Issues: Please contact support@hike.in for any PIN related queries. We\'ll get back to you within the hour! ***\xe2\x80\xa8We\xe2\x80\x99d love to hear from you about hike If you have any feedback, questions concerns, please email us at:support@hike.inor follow us on twitter:http://twitter.com/hikeapp\xe2\x80\xa8@hikeappor facebook:http://facebook.com/hikeappRecent changes:\xe2\x98\x85 Fixed the crash occurring in devices running Android 2.2\xe2\x98\x85 Links in Status Updates are now clickable\xe2\x98\x85 Lots of improvements under the hood'
p4
tp5
tp6
.