((S'Title'
p0
S'Hill Climb Racing '
p1
tp2
(S'Description:'
p3
S'One of the most addictive and entertaining physics based driving game ever made for Android! And it\'s free!Meet Newton Bill, the young aspiring uphill racer. He is about to embark on a journey that takes him to where no ride has ever been before. With little respect to the laws of physics, Newton Bill will not rest until he has conquered the highest hills up on the moon!Face the challenges of six unique hill climbing environments with 3 different cars. Gain bonuses from daring tricks and collect coins to upgrade your car and reach even higher distances. Watch out though - Bill\'s stout neck is not what it used to be when he was a kid! And his good ol\' gasoline crematorium will easily run out of fuel.Features: - 10 different vehicles with unique upgrades (many different vehicles: bike, truck, jeep, tank etc) - Upgradeable parts include engine, suspension, tires and 4WD - 11 stages with levels to reach in each (Countryside, Desert, Arctic and the Moon! +++) - Share your score with a screenshot with your friends! - Cool graphics and smooth physics simulation - Designed to look good on low resolution and high resolution devices (incl. tablets) - Real turbo sound when you upgrade your engine!Like us at Facebook and stay tuned with all new games and updates: http://www.facebook.com/FingersoftWe\'d appreciate if you\'d report any issues you\'re having with the game to support@fingersoft.net, please include your device make and model.Recent changes:1.8.1: Display now turns of if game is left running unplayed without pressing the power button1.8.0:- 2 New vehicles: Super diesel 4x4 and a 6-wheeler truck!- Fixed forest level lagging when you get far- Added "Watch video" as an alternative method to free coins menu1.7.0:- New level: Mountain- Increased max engine level for Tank and Snow Mobile- Other minor tunes1.6.2:- Minor bug fixes1.6.1:- Fixed tree / ice sound playing even when sound was disabled in new levels'
p4
tp5
tp6
.