((S'Title'
p0
S'History Eraser '
p1
tp2
(S'Description:'
p3
S'It\'s a history eraser for android device, and it can clean history of apps by only one tap. It\'s similar to the "ccleaner" on PC. It can help you to protect your privacy, and it can also help you to free up the internal storage. No root premission required! Feature:\xe2\x98\x85Clear Browser History\xe2\x98\x85Clear Call Log\xe2\x98\x85Clear text messages\xe2\x98\x85Clear Market Search History (including new android market history of v3.0.26+)\xe2\x98\x85Clear Google Map Search History\xe2\x98\x85Clear Gmail Search History\xe2\x98\x85Clear Clipboard Data\xe2\x98\x85Clear Youtube Search History (assist)\xe2\x98\x85Clear Google Search History(Android >= 1.6) (assistance)\xe2\x98\x85Clear all app cache files\xe2\x98\x85Clear Frequently Called (Frequently Contacted)Feel free to send feedback to us other than 1 star!!If forceclose happens, please use our another app named \'App Cache Cleaner\' to do a clean-all action, and then open History Eraser again#How to clean your Google Map historyIf your Google Map history still comes out after clean, please visit http://www.google.com/history to disable the history records for your Google account.***************************INFOLIFE, Make Life Easier!***************************----version 2.5.5 changes:1.add sms clear options to one touch clear listnow we can seperately del 4 kinds of thread,including:a) Sent SMS/MMSb) Received SMS/MMSc) Failed SMS/MMSd) SMS/MMS DraftBy using setting menu, you can alse choose not to del sms/mms when screen off or you can choose not to delete locked/protected sms/mms----version 2.5 changes:1.add auto clear and preference settingyou can have schedule clear by menu-> setting -> select Clear When Screen Off.It will auto execute your last clear operation when screen off.you can also set notification bar icon here and turn on phone rom memory statistics display.2.add frequently called (Frequently Contacted) clearsome devices have a frequently called list in favorites tab.now the delete operation of this list  is available.3.add phone memory status showingshow your phone rom memory statistics.you can see how much memory freed after clear.4.use new text message deletion and move this function to menu optionstxt message deletion option moved to menu,you can delete all of your sms/mms by menu-> Del All SMS/MMS,Be ware that ALL of your text message will be deleted even if they are locked!5.add option to show notification baryou can show notification bar to have a quick switch.to enable this:menu->Setting->check Notification Bar Icon.6.adjust item display order.move clear all apps cache function to the top of the list.***Features under development***1,contacts history or sms history in motorola phones:Motorola doesn\'t share their communication logs with other apps,I am still working on it to figure out a way to clear this history.To help us translate thiss app to your native language, please sign up in http://crowdin.net/project/history-eraserthank you very muchRecent changes:#4.4.3.0trivial bug fixes#4.4.3trivial bug fixes#v4.4.21. improve user experience of widget2. add localization of Czech3. fix a bug of translation setting#v4.4.1fix a little bug of ui#v4.4android 4.0 style UI#v4.3fix a few bugs#v4.2fix cache cleaner for android 4.2#v4.1.1fixed a fc bug caused by banner'
p4
tp5
tp6
.