((S'Title'
p0
S'Hola Accelerator & Unblocker '
p1
tp2
(S'Description:'
p3
S'\xe2\x98\x85 \xe2\x98\x85 \xe2\x98\x85 \xe2\x98\x85 \xe2\x98\x85 "It\'s freaking fast.. I never had such a fast Internet browsing experience on mobile network till now!!"\xe2\x98\x85 \xe2\x98\x85 \xe2\x98\x85 \xe2\x98\x85 \xe2\x98\x85 "Thank you Hola! Keep unblocking these sites."\xe2\x98\x85 \xe2\x98\x85 \xe2\x98\x85 \xe2\x98\x85 \xe2\x98\x85 "I love Hola for being there when my buffering is slow! Great app!!"Welcome to a Better Internet!Hola Accelerates your Internet connection and saves you data, and Unblocks websites and apps not available in your country. With Hola you get:\xe2\x80\xa2 Faster Internet: quicker surfing and downloads!\xe2\x80\xa2 Smoother Video: Less buffering, watch HD smoothly!\xe2\x80\xa2 Reduced data costs: Hola caching saves data usage by 20-30% over time!\xe2\x80\xa2\xc2\xa0Unblocked sites: Access sites and apps censored in your country!New Hola scripting language for power users! Create rules for Hola Unblocker to access any site or app you want, and share with anyone! https://github.com/hola/hscriptHola is completely free and ad-free. NOTE: Android 2.3 devices must be Root to run Hola!Like Hola? Give us a 5-star review, tell your friends and post on http://www.facebook.com/HolaBetterInternet BUG? Please DON\'T post bugs in your review, but click Feedback > Bug report inside the app, or email us help@hola.org. We fix and update Hola very often so select \'Allow automatic updating\' to stay up to date.Known issues:Android 2.3: ROOTING REQUIRED on Android versions below 4.0! see http://hola.org/android_rooting.htmlAndroid 4.0+: Certain Android 4.0+ devices do not support VPN Auto-config (non-rooted devices only) see http://hola.org/faq.html#an_platformsAndroid devices using ARM6 or Intel Atom processors: We\'re working on full support for these CPUsWhat is Hola?\xe2\x80\xa2 Peer to peer Internet Accelerator\xe2\x80\xa2 Compression of about 70% of HTTP: reduces 3G data costs, and speeds up web pages\xe2\x80\xa2 URL Caching: reduces 3G data costs, and speeds up web pages\xe2\x80\xa2 Chooses the closest and fastest P2P sources\xe2\x80\xa2 Unblocks web sites\xe2\x80\xa2 More info at http://hola.org/faq.html\xe2\x80\xa2\xc2\xa0Get Hola for Windows http://hola.orgKW: browsing accelerator acceleration network speed fast boost booster download speedtest slow proxy private vpn manager manage hspa 4g 3g 2g operator carrier roaming battery caching networking networks browse surf compression wifi wireless unblock block censor censored script hscriptRecent changes:Make your Internet faster, save data and access blocked sites with Hola Internet Accelerator and Unblocker, free!New Hola scripting language for power users! Create rules for Hola Unblocker to access any site or app you want, and share with anyone! https://github.com/hola/hscriptNew in v1.1.22:\xe2\x80\xa2 Fixed Hola not saving cache after restarting the Android device\xe2\x80\xa2 Fixed java crash in screen transitionsVersion history: http://hola.org/changelog.html'
p4
tp5
tp6
.