((S'Title'
p0
S'Home Remedies (Lite) '
p1
tp2
(S'Description:'
p3
S'\xe2\x98\x85 #1 FREE APP for Home Remedies in Google Play \xe2\x98\x85This is a Lite version of Home Remedies app, it takes less memory on your phone. If you want advanced version with more features then please use Home Remedies (Plus)https://play.google.com/store/apps/details?id=com.hrfy.plusComplete guide to Home Remedies and Natural Cures for Common Ailments.Do you want home remedies for any other ailment? Just write us!http://homeremediesforyou.com/feedbackNatural home remedies are safe and useful for the common ailments. Most of the non life threatening illness can be treated at home. Learn how you can use natural cures to replace many of the most commonly used over-the-counter drugs in the treatment of common ailments. If you use home remedies wisely, it will save your time and money. Hope this app helps you to find your own path of healing through natural remedies. Benefits of Home Remedies- Made up from herbs, spices, fruits, and vegetables- Simple to prepare, pure and no side effects on body- Can cure 100\'s of ailments, like Acne, Hair loss, Backache- Effective to boost your child\'s immunity- Help to recover fast in seniors- Inexpensive and joy of self cure"Let your food be your medicine, and your medicine be your food." - Hippocrates Feedback:http://homeremediesforyou.com/feedbackList of ailments in app: \xe2\x80\xa2 Acne\xe2\x80\xa2 Allergies\xe2\x80\xa2 Anemia\xe2\x80\xa2 Angina\xe2\x80\xa2 Arthritis\xe2\x80\xa2 Asthma\xe2\x80\xa2 Athlete\xe2\x80\x99s Foot\xe2\x80\xa2 Backache/Back pain\xe2\x80\xa2 Bad Breath (Halitosis)\xe2\x80\xa2 Baldness\xe2\x80\xa2 Bedwetting (Enuresis)\xe2\x80\xa2 Bites (Insect)\xe2\x80\xa2 Black Eye\xe2\x80\xa2 Blisters\xe2\x80\xa2 Body Odor/Sweating\xe2\x80\xa2 Boils\xe2\x80\xa2 Bruises\xe2\x80\xa2 Burns\xe2\x80\xa2 Canker Sores\xe2\x80\xa2 Chapped/Cracked Lips\xe2\x80\xa2 Chicken Pox\xe2\x80\xa2 Cold Sores\xe2\x80\xa2 Common Cold\xe2\x80\xa2 Conjunctivitis\xe2\x80\xa2 Constipation\xe2\x80\xa2 Corns and Calluses\xe2\x80\xa2 Cough \t\xe2\x80\xa2 Dandruff\xe2\x80\xa2 Depression\xe2\x80\xa2 Diabetes\xe2\x80\xa2 Diaper Rash\xe2\x80\xa2 Diarrhea\xe2\x80\xa2 Dry Skin\xe2\x80\xa2 Earache\xe2\x80\xa2 Earwax\xe2\x80\xa2 Eczema\xe2\x80\xa2 Fatigue\xe2\x80\xa2 Fever\xe2\x80\xa2 Flatulence\xe2\x80\xa2 Flu\xe2\x80\xa2 Gingivitis\xe2\x80\xa2 Hair Loss\xe2\x80\xa2 Hangover\xe2\x80\xa2 Hay Fever\xe2\x80\xa2 Headache\xe2\x80\xa2 Heartburn\xe2\x80\xa2 Hemorrhoids (Piles)\xe2\x80\xa2 Hiccups\xe2\x80\xa2 High Blood Cholesterol\xe2\x80\xa2 High Blood Pressure\xe2\x80\xa2 Hives\xe2\x80\xa2 Hoarseness\xe2\x80\xa2 Hypoglycemia\xe2\x80\xa2 Indigestion \t\xe2\x80\xa2 Insomnia\xe2\x80\xa2 Irritable Bowel Syndrome\xe2\x80\xa2 Jet Lag\xe2\x80\xa2 Laryngitis\xe2\x80\xa2 Low Blood Sugar\xe2\x80\xa2 Menstrual Cramps\xe2\x80\xa2 Migraine\xe2\x80\xa2 Morning Sickness\xe2\x80\xa2 Motion Sickness\xe2\x80\xa2 Mouth ulcer\xe2\x80\xa2 Nausea\xe2\x80\xa2 Nosebleed\xe2\x80\xa2 Piles (Hemorrhoids)\xe2\x80\xa2 Premenstrual Syndrome\xe2\x80\xa2 Psoriasis\xe2\x80\xa2 Sinusitis\xe2\x80\xa2 Snoring\xe2\x80\xa2 Sore Throat\xe2\x80\xa2 Stings (Insect)\xe2\x80\xa2 Stress\xe2\x80\xa2 Sunburn\xe2\x80\xa2 Tinnitus\xe2\x80\xa2 Toothache\xe2\x80\xa2 Urticaria\xe2\x80\xa2 Varicose Veins\xe2\x80\xa2 Vomiting\xe2\x80\xa2 Yeast InfectionsDisclaimer: This information is not a substitute for professional medical or health advice, examination, diagnosis, or treatment. This app disclaims any liability for the decisions you make based on this information. For more info, See Disclaimerhttp://homeremediesforyou.com/disclaimerKeywords: self cure, home remedies, natural remedies, natural cures.Recent changes:3.3 Updated Remedies3.2 Updated Remedies3.1 Updated Remedies3.0 Updated Remedies2.9 Added 6 Ailments on user requests2.8 Added more Ailments2.7 Added 5 more Ailments on user requests2.6 Added 15 more Ailments2.5 Added more Ailments2.4 Updated Remedies2.3 Updated Remedies2.2 Updated Remedies2.1 Updated Remedies2.0 Updated Remedies1.4 Added more ailments.1.3 Updated Remedies1.2 Bug fix and optimization.1.1 Added Menu1.0 First version'
p4
tp5
tp6
.