((S'Title'
p0
S'Hong Kong Live Wallpaper '
p1
tp2
(S'Description:'
p3
S'Hong Kong Live Wallpaper shows beautiful scene of city reflection at night. The wallpaper colors at night and reflection on water make it relaxing live wallpaper.If you want specific city reflection live wallpaper, send us the city name.Recent changes:version 1.0.3: bug fixing'
p4
tp5
tp6
.