((S'Title'
p0
S'Hot FM - Muzik Paling Hangat '
p1
tp2
(S'Description:'
p3
S"The Hot FM app is available on the Android Market now; and you can catch us on Android devices.Now you can listen to Hotter than usual music wherever you are and never miss out on any of our shows.Key features-- simple and easy interface- listen to Hot FM live- On demand (Panggilan Hangit, Bestbit, Senduk Fifi, English Education) rewindsA lil' bit on Hot FM - Hot FM is a private radio station in Malaysia owned by Media Prima Berhad. It was launched on February 06, 2006 and targets listeners aged between fifteen and thirty five years old. The music on Hot FM is aired in both Malay and InternationalRecent changes:Minor Bug FixesNew Interactive UITrack Rating"
p4
tp5
tp6
.