((S'Title'
p0
S'Hotmail Live Messenger '
p1
tp2
(S'Description:'
p3
S'Hotmail Live Messenger \xe2\x80\x93 FREE unlimited chatting with all your friends, anytime and anywhere!Hotmail Live Messenger app is FREE, there is no charge for sending and receiving messages!Hotmail Live Messenger \xe2\x80\x93 the best messenger for you on your mobile device!'
p4
tp5
tp6
.