((S'Title'
p0
S'HOT VIDEO '
p1
tp2
(S'Description:'
p3
S"Find the hottest videos on Youtube with a single app!* Grouped by categories* Disable categories that you don't likeRecent changes:Find the hottest videos on Youtube with a single app!* Grouped by categories* Disable categories that you don't like"
p4
tp5
tp6
.