((S'Title'
p0
S'How to draw Dragon ball '
p1
tp2
(S'Description:'
p3
S'How to draw Dragon Ball. is the perfect app to draw your favorite characters from Dragon Ball in a few simple steps.Available Characters for draw:* Goku*Krillin* Big Buu* Vegeta* Kid Buu* Goku sayan* Cell* GohanVIDEOTUTORIAL:*Mutenroshi*Videl*Android 18*super ghost gotenksRecent changes:* Fixed some bugs* New Characters in Video tutorial: Roshi, Super Ghost, Videl, Android 18* Fixed size Big Buu is now expanded'
p4
tp5
tp6
.