((S'Title'
p0
S'HP ePrint '
p1
tp2
(S'Description:'
p3
S'The HP ePrint App makes printing from your Android smartphone or tablet easy, whether you are at home, in the office, or on the go (1).Supports all HP ePrint enabled Printers and over 200 HP networkable legacy printer models including HP Officejet, HP LaserJet, HP Photosmart, HP Deskjet and HP Envy.  A full list of supported printers available at the Hewlett-Packard web site.Give it a try!Key Features & Benefits:\xe2\x80\xa2\tPrint from your smartphone or tablet locally over Wi-Fi, virtually anywhere via the Cloud to a web-connected HP ePrint printer, or directly to an HP wireless direct supported printer. [1] \xe2\x80\xa2\tPrint photos, PDFs, web pages, and Microsoft Office documents.\xe2\x80\xa2\tShare and print documents, photos, or content from other Android apps with HP ePrint.\xe2\x80\xa2\tNeed to print while on the go?  Locate and print securely to thousands of HP Public Print Locations worldwide.  Locations such a FedEx Kinkos, UPS stores and many Airport Kiosks and VIP lounges.  Let the app locate and find the closest print location for you. [1] [2] \xe2\x80\xa2\tEnhanced Print Job Control (ie variable photo sizes, number of copies, two-sided printing, etc.)\xe2\x80\xa2\tDedicated photo tray support.  If your printer has a photo tray, it will be automatically selected for photo printing. \xe2\x80\xa2\tAnywhere/Cloud printing:  The HP ePrint app can print to any web-connected HP ePrint printer from virtually anywhere with just a few clicks.Interested in scanning content to your phone? Install our companion app, HP Printer Control!To learn more details about this app and other HP mobile applications:www.hp.com/go/mobile-printing-solutions[1] Printing to an HP web-enabled printer requires an Internet connection and may require HP ePrint account registration (for a list of eligible printers, supported documents and image types and other HP ePrint details, see www.hp.com/go/eprintcenter). Mobile devices require Internet connection and email capability. May require wireless access point. Separately purchased data plans or usage fees may apply. Print times and connection speeds may vary.[2] Usage of HP ePrint app at mobile print locations requires separately purchased wireless internet service. Availability and cost of printing varies by mobile print location. Public Print Location program availability in US, Canada and select European countries.Recent changes:Version 2.1.1\xe2\x80\xa2 Bug fixesVersion 2.1\xe2\x80\xa2 Additional printer support\xe2\x80\xa2 Bug fixesVersion 2.0\xe2\x80\xa2 All new look and feel!\xe2\x80\xa2 Web Page printing support\xe2\x80\xa2 HP Public Print Location printing support'
p4
tp5
tp6
.