((S'Title'
p0
S'HP Printer Control '
p1
tp2
(S'Description:'
p3
S'Create high-quality digital documents with your smartphone, or receive scans directly from your HP All-in-One printer.\xe2\x80\xa2\tCreate high-quality JPEG images or, multi-page PDF documents using the intelligent mobile scanner feature and your device\xe2\x80\x99s camera(2).  \xe2\x80\xa2\tSend scanned documents and photos from your HP All-in-One printer directly to your smartphone or tablet for easy sharing(1)\xe2\x80\xa2\tCheck the status of web-connected printers, including ink and toner cartridge levels(1).\xe2\x80\xa2\tHP ePrint Home & Biz app print documents and photos to your web-connected HP printer or All-in-One.  Download for free.Mobile Device Compatibility: Compatible with Android 2.2 or later phones and tablets and Kindle Fire.  Mobile scanning feature supported by Android devices with 5 megapixels auto-focus cameras. HP Printer Compatibility: Scan to smartphones and tablets on the same wireless network with HP 2010 or later ePrint-enabled All-in-Ones including many HP Deskjet, Envy, Officejet, Officejet Pro All-in-Ones and LaserJet MFP. HP Color LaserJet Pro M1536 SeriesHP Deskjet   3000 Printer J310 Series   3050 All-in-One Printer J610 Series   3050A e-All-in-One Printer J611 series   3050A J611 series   3070A e-All-in-One Printer B611 Series   3510 e-All-in-One Printer series   3520 e-All-in-One Printer series    Ink Advantage 3510 e-All-in-One Printer series   Ink Advantage 3525 e-All-in-One Printer series    Ink Advantage 4625 e-All-in-One Printer   Ink Advantage 5525 e-All-in-One Printer series    Ink Advantage 6525 e-All-in-One Printer series HP ENVY   100 e-All-in-One Printer D410 series   110 e-All-in-One Printer D411 series   120 seriesHP Laserjet  CM1415fn (CM1411fn, CM1412fn, CM1413fn, CM1415fnw, CM1  CP1521n (CP1522n, CP1523n, CP1525nw, CP1526nw, CP1527nw, CP1528nw)  Pro 100 color MFP M175nw (a, b, c, p, q, r, s)  Pro 200 color M251 nw  Pro 200 color MFP M276 nw  Pro 400 color M451dn (nw, dw, 300 color M351a)  Pro 400 color MFP M475dw (dn, 300 color MFP M375nw)  Pro 400 M401 dw  Pro 400 MFP M425 dw  Pro 500 color MFP M570 dw  Pro MFP M521dn & dw  200 colorMFP M275nw (s, t, u)HP Officejet  4500 All-in-One Printer G510 Series  4620 e-All-in-One Printer Series  6100 ePrinter H611 Series  6500 All-in-One Printer E710 Series  6500A e-All-in-One Printer E709 Series  6600 All-in-One Printer Series  6700 Premium All-in-One Printer Series  7500A Wide Format e-All-in-One Printer E910 Series  8600 Premium e-All-in-One Printer N911 Series  Pro 200  Pro 250 MFP   Pro 8100 ePrinter N811 Series   Pro 8500 Printer A909 Series  Pro X401dn Printer  Pro X401dw Printer  Pro X451dn MFP  Pro X451dw MFP  Pro X501dw Printer   Pro X551dw MFPHP Photosmart   5510 e-All-in-One Printer B111 Series   5510 e-All-in-One Printer B111 Series   5510d e-All-in-One Printer B111 Series   5520 e-All-in-One Printer series    6510 e-All-in-One Printer B211 Series   6520 e-All-in-One Printer series    7510 e-All-in-One Printer C311 series   7520 series    eStation C510 series   Ink Advantage e-All-in-One Printer K510 Series   Plus All-in-One Printer B210 series   Premium e-All-in-One Printer C310 Series   Premium Fax e-All-in-One Printer C410 Series   Wireless All-in-One B110 series   Wireless All-in-One Printer D110 seriesFor full list, http://h10025.www1.hp.com/ewfrf/wc/document?docname=c02814760&cc=us&dlc=en&lc=en#N121  Note:1.\tReceiving scans and checking printer status requires mobile device and web-connected printer to be on the same wireless network or through HP wireless direct connection to printer.  Wireless performance is dependent upon physical environment and distance from access point.2.\tRequires 5 megapixels or greater camera with auto-focus capability.Recent changes:App is available in English, Japanese, French, Italian, German, Spanish, Dutch, Simplified Chinese, Traditional Chinese, and Korean.'
p4
tp5
tp6
.