((S'Title'
p0
S'Hubi - Streaming and Download '
p1
tp2
(S'Description:'
p3
S'Hubi is the ultimate Android solution for streaming and downloading your favourite videos from the most popular streaming services. And it\'s free.\xe2\x9c\x93 LATEST UPDATES!--------08/01/2013It seems that Chrome browser doesn\'t allow to choose the way to open links, so the easiest way is to use the "Share" button from the page with the video you want to see.21/11/2012YouTube videos may now only be streamed because of YouTube\'s Terms Of Service (TOS). We are sorry, but we had no choice.--------\xe2\x9c\x93 SUPPORTED SERVICESHubi currently supports these services:\xe2\x98\x86 NowVideo\xe2\x98\x86 PutLocker\xe2\x98\x86 VideoBeer\xe2\x98\x86 Zinwa\xe2\x98\x86 MovShare\xe2\x98\x86 GorillaVid\xe2\x98\x86 DaClips\xe2\x98\x86 MovPod\xe2\x98\x86 SockShare\xe2\x98\x86 MuchShare\xe2\x98\x86 Vureel\xe2\x98\x86 BillionUploads\xe2\x98\x86 NovaMov\xe2\x98\x86 NovaUp\xe2\x98\x86 Zalaa\xe2\x98\x86 Uploadc\xe2\x98\x86 StreamCloud\xe2\x98\x86 VidBull\xe2\x98\x86 YouTube (streaming only)\xe2\x98\x86 VK\xe2\x98\x86 UploadHero\xe2\x98\x86 Ecostream\xe2\x98\x86 FileBox\xe2\x98\x86 FileNuke\xe2\x98\x86 VeeHD\xe2\x98\x86 NosVideO\xe2\x98\x86 VReer\xe2\x98\x86 DivxStage\xe2\x98\x86 allmyvideosForget Mega Stream or LetMeWatchThis! Hubi is here to stay ;)\xe2\x9c\x93 WANT TO GET RID OF THOSE ADS?Just press "Remove ads" from within the application and, for a small charge, you won\'t ever see another ad popping up!\xe2\x9c\x93 FEATURES- >> NO Flash player required! - Download: watch your videos offline, anytime- Clean UI: full Ice Cream Sandwich and Jelly Bean compatibility- Playback: choose your favourite video player (MX Player, VPlayer, MoboPlayer, ..)- Integration: system-wide! Just click on any supported video link to open Hubi- Social: share your favourite video links with your friends- History: keep track of your watched videos- Download Manager: native Android download, always available, *background* download feature included!Rate and let us know your feedback! Enjoy ;)Please note that the video content which can be played with Hubi is not owned by MegaDevs but it belongs to external services (the hosters), to which this application is not affiliated by any means. Hubi does not host any of the video content, neither it provides search functions or video link directories. Any copyright infringement is to be imputed to users only.Recent changes:v0.46 - IMPORTANT UPDATE!- Improved Download Manager- Fixed compatibility with smartkey devices and some tablets (LiquidTV, Mediacom, Rikomagic, Logitech, etc)v0.45- Fixed FileNuke- Fixed EcoStreamv0.44- Fixed YouTube, EcoStream, Vk.com- Fixed share from other apps (Chrome, etc)v0.40- Fix crash on Gingerbreadv0.39- Fixed EcoStream- Minor bug fixingv0.38- Fixed allmyvideos- Improved wrong link detectionv0.36- Minor fixes to Vk.com, Zinwa, AllMyVideos, VReel'
p4
tp5
tp6
.