((S'Title'
p0
S"Hungry Jack's "
p1
tp2
(S'Description:'
p3
S'Everyone\xe2\x80\x99s a winner with the new Hungry Jack\'s app. You just have to \xe2\x80\x98Check-in\xe2\x80\x99 at any Hungry Jack\xe2\x80\x99s\xc2\xae store and shake your phone to win. You can\xe2\x80\x99t lose \xe2\x80\x93 every shake is a winner! Prizes range from a free soft serve all the way up our legendary Whopper\xc2\xae. The app also includes: \xe2\x86\x92 A handy store locator \xe2\x86\x92 The full Hungry Jack\xe2\x80\x99s\xc2\xae menu \xe2\x86\x92 A useful nutritional calculator Please note: In order to \xe2\x80\x98Check-in and Win\xe2\x80\x99, you will need a Facebook account.We\xe2\x80\x99ve heard you and we\xe2\x80\x99ve taken some time to make improvements to our app. For phones with less memory, we\xe2\x80\x99ve reduced the app in file size. Devices with smaller screens, now have a scrolling option.Our store information has also been updated, so any new stores we\xe2\x80\x99ve opened recently should be available for check-in.If you\xe2\x80\x99re having problems checking into a store, a helpful prompt will now help you troubleshoot.   If you have any further feedback please see below.Trouble Shooting Tips1. App crashing? Or stalling? Apps require a certain size memory to run, our app is 9.6MB, so\xc2\xa0check your phone has sufficient memory\xc2\xa0space to let the app function.It\xe2\x80\x99s difficult for us to know why different phones crash, but we recommend closing down the app completely and starting again. If that doesn\xe2\x80\x99t work delete and reinstall the app completely as a last resort before contacting us2. No Prizes left?We monitor the prize pool weekly to make sure there are plenty to go around.  On occasion though, there has been so much shaking going on we haven\xe2\x80\x99t been able to top it up fast enough.   Rest assured we want everyone to win, so it will be3. Can\xe2\x80\x99t check-in? Store not being detected?There can be several reasons for thisCheck the GPS function on your phone is turned on, if it is you may need to carry out a GPS fix.\xc2\xa0 It may be called "Cell Network Location"\xc2\xa0on your phone so look out for this too.The strength of your GPS signal will also depend upon the network you use and quality of your 3G.\xc2\xa0 If you have had problems in the past with loading time and maps, it\xe2\x80\x99s likely it will be due to your connectivity.\xc2\xa0 Sorry we can\xe2\x80\x99t do anything to fix thisIf it\xe2\x80\x99s a new store your trying to check into it can take a few weeks for this store to be live on the app, so we\xe2\x80\x99ll have to ask for your patience here.We thank you for your continued support and if you are still having problems that can\xe2\x80\x99t be solved with the Trouble Shooting section, please let us know by clicking the \xe2\x80\x9cEmail Developer\xe2\x80\x9d button below that will send an email to feedback@hungryjacks.com.auTo help us try and get to the bottom of your issue, supply us with all the following information, please be as detailed as you can Use the following for the subject line of your email: Hungry Jack\xe2\x80\x99s App IssuePhone Model:Detailed description of your problem:Screen grabs of what is happening:Store Name & location if your issue is GPS related: This will help us try and replicate what you are experiencing.\xc2\xa0 We will take a look at your submission and see how we can help.\xc2\xa0 On occasion it might not be possible for us to recreate your issue.\xc2\xa0 In this instance we will keep an eye out for similar feedback that might help us help you.We thank you for your continued support and feedbackHungry Jack\xe2\x80\x99s \xc2\xaeTeamRecent changes:Improved location handlingVarious bug fixes'
p4
tp5
tp6
.