((S'Title'
p0
S'iFixit: Repair Manual '
p1
tp2
(S'Description:'
p3
S'iFixit \xe2\x80\x94 the free repair manual! Thousands of step-by-step guides and gorgeous images that make it easy to repair your stuff.\xe2\x97\x8f Included Devices \xe2\x97\x8fRepair manuals show you how to fix:\xe2\x9c\x93 MacBook Repair\xe2\x9c\x93 MacBook Pro Repair\xe2\x9c\x93 PowerBook & iBook Repair\xe2\x9c\x93 iPad Repair\xe2\x9c\x93 iPhone Repair\xe2\x9c\x93 iPod Repair\xe2\x9c\x93 Xbox Repair\xe2\x9c\x93 PlayStation Repair\xe2\x9c\x93 PC Laptop Repair\xe2\x9c\x93 Dozens of digital camera repair manuals\xe2\x9c\x93 Hundreds of cell phone repair manuals\xe2\x9c\x93 Harley Davidson Repair\xe2\x9c\x93 Honda Accord Repair\xe2\x9c\x93 More manuals added every week\xe2\x97\x8f Praise from the Press \xe2\x97\x8f"Empowers you to fix things yourself. From troubleshooting to parts and tools, to repair guides, they have your back." \xe2\x80\x94 TreeHugger"Demonstrates the old-fashioned virtue of repair and extending the lifespan of devices." \xe2\x80\x94 Reuters"The robots of the future will see this and murder us all. Thanks iFixit. Thanks a lot." \xe2\x80\x94 Engadget"Illustrated repair guides that take you step by step through the process." \xe2\x80\x94 Dallas Morning News\xe2\x97\x8f Testimonials \xe2\x97\x8f"You guys rule and have saved me many many times. Thank you!" \xe2\x80\x93 Ralph in North Carolina"I love your repair guides. You\'ve saved me hundreds of dollars over the last few years." \xe2\x80\x93 David in Maryland"Great, clean and easy to navigate."\xe2\x80\x93 Serge in New Brunswick"Shipping time was superb. I will come back to your store the next time I am looking for parts. THANK YOU VERY MUCH!" \xe2\x80\x93 Ramia in Nebraska"Quick and straightforward." \xe2\x80\x93 Owen in New York"The installation went smoothly thanks to your excellent guides. We got my son\'s MacBook Pro running and saved $$$$$." \xe2\x80\x93 Christopher in New Mexico\xe2\x97\x8f Support iFixit \xe2\x97\x8fWe fund these manuals by selling parts and tools. If you use our manual to fix something, support our work by buying the parts from us. We offer thousands of MacBook, iMac, iPod, iPhone, and game console parts.This app is open source! You can improve or fork it here: https://github.com/iFixit/iFixitAndroidRepair your Apple, Nintendo, Microsoft or Sony hardware yourself!Recent changes:== 1.3.1 (3/26/2013)* Fix OutOfMemory exception when viewing large guides on 7in tablets* Fix for guide step text not showing on certain devices* Fixes fist background image not showing on nexus 7 == 1.3 (3/12/2013)* Add custom videos, youtube and vimeo support on steps== 1.2.3 (1/17/2013)* Fix a few bugs in login.== 1.2.2 (12/12/2012)* Small visual update and Login tweaks.== 1.2.1 (10/26/2012)* Make the camera an optional feature'
p4
tp5
tp6
.