((S'Title'
p0
S'I\xc3\xa2\xe2\x82\xac\xe2\x84\xa2m Expecting - Pregnancy App '
p1
tp2
(S'Description:'
p3
S"Keep track of everything that's happening to you and your baby with I\xe2\x80\x99m Expecting! Get prepared for your baby\xe2\x80\x99s birth. Get weekly updates of your baby's growth, track your symptoms and compare them to other pregnant moms to see how common they are, share info with your doctor, add doctor appointments, get answers to your questions and more! Created by the world\xe2\x80\x99s largest online health community, I\xe2\x80\x99m Expecting is the most comprehensive pregnancy companion around! Simply enter your baby\xe2\x80\x99s due date and get started for free today with this pregnancy tracker.Note: This software is intended for informational and educational use only. Please consult your health care provider or doctor for any pregnancy or health concerns.Top Features:- Get weekly updates of your baby\xe2\x80\x99s growth and changes to your body- Track your pregnancy symptoms and see how common they are compared to other pregnant moms- Monitor your weight throughout your pregnancy- Ask questions about your pregnancy and follow others\xe2\x80\x99 questions in our online forums- Keep track of doctor\xe2\x80\x99s appointments, tests and other events- Connect with other moms-to-be who are due at the same time as you and get instant advice and support.- Watch your baby grow with fetal development images developed by medical experts- Add photos of your pregnancy from your camera or library with our baby bump featureFORUMS- Have a question? Want to connect with other moms? Tap in to MedHelp\xe2\x80\x99s community as the largest health social network by asking questions in one of our many diet-related forums and weight-loss related forums.- * Get support and motivation from our huge community of pregnant women and moms just like you *** MOTHER\xe2\x80\x99S DAY SPECIAL. THIS APP IS JUST RIGHT FOR THE OCCASION ***- Don\xe2\x80\x99t forget the pregnant woman and mom-to-be on Mother\xe2\x80\x99s Day! Celebrate the growing and nurturing of our world\xe2\x80\x99s unborn children on Mother\xe2\x80\x99s Day by downloading and installing the I\xe2\x80\x99m Expecting Pregnancy App.- Connect with other moms in our forums and wish one another a Happy Mother\xe2\x80\x99s Day!- You are a mommy already and the Mother\xe2\x80\x99s Day holiday is a special occasion just for you.- If you are a husband or relative, give the I\xe2\x80\x99m Expecting Pregnancy app as a gift and brighten a mother-to-be\xe2\x80\x99s day.USER TESTIMONIALS\xe2\x80\x9cAs a pregnant mom, I kept up to date with my baby! Got up to date health info, nutrition info, ultrasound info, and a lot more. I even sometimes got better information than my nurse or doctor! Made my pregnancy experience much smoother. Listen up prignent mothers, this app is for you\xe2\x80\x9d -- Roxy\xe2\x80\x9cGreat service for pregnant women and their babys! Learned so much about everything from conception to baby info to menstrual cycles to prenatal period to contraction. It provided me a level of reassurance about being pregnot.\xe2\x80\x9d -- Sam\xe2\x80\x9c As the husband of my pregnant wife, I equally found this app useful. This app is not just for pregnaunt women but for men too! We need to be there for them. But I learned more about ovulation, menstrual cycles, and going into labor than I needed to, ha!\xe2\x80\x9d -- PhilipRecent changes:* Bug fixes"
p4
tp5
tp6
.