((S'Title'
p0
S'InstaFitIt! FREE '
p1
tp2
(S'Description:'
p3
S"One of the first app to put on instagram whole photos without cropping. Immediately imitated by a number of developers!And in the PRO version exciting effects and the ability to customize the watermark.This simple application allows you to publish your favorite photos on sites that require square shapes (eg Instagram) without having to cut, without giving up parts of them and without using a PC:Simple as 1, 2 and 3:1: Open your gallery2: select your photos3: share it!It 's all!InstaFitIt! thinks of everything: resizes the image into a square shape, so other applications (like Instagram for e.g.) can receive them with no cuts.You can rotate the image and choose the classic white or black background to enhance the visibility of colors.A complete preference panel allows you to select:1) the resolution of the final image2) the type of image (JPEG or PNG)3) the quality / compression4) the color of the frame default5) the possibility to surround the entire image for an more pleasant resultlimitations in this FREE version:- You may only use background colors standard white or black- Reflection and Shadow functions are only DEMOPRO Version allow you:- add your custom watermark- use your preferred color as background- add exciting reflection or shadow effectsLanguages supported: English, Italian, SpanishCompatible with Android versions 2.3.3 and higher.This app is developed and tested on following devices:- SAMSUNG GALAXY S II (GT-I9100) - Android 2.3.5- SAMSUNG GALAXY S II (GT-I9100) - Android 4.0.1- SAMSUNG GALAXY S III (GT-I9300) - Android 4.1.1- SAMSUNG GALAXY TAB 10.1 (GT-P7500) - Android 3.1- SAMSUNG GALAXY TAB 10.1 (GT-P7500) - Android 4.0.1Reported positive experiences:- HTC Desire S (saga)- HTC Chacha (chacha)- Samsung Galaxy Ace- Samsung Galaxy S2 (SPH-D710)- Samsung Galaxy S Plus (GT-I9001)- Samsung Galaxy W (GT-I8150)- Sony Ericsson LT18i (LT18i)- LGE LG-E739 (e739)- LGE LG Connect 4G (cayman)If you have positive experiences with other devices, please let me know, so I can add more models to the list. Thank you.Write to me even if you have encountered problems: try to solve them. Thank you.If you want to be alerted in real time on the release of updates, follow me on Twitter: @InstaFitIt and Facebook: www.facebook.com/InstaFitItRequest: If you have any problem with my app, before posting a negative review, please contact me and explain the problem: it is possible that this is something that you can fix. Thank you.Tags: square, photos, picture, frames, colors, reflection, shadow, ready, instant, shape, border, share, friends, hashtagRecent changes:Follow us on FaceBook: http://m.facebook.com/InstaFitItFollow us on Twitter: http://twitter.com/InstaFitItTHIS APP REQUIRES AT LEAST OF 1GB OF INTERNAL RAM MEMORY!Main changes in this release:- automatic hashtags- minor bugs fixed"
p4
tp5
tp6
.