((S'Title'
p0
S'Instructables '
p1
tp2
(S'Description:'
p3
S'From useful and entertaining how-tos and hacks, to delicious recipes and outrageous inventions, Instructables is the place to explore, document, and share your creations. With over 100k tutorials in technology, workshop, living, and more, we have the largest collection of do-it-yourself projects created by others just like you.Recent changes:Bug fixes'
p4
tp5
tp6
.