((S'Title'
p0
S'invi Messenger '
p1
tp2
(S'Description:'
p3
S"invi Is a Next Generation Instant Messenger, Making Your Messaging Experience Beautiful, Fast, Fun & Free.No More Tiny Thumbnails And Dull Links. With invi Rich Media Messenger, Enjoy Sharing Photos, Videos and More Right Within Your Messenger Screen, For a Beautiful Seamless Messaging Experience. Download Now To See invi Messenger In Action.\xe2\x9c\x93 Get a Powerful Messenger That's Beautiful, Clean, Fast & FREE\xe2\x9c\x93 Share Video, Photos & More And View Them Right Inside Your Messenger \xe2\x9c\x93 No More Boring Links or Tiny Thumbnails. invi Messenger Converts Any Link To a Beautiful Interactive Preview\xe2\x9c\x93 Enjoy Media Together Inside Your Messenger And Continue Texting As You Watch, Without Leaving The Chat\xe2\x9c\x93 A New Kind Of Inbox - Fill Up Your Messenger With Yours And Your Friends' Cover Photos\xe2\x9c\x93 Free Messaging With Your invi Messenger Friends Using WiFi or Data Plan\xe2\x9c\x93 Share Content From Other Apps like YouTube or Facebook, Directly Into Your Messenger\xe2\x9c\x93 Share Any Media From invi Messenger Into Other Apps Such As Facebook, Pinterest, Instagram and Twitter\xe2\x9c\x93 Emoji? Simply Swipe For Hundreds Of Emoticons\xe2\x9c\x93 No Adsinvi Features:\xe2\x80\xa2 FREE Messaging with invi friends over wifi or data\xe2\x80\xa2 Simple, clean and fast messenger interface.\xe2\x80\xa2 Easy contacts Integration. (Any phone contact with invi messenger installed shows up immediately.)\xe2\x80\xa2 Easy To Invite Friends.\xe2\x80\xa2 An innovative messenger Inbox. \xe2\x80\xa2 Choose your own cover and profile photos or import from Facebook.\xe2\x80\xa2 Send and receive photos, video and more, beautifully integrated in your messenger window.\xe2\x80\xa2 Share photos and videos as fully interactive widgets, view simultaneously, while messaging.\xe2\x80\xa2 Easily Share content to and from other apps.\xe2\x80\xa2 Search for videos, photos and more right from your messenger window, to share with friends.\xe2\x80\xa2 No logging in or out. invi messenger is always on so messages are always received.\xe2\x80\xa2 Select the white or the black theme (saves battery.)\xe2\x80\xa2 Message delivery notifications.\xe2\x80\xa2 Swipe for emoji.\xe2\x80\xa2 No ads. invi is all about an amazing messaging experience. It's 100% FREE.Love invi? A 5 star rating and a nice comment will make us smile :-D \xe2\x98\x85 Follow usinvi messenger is in its early stages and we have exciting plans to share with you & more features to come!  \xe2\x98\x85 Facebook.com/invi\xe2\x98\x85 Twitter.com/inviWe LOVE to hear from you, welcome feedback and are always happy to support you to get the most of invi in any way we can.  Your emails are welcome at support@invi.com.invi will never use or transfer personal information for any purpose other than allowing the proper function of invi on your device. See full documentation of permissions required and why we require them here: http://goo.gl/4GT2J\xe2\x98\x85  Interested in becoming a beta tester? Get invi newest versions before they hit the market, play, explore and report back to us. Sign up here: http://goo.gl/bSGyRRecent changes:v0.8.9.2 beta - Feb 11th, 2013\xe2\x80\xa2\xc2\xa0Added an option to delete a message/preview/photo by long-pressing it.\xe2\x80\xa2\xc2\xa0Fixed call-contact action when long-pressing a chat.\xe2\x80\xa2\xc2\xa0Other bug fixes."
p4
tp5
tp6
.