((S'Title'
p0
S'Italian Dictionary '
p1
tp2
(S'Description:'
p3
S'This free offline Italian dictionary application explains the meaning of 40200 Italian words, based on Italian Wiktionary. This is a monolingual dictionary only in Italian, i.e. words must be entered in Italian.Features:\xe2\x99\xa6 More than 40200 words plus 43500 inflected forms\xe2\x99\xa6 Fast, as it works offline, internet is used only when a word is not found in the offline dictionary\xe2\x99\xa6 You can leaf through words using your finger!\xe2\x99\xa6 Installation on SD card is supported.\xe2\x99\xa6 Bookmarks and history\xe2\x99\xa6 Random search button (shuffle)\xe2\x99\xa6 Integrated with Google Quick Search Box \xe2\x99\xa6 Compatible with Moon+ Reader and FBReader\xe2\x99\xa6 Easy and functional user interfaceYou can listen to the word pronunciation, provided that voice data have been installed in your phone (Text-to-speech engine).Acknowledgements, comments and useful suggestions are welcome.You can improve the Italian dictionary by adding the missing definitions using the site http://it.wiktionary.orgQuestion & Answers: http://goo.gl/UnU7VInformation for application developers:\xe2\x9c\x94 This application provides Dictionary API for 3rd party developers, please read further details: http://thesaurus.altervista.org/dictionary-androidRecent changes:Versione 1.7\xe2\x99\xa6 Aggiunte nuove definizioni dal Wikizionario italianoVersione 1.6\xe2\x99\xa6 trascrizione fonetica IPA (International Phonetic Alphabet)Versione 1.5\xe2\x99\xa6 visualizza formule matematiche e chimicheVersione 1.4\xe2\x99\xa6 parole composte'
p4
tp5
tp6
.