((S'Title'
p0
S'IVONA Amy UK English beta '
p1
tp2
(S'Description:'
p3
S'IVONA - The leader in realistic, natural-sounding & accurate TTS voices for your Android device.No more robotic, sythesized voices. IVONA for Android replaces the synthesized text-to-speech (TTS) voices currently available on your Android device with more natural sounding, accurate & easy-to-understand voices. Select from 13 different languages to find the one best suited for you. Easy to install one or several different voices!IVONA is compatible with many of your favorite Android applications. With IVONA, enjoy:\xe2\x98\x86 Turn-by-turn voice navigation so you can keep your eyes on the road (e.g. Google Maps)\xe2\x98\x86 Have your ebooks naturally read aloud to you (e.g. Moon+ Reader Pro)\xe2\x98\x86 Listen to online content, articles, PDF documents & RSS feeds (e.g. Pocket, ezPDF Reader, gReader)\xe2\x98\x86 Change the voice on your virtual assistant (e.g. Jeannie, iris, Skyvi)Plus:\xe2\x98\x86 Enjoy improved accessibility (e.g. TalkBack built-into Android)\xe2\x98\x86 Increase your productivity (e.g. Driving Mode built-into Android)Key features include:\xe2\x80\xa2 BrightVoice technology provides lifelike, expressive reading of all your text\xe2\x80\xa2 Clear & easy-to-understand sound \xe2\x80\x93 even in noisy environments\xe2\x80\xa2 A rapidly expanding portfolio of award-winning voices available in multiple languages, accents & genders\xe2\x80\xa2 Easy-to-install & use with automatic, free updatesGet started in 4 easy steps:1. Install IVONA Text-to-Speech HQ to your Android device from the Google Play store2. Select & install your preferred language and voice(s) from the Google Play store3. Once downloaded, launch the IVONA app to complete your installation4. Finally, Select IVONA TTS Engine as your default engine by navigating to Android SettingsNow you\xe2\x80\x99re ready to experience world-class IVONA Text-to-Speech & IVONA voices on your favorite text-to-speech enabled Android apps.This Free beta version will work without any limitations till beta tests ends.Contact Us:We want to hear from you. If you have a concern, kindly email us and we will do our best to resolve the issue.  Email:  support.android@ivona.com Browse FAQs:  http://faq.ivona.com/?cat=1\xe2\x8c\xa9=en Visit us:  http://ivona.com Follow us on Twitter:  https://twitter.com/ivonatts Like us on Facebook:  http://www.facebook.com/ivonatts Follow us on Google+:  https://plus.google.com/+ivona/postsLanguages currently supported: English (US) English (UK) English (AU) French German Icelandic Italian Polish Romanian Spanish Spanish (US) Welsh Welsh EnglishRecent changes:* New voice data installer (IVONA HQ update required) * Major bug fixes.'
p4
tp5
tp6
.