((S'Title'
p0
S'JuiceSSH - SSH Client '
p1
tp2
(S'Description:'
p3
S"Features:- Full colour terminal / ssh client- Popup keyboard with all those normally hard to find characters- Use the volume keys to quickly change font size- External keyboard support- Copy & Paste within sessions- Save / Share SSH transcripts to Dropbox/Evernote/Email & SD card - UTF-8 character support- Easily organise your connections by group- Keep multiple SSH sessions running in the background- Seamlessly connect 'via' other SSH connections with one click- Immediate access when you open the app to your frequently used connections- Password & OpenSSH private key support- Support for two-factor authentication (eg: Google Authenticator)- Identities (users/password/keys) are abstracted from connections. Instead of updating every connection when you change your password - just update the identity and any connections linked to it will use the new password/key.- Works out of the box with Ubuntu, RedHat, CentOS, Mint, Gentoo and all other flavours of Linux- zlib compression to improve SSH sessions on high latency connectionsPro Features (optional in-app purchase):- Integrate with Amazon AWS / EC2, synchronise connections and automatically group servers based on their class or security groups.- Securely keep everything in sync between multiple devices- Automated AES-256 encrypted backups of all of your connections and settings- A beautiful widget for fast access to either your frequently used connections, or a specific group (Android 3.0+).- Team collaboration. Share your groups of connections with team members and start working together instead of separately.- Handy snippets library for quick access to your frequently used commands- Dark, Light, Solarized Dark and Solarized Light terminal color themes   For an overview of solarized color scheme and why it rocks for terminal usage check out http://ethanschoonover.com/solarized- Security lock to automatically protect JuiceSSH after a period of inactivityComing Soon:- Remote wipe of ssh profiles activated from our website for stolen/lost devices- Port forwarding- File transfers ( SCP / SFTP )For a detailed overview of this applications permissions and how each one is used in our ssh client please see http://sonelli.com/permissionsRecent changes:1.3.1 - Fixed a rare SSH 'Authentication Cancelled by Server' issue introduced in 1.3.0 - Added line wrapping for long terminal lines and improved tmux/screen wrapping compatibility1.3.0 - Support for two-factor SSH authentication (eg: Google Authenticator) - Support for keyboard-interactive authentication scheme & SSH banners1.2.9 - Support for keys exported from Connectbot (PKCS#8) - Improved external ALT key handling (inc. AltGr for international keyboards)"
p4
tp5
tp6
.