((S'Title'
p0
S'Jump Desktop Free (RDP & VNC) '
p1
tp2
(S'Description:'
p3
S"Leave your laptop behind. Enjoy the freedom to work from anywhere. Jump Desktop Free lets you connect to one computer for free. It's as simple as that: there are no feature restrictions, no ads, no time limits and no recurring fees. Grab the paid version for unlimited computers.Jump Desktop is a powerful remote desktop application that lets you control your computer from your phone or tablet. Compatible with both RDP and VNC, Jump Desktop is secure, reliable and very easy to set up. A streamlined user interface gives you the best possible remote desktop experience on any of your mobile or tablet devices. Easy setup and reliable:Jump Desktop is very easy to configure; anyone can do it! Just visit: http://jumpdesktop.com/go on your PC or Mac and follow step-by-step instructions. You\xe2\x80\x99ll be up and running in no time.Secure and built on open standards:Jump Desktop is a true RDP and VNC client with built-in support for encryption. It lets you connect to your computer using an IP address or hostname, if you already have RDP or VNC configured on it.Powerful features:Unleash the full power of your phone or tablet while connected to your computer. Multitouch ready - pinch-to-zoom and two finger scrolling make controlling your computer easy and productive. Jump's multi-threaded rendering engine has been fine tuned for Android. Jump's VNC and RDP engine is one of the fastest you'll find on Android.If you need help, visit http://support.jumpdesktop.com or email us at: support@jumpdesktop.com Limitations of the free version:- Connect to one computer absolutely free with no feature restrictions. Upgrade to the paid version to get unlimited computers.- Jump Desktop links are currently disabled (http://support.jumpdesktop.com/entries/20866081)Features:\xe2\x9c\x93 Multi-protocol: supports RDP and VNC\xe2\x9c\x93 Multi-touch ready: Pinch-zoom, two finger scrolling, mouse dragging all supported. Even three finger taps are supported to quickly show and hide the keyboard.\xe2\x9c\x93 Easy and secure setup: Automatically configure your PC or Mac for remote access using Wi-Fi and 3G without worrying about your router settings. Set up as many computers as you like and manage them all using your Google account (optional)\xe2\x9c\x93 SSH Tunnel support (new!)\xe2\x9c\x93 The best external keyboard and mouse support on Android: Supports all external keyboard keys and shortcuts. Right mouse clicks supported too with external mice - all natural, PC like!\xe2\x9c\x93 Universal application: Works on tablets and phones - buy it only once and use it on all your Android devices\xe2\x9c\x93 Full support for multitasking: Switch to other apps without disconnecting\xe2\x9c\x93 Supports large custom screen resolution\xe2\x9c\x93 Full mouse support: left and right clicks, dragging, scrolling, precision pointer movementRDP features:\xe2\x9c\x93 Touch redirection support for Windows 8 and Server 2012\xe2\x9c\x93 Tested on: Windows 2000, XP, Vista, Windows 7, Windows 8, Server 2003, Server 2008, Server 2008 R2, Server 2012, SBS Server\xe2\x9c\x93 Secure: 40/56/128bit RDP, TLS/SSL, FIPS and NLA authentication support\xe2\x9c\x93 Supports 8, 16 and 24-bit colors and all RDP performance options\xe2\x9c\x93 Multiple monitor support on Windows 7 and above\xe2\x9c\x93 Console sessions\xe2\x9c\x93 Audio streamingVNC features:\xe2\x9c\x93 Tested with Mac OS X, TightVNC, RealVNC, UltraVNC, Linux (Ubuntu Remote Desktop)\xe2\x9c\x93 Secure: Supports SSL encryption when used with Jump's automatic setup instructions: http://jumpdesktop.com/go\xe2\x9c\x93 8 and 16-bit color\xe2\x9c\x93 OS X Screen Sharing support\xe2\x9c\x93 Multiple monitor support\xe2\x9c\x93 Supported encodings: copyrect, zrle, tight, (zlib)hextile, zlib, rre, raw, desktop-resizeRecent changes:Visit http://jumpdesktop.com/new to see the full change list5.0:  \xe2\x9c\x94 RDP support for Windows 8 and Server 2012  \xe2\x9c\x94  Windows 8 Touch support! Connect to Windows 8 via RDP then tap the spanner icon and select the Windows Touch Mode gesture profile  \xe2\x9c\x94 Black and white and Grayscale qualities for VNC connections that helps reduce bandwidth by up to 80%  \xe2\x9c\x94 Fullscreen support - no more status bars!  \xe2\x9c\x94 Stylus support (use the Stylus button to right click)  \xe2\x9c\x94 Fixed white screen on Galaxy devices"
p4
tp5
tp6
.