((S'Title'
p0
S'Juros F\xc3\x83\xc2\xa1cil '
p1
tp2
(S'Description:'
p3
S'De uma maneira simples e direta voc\xc3\xaa calcula:* A Presta\xc3\xa7\xc3\xa3o Mensal de um empr\xc3\xa9stimo, os juros mensais e anuais e o custo efetivo total (com e sem IOF);* FINANCIAMENTO IMOBILI\xc3\x81RIO: Neste m\xc3\xb3dulo voc\xc3\xaa simula as presta\xc3\xa7\xc3\xb5es mensais e o saldo devedor utilizando as tabelas SAC, SACRE e PRICE;* O CET (Custo Efetivo Total) do financiamento;* Taxa Efetiva de Juros mensal e anual.Aplica\xc3\xa7\xc3\xb5es:Voc\xc3\xaa pode simular empr\xc3\xa9stimos banc\xc3\xa1rios no banco de sua prefer\xc3\xaancia e verificar se as taxas oferecidas s\xc3\xa3o efetivas.No Financiamento Imobili\xc3\xa1rio, com um clique, voc\xc3\xaa alterna entre as modalidades SAC, SACRE e PRICE. Dessa forma voc\xc3\xaa compara qual a melhor op\xc3\xa7\xc3\xa3o de financiamento.Quando estiver em uma loja, antes de parcelar o produto, confirme se as taxas s\xc3\xa3o reais.O Juros F\xc3\xa1cil permite a simula\xc3\xa7\xc3\xa3o de um financiamento imobili\xc3\xa1rio, podendo incluir a TR, apresentando como resultado as parcelas e o saldo a pagar.A partir da taxa mensal de juros informada pela sua operadora de cart\xc3\xa3o de cr\xc3\xa9dito, facilmente voc\xc3\xaa calcula a taxa anual correspondente.O aplicativo fornecer\xc3\xa1 par\xc3\xa2metros para uma melhor avalia\xc3\xa7\xc3\xa3o na contrata\xc3\xa7\xc3\xa3o de empr\xc3\xa9stimos.Palavras-chave: blog celular globo HD supermercado vivo mercado internet banco do brasil santander Ita\xc3\xba Bradesco hsbc real caixa econ\xc3\xb4mica federal gratis veja bb celular dinheiro compra TV produto telefone net calculadora im\xc3\xb3vel im\xc3\xb3veis curso bolsa ingles barcode banc\xc3\xa1rio bank TV digital lan\xc3\xa7amento emagrecer new york nexus tablet novidade chase financeiro musica poupan\xc3\xa7a rendimento gratis money claro protocolo finan\xc3\xa7as calculadora or\xc3\xa7amento casa finan\xc3\xa7as nexus dinheiro skype oferta master melhor mp3 news noticias carro moto computador visa automotivo fring bmw ve\xc3\xadculoA FoxPell informa que os valores apresentados pelo aplicativo servem apenas como base para que o usu\xc3\xa1rio tenha refer\xc3\xaancia do valor aproximado de uma opera\xc3\xa7\xc3\xa3o de cr\xc3\xa9dito.Visite nossa p\xc3\xa1gina nas redes sociais Facebook e Twitter:twitter.com/foxpellfacebook.com/foxpellRecent changes:Compartilhamento da Simula\xc3\xa7\xc3\xa3o de Financiamento por e-mail e WhatsApp;Envio da Simula\xc3\xa7\xc3\xa3o de Financiamento por Mensagem de Texto (SMS);Acesso a todas as parcelas do Financiamanto Imobili\xc3\xa1rio;Op\xc3\xa7\xc3\xa3o de inclus\xc3\xa3o do I.O.F. (Imposto sobre Opera\xc3\xa7\xc3\xb5es Financeiras) na simula\xc3\xa7\xc3\xa3o do financiamento.Obs.:A implementa\xc3\xa7\xc3\xa3o de envio do financiamento por mensagem de texto requer permiss\xc3\xa3o de acesso aos contatos e ao envio de SMS, visto que o usu\xc3\xa1rio tem a op\xc3\xa7\xc3\xa3o de selecionar o contato a partir de sua agenda.'
p4
tp5
tp6
.