((S'Title'
p0
S'Just 6 Weeks Lite '
p1
tp2
(S'Description:'
p3
S'Just 6 Weeks is the best way to prepare your body for the summer!Just 6 Weeks offers you a unique opportunity to get into shape, learn how to do 100 push-ups or sit-ups, as well as to shape a beautiful muscle profile in only six weeks. Forget complicated systems and exhausting, hours-long workouts! All you need now is 10 minutes three times a week, a comfortable spot, and your smartphone.Just 6 Weeks has a very simple interface with convenient, customizable functionality. Workouts, reminders, statistics \xe2\x80\x93 everything is just two clicks away. Nothing will distract you from the workout now!5 Programs in one application:\xe2\x80\xa2 100 push-ups\xe2\x80\xa2 200 sit-ups\xe2\x80\xa2 150 dips\xe2\x80\xa2 200 squats\xe2\x80\xa2 20 pull-upsSimple functionality to reach complicated goals:\xe2\x80\xa2 Five independent programs can be used in any combination\xe2\x80\xa2 Level selection, depending on the results of a physical fitness test\xe2\x80\xa2 Automatic \xe2\x80\x9crest\xe2\x80\x9d timer with custom settings\xe2\x80\xa2 Workout schedule with reminders\xe2\x80\xa2 Regular adjustments of workout intensity to your level\xe2\x80\xa2 Detailed statistics of exercises performed\xe2\x80\xa2 Import and export your data\xe2\x80\xa2 Interface that does not distract you from you main goalPlease note! This application is a fully functional demo version of the Just 6 Weeks program. We are offering our users a 2-week trial period to evaluate the application before purchase.Recent changes:- Added support for three languages: Italian, Spanish, French- Fixed a bug with reminders that occurs on some devices (if you have it, you need reboot the device after the installation)- Added indication LED and vibration when triggered reminders- Removed the full-screen ads- Removed unnecessary permissions- Bugs fixed'
p4
tp5
tp6
.