((S'Title'
p0
S'Just Me and My Mom '
p1
tp2
(S'Description:'
p3
S'\xe2\x98\x85 "Fabulous" - CNET \xe2\x98\x85 Young kids will enjoy the stories of Little Critter - PadGadget.com Little Critter enjoys a special day in the city with his mother. He means well, but gets himself in trouble all along the way. His mother is oh so patient when Critter loses the train tickets, picks up a dinosaur egg in the natural history museum, and misbehaves at lunch. In spite of his difficulties, Little Critter happily falls asleep on the train going home, exhausted from the big outing with his mother. Mercer Mayer\'s Little Critter stories, which address all the major issues of growing up, are perennial favorites of parents and children. New features only available in this interactive omBook for your Android device include professional narration, background audio and enlarged artwork for each scene.   To promote reading in young children, individual words are highlighted as the story is read and words zoom up when pictures are touched. By combining the original text and artwork of author Mercer Mayer with features that entertain and promote reading, this omBook appeals to readers of all ages. Three ways to read this omBook (Oceanhouse Media digital book): \xe2\x98\x85 "Read to Me" \xe2\x80\x94 listen to the narrated story with words highlighted as they are read \xe2\x98\x85 "Read it Myself" \xe2\x80\x94 read the book in its traditional form \xe2\x98\x85 "Auto Play" \xe2\x80\x94 plays like a movie, automatically reading and turning pages. Great for younger children! Additional Features: \xe2\x98\x85 Picture / Word association \xe2\x80\x94 words zoom up and are spoken when pictures are touched \xe2\x98\x85 Find the creature mini-game \xe2\x98\x85 Professional audio narration \xe2\x98\x85 Custom background audio for each scene \xe2\x98\x85 Pages pan & zoom to accentuate the beautiful, original art of Mercer Mayer Official Mercer Mayer licensed app:\xc2\xa0www.littlecritter.comLITTLE CRITTER, MERCER MAYER\xe2\x80\x99S LITTLE CRITTER and MERCER MAYER\xe2\x80\x99S LITTLE CRITTER and LOGO are trademarks of Orchard House Licensing Company. All rights reserved.Visit us: www.ombook.com Follow us: twitter.com/oceanhousemedia Like us: facebook.com/oceanhousemedia'
p4
tp5
tp6
.