((S'Title'
p0
S'KCCO Pro '
p1
tp2
(S'Description:'
p3
S"KCCO is an unofficial gallery viewer for theChive. This app is meant to give Android users a beautifully designed Chive experience until theChive is able to release an updated, official version. Check out the huge list of features below.++++++ Features ++++++\xe2\x9c\x94 Very fast loading\xe2\x9c\x94 Pull-to-Refresh\xe2\x9c\x94 Save Favorites. Star a gallery then access it later from the SlidingMenu\xe2\x9c\x94 Infinite Scrolling (load galleries as far back as you'd like)\xe2\x9c\x94 Fast image swiping\xe2\x9c\x94 Automatic Slideshow\xe2\x9c\x94 Pinch-to-Zoom\xe2\x9c\x94 Download/Save images in full resolution for viewing offline\xe2\x9c\x94 Change Categories from the SlidingMenu\xe2\x9c\x94 Submit photos\xe2\x9c\x94 Share the actual image via text, email, or social media (not just a link to the picture)\xe2\x9c\x94 Share the title and a link to any gallery\xe2\x9c\x94 Link to open the gallery in the browser\xe2\x9c\x94 Extra gallery text from the author\xe2\x9c\x94 Image captions\xe2\x9c\x94 Shows the gallery's post date\xe2\x9c\x94 Themes\xe2\x9c\x94 (Limited) Video Support (Clicking a video post will open the video in your browser or YouTube)\xe2\x9c\x94 Multi-View Tablet support\xe2\x9c\x94 Fullscreen image viewing\xe2\x9c\x94 Ads, with revenue that is donated to Chive Charities\xe2\x9c\x94 GIF SUPPORT!!(No commenting support)This app will kill your data plan (and your productivity). WiFi is recommended. For those that don't know yet, theCHIVE is an online photo blog with hundreds of pictures posted daily. If you like girls, drinking beer and funny cat pictures, you'll love theCHIVE. See images before they appear on 9gag, 4chan and Imgur.Please report all bugs and crashes. They will only help make the app better.Please Rate and Share if you find this app useful. Keep Calm and Chive On!++++++ Permissions ++++++ACCESS_NETWORK_STATE - Used to check to see if you have a data connection available.INTERNET - Used to load images from the Chive. WRITE_EXTERNAL_STORAGE - Used to save/cache images to your device.BILLING - Used for Donations within the app. Cheers!All images are property of theChive and Resignation Media. This app is not affiliated with theCHIVE, theBERRY or Resignation Media in any way. Just a loyal, fellow Chiver. KCCO!Recent changes:0.3.5- Screen stays on while SlideShow is playing- Hot-Spots are back without breaking swiping. Touch the left or right side of the screen to change images.- Other minor bug fixes0.3.4- Added Setting to Disable Image Captions- Returned swiping back to previous version. Had to remove hot-spots for now.- Added Hands-Free swiping. Just hit Play and enjoy!"
p4
tp5
tp6
.