((S'Title'
p0
S'Keeper\xc3\x82\xc2\xae Password & Data Vault '
p1
tp2
(S'Description:'
p3
S'Keeper\xc2\xae is a secure, easy-to-use app to manage your passwords and private information from all your devices including Android phones, tablets, computers and your favorite web browser.  Features:\xe2\x80\xa2 Securely access your passwords, private information and website logins from anywhere.\xe2\x80\xa2 Sync seamlessly across your Smartphones, Tablets and Computers.\xe2\x80\xa2 Auto-Fill your passwords on mobile and desktop browsers.\xe2\x80\xa2 Share records with other family members or business teams.\xe2\x80\xa2 Enjoy peace of mind with military-grade encryption which protects your data.Managing your passwords and securely accessing your websites with Keeper makes life easy! Enjoy Keeper Backup for 30 days - free!Terms of Service: https://keepersecurity.com/termsRecent changes:New feature lets you \xe2\x80\x9cshare\xe2\x80\x9d private Keeper records with other Keeper Backup users.  It\xe2\x80\x99s great for office teams and families.'
p4
tp5
tp6
.