((S'Title'
p0
S'Kentucky Derby Tips '
p1
tp2
(S'Description:'
p3
S'Triple Crown Free App features free Kentucky Derby Tips, Preakness Tips and Belmont Stakes Tips from Triple Crown Tip Sheets. This free app offers every thing the beginning and veteran race track visitor needs, all in the palm of your hand. Free Tips - Tip Sheets - Exotic Wager Box Ticket Cost - Exotic Wager Wheel Ticket Cost - Triple Crown News - Kentucky Derby News - Preakness News - Belmont Stakes News.'
p4
tp5
tp6
.