((S'Title'
p0
S'Kids Movie (English) '
p1
tp2
(S'Description:'
p3
S"Enjoy all your favorite cartoon videos in a single app !More than 10,000 videos and  150 categories for Kids !!and still updated !!!This app has advertisements.To click advertisements, g+1 and \xe2\x98\x85\xe2\x98\x85\xe2\x98\x85\xe2\x98\x85\xe2\x98\x85 give very huge help for developerthank you in advance!\xe2\x80\xbb retrieved list is connected through Internet\xe2\x80\xbb to watch videos, require network connections. (strongly recommend Wifi)\xe2\x80\xbb requires YouTube playerYou can find following TV shows in this application :\xe2\x98\x85 April. 3. 2013 updated- Barbie Dreamhouse 1- Barbie Dreamhouse 2- Barbie Dreamhouse 3- Curious George 2- Curious George 1- Doong Doong- Jungle Junction- Milly Molly- MEG and MOG- Nelly & Cesar- Sonic X Episode 1-1- Sonic X Episode 1-2- Adventures of Sonic 1- Sonic Underground - Simon's Cat- Strawberry Shortcake 2- 6teen #1- 6teen #2- 6teen #3- The Replacements- The Magic Schoolbus- Timothy goes to school- Tayo : S1- Winx Club Season 5- Winx Club Season 1\xe2\x98\x85 March. 28. 2013 updated- Na Rong E- Barbie- Spongebob- Dibo The Gift Dragon- Dibo 1min Show- Doong Doong- Bob the Builder- The Island of Inis Cool - BRAMBLY HEDGE- The Magic of The Faraway Tree- Teletubbies- Tinga Tinga Tales- RaaRaa S1- Big Cook Little Cook- Numtums- Get Squiggling!- LEGO City Stories- Baby Jake short Theme- Baby Jake episodes\xe2\x98\x85 Jan. 25. 2013 updated- Small Potatoes- Noksu- Hippothesis by HooplaKidzTv- pororo Season ENG1 Episodes- Curious George- Special Agent Oso- Pocoyo (british)- Kipper the Dog- NUMBERJACKS- Caillou- Timothy Goes to School- Boo!- Ben and Holly's Little Kingdom (british)  - Toopy and Binoo- Little Charley Bear- JoJo's Circus- Jungle Junction- Subin & Friends- Fifi and the Flowertots- Dragon Tales- Noddy- Mickey Mouse Clubhouse- Gummi Bears- Rolie Polie Olie- Postman Pat- Mumu Village- Glumpers- Pat & Mat- Bear in the Big Blue House- Little People- Tractor Tom- Pingu : other story- Igloo Gloo- Bernard- Pink Panther and Pals - The Mole- UKI- Gazoon - Pingu- Baby Einstein\xe2\x98\x85 Jan. 1. 2013 updated- Aladdin- Angelina Ballerina- Annoying Orange- Arthur- Batman- Beast Machines- Berenstain Bears- Braceface- Buzz Lightyear of Star Command- Charlie And Lola (british) - Chip 'n Dale Rescue Rangers- Cyberchase- Dilbert- Handy Manny- HELLO KITTY- House Of Mouse- Huntik- I'm a Dinosaur by HooplaKidzTv- Invisible Network of Kids- Jane and the Dragon- Jungle Cubs- Kim Possible Season 1- Kim Possible Season 4 - Lucky Luke- S1. My Little Pony Friendship Is Magic- S2. My Little Pony Friendship is Magic- S3. My Little Pony Friendship is Magic- Pippi Longstocking : the movie- Pippi Longstocking : episode- Questions by HooplaKidzTv- roary the racing car- Sabrina- Scubi Du- Spiderman- Stoked Season 2- Strawberry Shortcake- Tabaluga- Tasty Time With ZeFronk- The Legend of Tarzan- The Weekenders- Timon and Pumbaa- Thomas & Friends 15- Total Drama World Tour- Transformers Cybertron- Fireman Sam New episodes- Fireman Sam  short EP- Fireman Sam The Great Fire of PontyPandy- Wow Wow Wubbzy- Wild Kratts - Wimzie`s House- Yin Yang YoDISCLAIMER: The content provided in this app is hosted by YouTube and is available in public domain. We do not upload any cartoon videos to YouTube. This app is just an organized way to browse and view these YouTube Videos to make it convenient for kids, to watch cartoon videos without browsing in YouTube.Recent changes:1.7.1 version- add many many contents (Include email request)Next 1.8 update is on The last week of April- Improve display1.6 version- Search function to find Kids Movies- add Contents- fix many bugs"
p4
tp5
tp6
.