((S'Title'
p0
S'KIWI Huskeliste '
p1
tp2
(S'Description:'
p3
S'KIWI Huskeliste hjelper deg med to store utfordringer! Hvordan handle sunnere og billigere, og hva skal vi ha til middag?La deg inspirere av mange fristende, kjappe og sunne retter utviklet av blant andre den svenske TV-kokken Tina. Legg til ingrediensene fra oppskriften i huskelista, og se steg for steg hvordan du lager retten. Kjappere og enklere blir det ikke!S\xc3\xb8k, scan eller velg varer du kj\xc3\xb8per ofte for kjapt \xc3\xa5 lage en huskeliste du kan dele med andre. Du kan skrive hva du vil i lista, uten at du m\xc3\xa5 velge bestemte varer. Appen gir deg produktforslag til det du har skrevet i lista. KIWI Huskeliste viser deg ogs\xc3\xa5 det du kj\xc3\xb8per til vanlig s\xc3\xa5 planleggingen blir enkel og du ikke glemmer noe.  Husk frukt og gr\xc3\xb8nt! Appen gj\xc3\xb8r det ekstra enkelt \xc3\xa5 legge til dette fra Frukt & Gr\xc3\xb8nt-paneletGj\xc3\xb8r hele lista di sunnere ved \xc3\xa5 velge N\xc3\xb8kkelhullpanelet. Her f\xc3\xa5r du sunne n\xc3\xb8kkelhullalternativer til det du har i lista.Gj\xc3\xb8r hele lista di billigere ved \xc3\xa5 velge First Price-panelet og bytte ut innhold i lista med First Price-produkter. Logg inn med din Trumf-konto for \xc3\xa5 f\xc3\xa5 forslag og anbefalinger tilpasset dine handlevaner. Appen lager en huskeliste for deg med varene du kj\xc3\xb8per ofte, s\xc3\xa5 du ikke glemmer dem n\xc3\xa5r du planlegger en handletur. N\xc3\xa5r du er innlogget f\xc3\xa5r du ogs\xc3\xa5 tilgang til Min Side, hvor din Trumf-saldo og kontoinformasjon vises. Om du ikke er Trumf-medlem eller har glemt passordet ditt, kan du registrere deg som nytt medlem eller be om nytt passord p\xc3\xa5 "Min Side".Finn n\xc3\xa6rmeste KIWI-butikk og alle butikkenes \xc3\xa5pningstider p\xc3\xa5 Finn butikk. Her finner du ogs\xc3\xa5 kontaktinformasjon til alle butikkene.Med KIWI Huskeliste kan du:\xe2\x80\xa2\tSe mange fristende oppskrifter, og hvordan du skal lage dem\xe2\x80\xa2\tLegge til ingredienser fra oppskriftene i huskelisten, enten alle med ett klikk, eller kun de ingrediensene du ikke har fra f\xc3\xb8r\xe2\x80\xa2\tLegge til varer du kj\xc3\xb8per ofte\xe2\x80\xa2\tGj\xc3\xb8re listen billigere (bytte ut med First Price-varer) \xe2\x80\xa2\tGj\xc3\xb8re listen sunnere (bytte ut med N\xc3\xb8kkelhullprodukter)\xe2\x80\xa2\tNotere ting du skal huske\xe2\x80\xa2\tS\xc3\xb8ke i kategorier og motta forslag p\xc3\xa5 popul\xc3\xa6re varer i kategoriene\xe2\x80\xa2\tScanne varer for \xc3\xa5 legge til i listen\xe2\x80\xa2\tLegge til popul\xc3\xa6re varer fra "Frukt og gr\xc3\xb8nt"\xe2\x80\xa2\tLegge til popul\xc3\xa6re varer fra "Bleier og Bind"\xe2\x80\xa2\tDele listen p\xc3\xa5 e-post og SMS\xe2\x80\xa2\tEndre antall p\xc3\xa5 varer i listen\xe2\x80\xa2\tFinne butikker og \xc3\xa5pningstider\xe2\x80\xa2\tSe din Trumf-saldo og kontoinformasjon\xe2\x80\xa2\tBli Trumf-medlem\xe2\x80\xa2\tF\xc3\xa5 nytt Trumf-passordSavner du \xc3\xa5 kunne dele huskelisten din med noen andre i familien automatisk? Vi jobber med saken! F\xc3\xb8lg med, oppdateringer kommer snart!Recent changes:\xe2\x80\xa2\tMange fristende sommeroppskrifter utviklet av den svenske TV-kokken Tina\xe2\x80\xa2\tLegg til ingrediensene fra oppskriftene til din huskeliste\xe2\x80\xa2\tSe steg for steg fremgangsm\xc3\xa5te p\xc3\xa5 hvordan du lager oppskriften\xe2\x80\xa2\tMulighet til \xc3\xa5 legge til flere varer fra s\xc3\xb8k samtidig f\xc3\xb8r du g\xc3\xa5r tilbake til huskelisten din\xe2\x80\xa2\tBug fixes og ytelsesforbedringer\xe2\x80\xa2\tSt\xc3\xb8tter n\xc3\xa5 ogs\xc3\xa5 Galaxy Note II'
p4
tp5
tp6
.