((S'Title'
p0
S'Leadership Qualities! '
p1
tp2
(S'Description:'
p3
S'Leadership is more than just being confident that you can manage a number of people and make them follow your lead. Each one of us influences at least ten thousand other people during our lifetime. Hence, the question is not whether we can influence these people, but in what manner shall we influence them.There are instances that competitors suddenly give up believing that they just can never be leaders. Maybe I\xe2\x80\x99m not really born to lead, they think. On the contrary, the key to effective leadership does not depend primarily in the abilities we are born with, but in techniques, skills, character, and qualities that we are open to develop throughout life. Leadership does not come out merely from the inner personality of the individual or from his philosophy of leadership, but from his enthusiasm to become the person other people will follow. This means that how a leader reacts when his power or safety is challenged, and how he interprets the world around him, is crucial to developing strong and effective leadership qualities.Here\'s what you will find inside the "12 Winning Leadership Qualities" E-Book: *\tThe primary and most important quality for a leader to possess... *\tThe best way for your vision to become clear in your mind and heart... *\tThe key to understanding any issue between two or more parties... *\tHow to see the good things in everything, even if you are pessimistic all the time... *\tHow to expand your self-knowledge... *\tHow to bring out the strong character in you... *\tHow to draw responsibility out of your shells... *\tHow to develop discipline... *\tHow to bring out the trustworthy person in you... *\tTechniques on how to handle change properly... *\tHow to develop effective communication skills... *\tHow to develop your trust in yourself and in others... *\tHow you can become a more organized leader... *\tA powerful secret to kick that procrastination habit out of your system... *\tHow to develop leadership potentials in other people... *\tWhy breaking the rules is important for leaders... *\tHow to pursue lifelong learning... *\tQualities that show you are losing your potentials to be a great leader; hence, to be watched out for... *\tHow to properly display integrity... *\tHow to bring out a vision from your inner personality... *\tWhat the role of effective communication is in successful leadership... *\tHow important asking questions is for a leader... *\tHow to effectively influence your people... *\tHow to effectively deal with people from all walks of life... *\tActions (to watch out for) that betray trust... *\tHow important a vision for a leader and for his people is... *\tWhat the Pareto Principle is and why every leader should be aware of it... *\tThe proper way of prioritizing tasks... *\tHow enough is responsible enough... *\tFour ways in developing greater sense of responsibility... *\tHow a leader effectively plans... *\tThe importance of smiling... *\tHow important associating with positive people is... *\tWhat the most important factor is in building relationships with other people... *\tThe most important output of a leader... *\tHow to effectively motivate other people...Go ahead and grab your free "leadership" app now!tags;leadership qualitiesgood leadership qualitiestop leadership qualitiesstrong leadership qualitiesimportant leadership qualitiesleadership traits qualitiesleadership traitseffective leadership qualitieslist of leadership qualitieswhat are leadership qualitieseffective leadershipwhat is leadershipleadership strengthswhat are good leadership qualities'
p4
tp5
tp6
.