((S'Title'
p0
S'Leboncoin '
p1
tp2
(S'Description:'
p3
S"Leboncoin.fr est le 1er site fran\xc3\xa7ais de petites annonces gratuites qui offre un service de proximit\xc3\xa9 partout en France.Afin de garantir ses services au plus grand nombre d'internautes fran\xc3\xa7ais, Leboncoin propose maintenant une application pour faire des affaires \xc3\xa0 tout moment, directement sur votre Android !Principalement d\xc3\xa9di\xc3\xa9e aux Particuliers, l'application leur permet de d\xc3\xa9poser gratuitement des annonces et de les supprimer une fois l'affaire conclue.A Tous, faites des affaires en mobilit\xc3\xa9 et retrouvez l'essentiel de l'exp\xc3\xa9rience Leboncoin.fr :- Acc\xc3\xa9dez \xc3\xa0 plus de 21 millions d\xe2\x80\x99annonces de Particuliers et Professionnels en immobilier (ventes et locations), auto, moto, emploi et services, multim\xc3\xa9dia, maison, loisirs\xe2\x80\xa6- S\xc3\xa9lectionnez une r\xc3\xa9gion et d\xc3\xa9couvrez en quelques clics tous les produits et services que vous cherchez pr\xc3\xa8s de chez vous.- Affinez votre recherche par d\xc3\xa9partement et code postal ; par mots cl\xc3\xa9s et par cat\xc3\xa9gories.- D\xc3\xa9posez facilement votre annonce en y ajoutant des photos prises directement depuis l\xe2\x80\x99appareil photo de votre t\xc3\xa9l\xc3\xa9phone.- Contactez directement les vendeurs par email ou par t\xc3\xa9l\xc3\xa9phone.- Sauvegardez les coordonn\xc3\xa9es personnelles et g\xc3\xa9ographiques des vendeurs dans les contacts de votre t\xc3\xa9l\xc3\xa9phone.- Retrouvez \xc3\xa0 tout moment vos annonces favorites dans l'univers Mes annonces.- Cr\xc3\xa9ez, modifiez et enregistrez vos recherches automatiques et consultez-les en 1 clic. **** CARTE SD : Pour plus de stabilit\xc3\xa9, nous vous recommandons d'installer l'application directement sur la m\xc3\xa9moire du t\xc3\xa9l\xc3\xa9phone. Si toutefois vous choisissez d'installer l'application sur une carte SD externe, veillez \xc3\xa0 ce qu'elle soit correctement mont\xc3\xa9e. Sinon, l'ic\xc3\xb4ne de l'application n'appara\xc3\xaetra plus sur votre \xc3\xa9cran d'accueil. **** **** A l\xe2\x80\x99installation de l\xe2\x80\x99application, des autorisations sont demand\xc3\xa9es pour utiliser certaines fonctionnalit\xc3\xa9s : ins\xc3\xa9rer des photos \xc3\xa0 vos annonces, joindre les annonceurs par t\xc3\xa9l\xc3\xa9phone, ajouter les coordonn\xc3\xa9es des annonceurs au r\xc3\xa9pertoire de votre t\xc3\xa9l\xc3\xa9phone...Sachez qu\xe2\x80\x99en aucun cas vos informations personnelles ne seront utilis\xc3\xa9es \xc3\xa0 des fins commerciales.****------------------------------------L'application Leboncoin a \xc3\xa9t\xc3\xa9 test\xc3\xa9e sur la plupart des t\xc3\xa9l\xc3\xa9phones Android tels que : Samsung Galaxy Series, HTC Desire, HTC Explorer, Samsung Google Nexus S\xe2\x80\xa6En cas de probl\xc3\xa8me avec l\xe2\x80\x99application ou si avez une question, une suggestion\xe2\x80\xa6contactez-nous directement via l'application ou sur notre support client \xc3\xa0 l\xe2\x80\x99adresse suivante : www2.leboncoin.fr/supportRecent changes:- Correction du bug sur l\xe2\x80\x99affichage des photos"
p4
tp5
tp6
.