((S'Title'
p0
S'Leitor Vivo: QR Codes '
p1
tp2
(S'Description:'
p3
S'O ScanLife transforma a c\xc3\xa2mera do seu telefone num leitor de QR codes e c\xc3\xb3digos de barras super-r\xc3\xa1pido. Inclui agora integra\xc3\xa7\xc3\xa3o com o Facebook para tornar mais f\xc3\xa1cil compartilhar o que voc\xc3\xaa encontra e ver tamb\xc3\xa9m o que outros usu\xc3\xa1rios est\xc3\xa3o recomendando. Este \xc3\xa9 o \xc3\xbanico leitor de c\xc3\xb3digos de barras que voc\xc3\xaa precisa! Leia qualquer c\xc3\xb3digo 2D (QR Code, Datamatrix, EZcode) que voc\xc3\xaa encontrar em an\xc3\xbancios, embalagens ou cart\xc3\xb5es de visita para lan\xc3\xa7ar websites, v\xc3\xaddeos, ofertas e informa\xc3\xa7\xc3\xb5es de contato. Voc\xc3\xaa pode tamb\xc3\xa9m ler os c\xc3\xb3digos de barras padr\xc3\xa3o (UPC / EAN) de produtos como DVDs, livros e alimentos para obter uma variedade de informa\xc3\xa7\xc3\xb5es e comprar o produto com apenas alguns cliques.A informa\xc3\xa7\xc3\xa3o sobre produtos dispon\xc3\xadvel varia de pa\xc3\xads para pa\xc3\xads. No Brasil voc\xc3\xaa pode ler o c\xc3\xb3digo de barras de produtos existentes na Livraria Cultura para acessar a mais informa\xc3\xa7\xc3\xa3o e pre\xc3\xa7os e at\xc3\xa9 fazer a compra na hora.  Outras funcionalidades:- Conecte-se usando sua conta do Facebook para que sincronizar os seus favoritos na sua p\xc3\xa1gina do Facebook. Compartilhe no seu Facebook o que voc\xc3\xaa encontrar - uma \xc3\xb3tima forma de sugerir uma lista de desejos.- Descubra as leituras que est\xc3\xa3o acontecendo em todo o mundo. Clique nos produtos para visualizar as informa\xc3\xa7\xc3\xb5es como se tivessem sido lidos por voc\xc3\xaa.- Use o QRcard para criar seu o seu QR Code personalizado com seus dados de contato e compartilh\xc3\xa1-los com os outros.- Compartilhe facilmente o conte\xc3\xbado do QR Code ou C\xc3\xb3digo UPC / EAN atrav\xc3\xa9s de sua conta do Twitter, ou envie por e-mail para si mesmo como um lembrete com o que voc\xc3\xaa encontrou.- Salve os QR Code e c\xc3\xb3digos de barras que voc\xc3\xaa leu em Minhas Leituras, mesmo se voc\xc3\xaa n\xc3\xa3o estiver conectado \xc3\xa0 Internet.- Personalize a sua experi\xc3\xaancia, escolhendo um tema para o Alvo do Leitor.- Voc\xc3\xaa pode at\xc3\xa9 "ler" a imagem de um QR Code ou C\xc3\xb3digo UPC / EAN que voc\xc3\xaa salvou na galeria de fotos do seu telefone. \xc3\x89 \xc3\xb3timo se voc\xc3\xaa quiser ver o conte\xc3\xbado de um c\xc3\xb3digo que voc\xc3\xaa recebeu por e-mail. - Quer criar os seus pr\xc3\xb3prios QR Codes? Acesse a www.scanlife.com para criar a sua conta pessoal, ou uma conta de neg\xc3\xb3cios que inclui funcionalidade mais avan\xc3\xa7adas e relat\xc3\xb3rios completos.  - NOTAS SOBRE AS PERMISS\xc3\x95ES - N\xc3\xb3s levamos sua privacidade muito a s\xc3\xa9rio, por isso \xc3\xa9 importante entender porqu\xc3\xaa estamos pedindo permiss\xc3\xb5es espec\xc3\xadficas."INTERNET": O aplicativo se conecta \xc3\xa0 Internet para exibir os conte\xc3\xbados ap\xc3\xb3s a leitura de um c\xc3\xb3digo de barras ou QR Code."ACESSO AO STATUS DA REDE":O aplicativo verifica se uma conex\xc3\xa3o de rede est\xc3\xa1 dispon\xc3\xadvel para se conectar \xc3\xa0 Internet."C\xc3\x82MERA":O aplicativo utiliza a c\xc3\xa2mera para ler os c\xc3\xb3digos de barras."ACESSO \xc3\x80 LOCALIZA\xc3\x87\xc3\x83O": A localiza\xc3\xa7\xc3\xa3o \xc3\xa9 utilizada para oferecer informa\xc3\xa7\xc3\xb5es mais relevantes como por exemplo mostrar pre\xc3\xa7os em locais pr\xc3\xb3ximos de voc\xc3\xaa, sempre que dispon\xc3\xadveis. Ser\xc3\xa1 perguntado antes dos dados de Localiza\xc3\xa7\xc3\xa3o serem usados.------------------------QR Code, qrcode, c\xc3\xb3digo de barras, leitor de c\xc3\xb3digos, leitor qr code, UPC, pre\xc3\xa7os, compara\xc3\xa7\xc3\xa3o de pre\xc3\xa7os, datamatrix, barcode.Recent changes:- Mais f\xc3\xa1cil sincronizar os seus c\xc3\xb3digos favoritos com a sua p\xc3\xa1gina no Facebook.- Mais r\xc3\xa1pido compartilhar os c\xc3\xb3digos que voc\xc3\xaa leu com seus amigos- Visual atualizado - Corre\xc3\xa7\xc3\xb5es menores'
p4
tp5
tp6
.