((S'Title'
p0
S'LIDL uk Offers (Beta) '
p1
tp2
(S'Description:'
p3
S'LIDL deals.Unofficial app, this app is comfortably represent LIDL offers uk, is just a beta, thus welcomes your comments directed to the development and improvement of the application, be aware that it is a free application.Currently working on loading speed and showing the date of the offer (solved version 0.02), will welcome any ideas to add more shops like Aldi, day, etc ....We thank your score and try to take into account the advice of the users.Can direct your comments to carmhesos@gmail.com'
p4
tp5
tp6
.