((S'Title'
p0
S'Live Football On TV (Lite) '
p1
tp2
(S'Description:'
p3
S"This is the free/lite version of Live Football On TV \xe2\x98\x85GUIDE\xe2\x98\x85 . If you like our work, please Go Pro, and support app development. https://play.google.com/store/apps/details?id=com.visualdesign.livefootballontvThis app is a football TV schedule guide, it is not a streaming service, yet. Please review the app description before rating, thanks :)The Ultimate \xe2\x98\x85GUIDE\xe2\x98\x85 to Live Football on TV in the UK, Ireland, and across Europe. This app is unrivalled on extensive fixture accuracy and frequency. Live Football On TV is a new Android App dedicated solely to providing the user with the most up to date and extensive in depth listings of Live Football On Television in the UK & Ireland, including Live Premiership Football, live coverage of European domestic leagues such as La Liga and Serie A, Live Champions League Football television listings, Live International Football on TV and much more. -- Live Football On TV app service is updated daily. Please note: we are not a streaming service, yet, this is a \xe2\x98\x85GUIDE\xe2\x98\x85 only.If you need to get in touch, get us over at www.visualdesign.ie. Follow updates on Twitter: @VisualDesignIrlSome of the extra Pro features:\xe2\x9c\x94 Pro: Settings/Preferences to configure what leagues you want shown.X Lite: No preferences to configure leagues.\xe2\x9c\x94 Pro: 50+ Leagues worldwide (and growing).X Lite: Limited leagues to use.\xe2\x9c\x94 Pro: Homescreen Widgets 4x2, 4x3 and 4x4 sizes.X Lite: No Homescreen Widgets.\xe2\x9c\x94 Pro: Fast support times.X Lite: Delayed support times.Pro version supports all the following leagues, Lite version has limited leagues and features:\xe2\x9c\x94 UEFA Champions League (Pro Only)\xe2\x9c\x94 UEFA Europa League\xe2\x9c\x94 Global Leagues (Other)\xe2\x9c\x94 Ireland (Airtricity Premier League)\xe2\x9c\x94 Northern Ireland (IFA Premiership).\xe2\x9c\x94 English Premier League (Pro Only)\xe2\x9c\x94 English Championship (UKB) (Pro Only)\xe2\x9c\x94 English League One + Two\xe2\x9c\x94 Spanish La Liga (Pro Only)\xe2\x9c\x94 Italian Serie A (Pro Only)\xe2\x9c\x94 German Bundesliga (Pro Only)\xe2\x9c\x94 International Games\xe2\x9c\x94 Scottish Premier League (Pro Only)\xe2\x9c\x94 Welsh League (Cynghrair Cymru).\xe2\x9c\x94 Reserves & Youth Football (English)\xe2\x9c\x94 English Non League\xe2\x9c\x94 Netherlands/Dutch League (Eredivisie)\xe2\x9c\x94 Euro 2012 (UK Broadcasts)\xe2\x9c\x94 French Ligue 1 (Euro Broadcasts)\xe2\x9c\x94 US Major League Soccer (UK/US Broadcasts) (Pro Only)\xe2\x9c\x94 Danish 1st Division (Euro Broadcasts)\xe2\x9c\x94 Polish Ekstraklasa League (Euro Broadcasts)\xe2\x9c\x94 Ukraine Premier League (Euro Broadcasts)\xe2\x9c\x94 Russia Premier League (Euro Broadcasts)\xe2\x9c\x94 Portuguese Primeira Liga (Euro Broadcasts)\t\t\xe2\x9c\x94 Swedish Allsvenskan League (Euro Broadcasts)\xe2\x9c\x94 Portuguese Primeira Liga (Euro Broadcasts)\xe2\x9c\x94 Czech Republic 1. League (Euro Broadcasts)\xe2\x9c\x94 Romanian Liga 1 (Euro Broadcasts)\xe2\x9c\x94 Croatian 1 HNL League (Euro Broadcasts)\xe2\x9c\x94 Swiss Axpo Super League (Euro Broadcasts)\xe2\x9c\x94 Japanese J1 League (Int Broadcasts)\xe2\x9c\x94 Brazilian Serie A - Brasileirao (Int Broadcasts) (Pro Only)\xe2\x9c\x94 Argentine Primera Division (Int Broadcasts)\xe2\x9c\x94 Mexico Primera League (Int Broadcasts)\xe2\x9c\x94 Euro 2012 (Int Broadcasts)\xe2\x9c\x94 Australian A-League (INT)\xe2\x9c\x94 New Zealand ASB Prem (INT)\xe2\x9c\x94 World Cup 2014 Qualifiers (UK Broadcasts)\xe2\x9c\x94 Polish Ekstraklasa League (UK broadcasts)\xe2\x9c\x94 English FA Cup (UK broadcasts)\xe2\x9c\x94 Greek SuperLeague (INT broadcasts)\xe2\x9c\x94 Cyprus First Division (INT broadcasts)\xe2\x9c\x94 Copa Libertadores (INT broadcasts)\xe2\x9c\x94 Dutch Eredivisie League (INT broadcasts)\xe2\x9c\x94 Belgian Pro League (INT)\xe2\x9c\x94 Norwegian Tippeligaen (INT)\xe2\x9c\x94 Turkish Super Lig (INT)\xe2\x9c\x94 Chinese Super League (INT)\xe2\x9c\x94 Brazilian Serie B (INT)\xe2\x9c\x94 Korea Rep K-League (INT)Planned additional leagues:\xe2\x98\x85 More leagues upon requestHardware tested on:- HTC One X (4.1.1 Jellybean)- HTC One S (4.0.4 Ice Cream Sandwich)- HTC Sensation (2.3.4, Gingerbread)- Samsung Galaxy S (I9000).- Samsung Galaxy Ace (2.3, Gingerbread).- HTC Desire (S). (2.2, Froyo)Follow updates on Twitter: @VisualDesignIrl\xe2\x98\x85Please see the project website to contact me if you have any questions or problems \xe2\x80\x94 I can't respond to comments left here.\xe2\x98\x85If you find our app useful please give positive feedback, and many thanks for your supportRecent changes:v1.28 - 05.02.2013\xe2\x9c\x94 Initial Lite version release\xe2\x9c\x94 Lots of code refactoring"
p4
tp5
tp6
.