((S'Title'
p0
S'LIVE Score SofaScore '
p1
tp2
(S'Description:'
p3
S'"Live Score SofaScore" is live sports results app powered by SofaScore.com livescore. All sports results and scores are delivered to you within a minute of live play! Our major sports are Football (soccer), Tennis, Basketball, Cricket and Ice hockey, but with our livescores app you can follow any league in 15 sports:\xe2\x97\x8b Football (soccer) /MLS, EPL, UEFA CL + 558 other football leagues/\xe2\x97\x8b Basketball /NBA 2k13, NCAA + 72 other basketball leagues/\xe2\x97\x8b Ice hockey /NHL 2013 (playoffs) + 76 other hockey leagues/\xe2\x97\x8b Tennis /all ATP & WTA tournaments in 2013 - Barcelona Open Banc Sabadell, Porsche Tennis Grand Prix/\xe2\x97\x8b Cricket /IPL T20, Zimbabwe series, County championship.../\xe2\x97\x8b Baseball /MLB only/\xe2\x97\x8b Formula 1 2013 /live F1 timing - Spanish GP Catalunya/\xe2\x97\x8b Rugby /Rugby union, Rabodirect, RBS Six 6 Nations, Aviva premiership, Top 14.../\xe2\x97\x8b American football scores from AFL, NFL, NCAA College football...\xe2\x97\x8b Handball\xe2\x97\x8b Volleyball\xe2\x97\x8b Badminton\xe2\x97\x8b Snooker\xe2\x97\x8b Darts\xe2\x97\x8b Table TennisFEATURES:- push notifications (alert mode choice: sound, vibration, silent)- "My Teams" - follow your favorite teams like Man Utd, Chelsea, FC Barcelona, Real Madrid, NY Yankees and get live notifications and results automatically any time when they play- many match information like standings and fixtures, stats, H2H, next and previous matches, table, live match statistics, lineups, schedule and many more...- minimal data transfer- Super fast and easy to use scoreboard- auto detect time and date- Calendar\xe2\x98\x85\xe2\x98\x85\xe2\x98\x85\xe2\x98\x85\xe2\x98\x85Best ls sports app on the market. If I could give this six stars out of five I would! The fastest for score updates and best for stats on Android. Well done guys!\xe2\x98\x85\xe2\x98\x85\xe2\x98\x85\xe2\x98\x85\xe2\x98\x85Simply brilliant. Get notifications through when something happens in any games I\'m interested in. The fact it speaks the score instead of having to check is a brilliant feature. Can\'t rate highly enough\xe2\x98\x85\xe2\x98\x85\xe2\x98\x85\xe2\x98\x85\xe2\x98\x85Great livescore app, just amazing! Your app is much better than livescore.com and Italian Flashscore app. 10 stars app!\xe2\x98\x85\xe2\x98\x85\xe2\x98\x85\xe2\x98\x85\xe2\x98\x85Brilliant! Excellent livescore App, easy to use and a great way of being kept up to date on all matches anywhere in the world!\xe2\x98\x85\xe2\x98\x85\xe2\x98\x85\xe2\x98\x85\xe2\x98\x85Pleasantly surprised as a user of Sky\'s and BBC app, wasn\'t sure if this would be any good. The voice alerts mean it\'s now my app of choice. Excellent.\xe2\x98\x85\xe2\x98\x85\xe2\x98\x85\xe2\x98\x85\xe2\x98\x85Cutting-edge! This app is must-get for any sports lover. It\'s so cool I don\'t even have enough words to describe it. Best app on my phone, would update it without blinking because they always have surprisesVisit our website on: http://www.sofascore.comSofaScore iOS app: https://itunes.apple.com/gb/app/live-score-sofascore/id535471635Recent changes:v1.19- New design!- My teams option- 5 new sports: Cricket, Badminton, Snooker, Darts, Table tennis- added Formula 1 2013Sorry everyone for waiting so long for the update. Please report all potential bugs, we\'ll fix them as soon as possible.v2.19 (ICS)- added new sport: Cricket- added Share button in match details'
p4
tp5
tp6
.