((S'Title'
p0
S'Looptijden.nl '
p1
tp2
(S'Description:'
p3
S"Met de gratis Looptijden.nl app kun je heel eenvoudig je hardlooproute opnemen op je Android mobiel. Tijdens het hardlopen zie (en hoor) je direct je snelheid, de gelopen afstand en route en het aantal verbruikte calorie\xc3\xabn!Belangrijkste features: Nederlandstalige audiocoaching, hardloopschema's, live-tracking, trainingsdoelen, ghost-running, levels, ondersteuning voor hartslagmeter en Twitter en Facebook integratie.De basisfuncties in de app zijn gratis. Een aantal extra fucnties maken onderdeel uit van het betaalde Plus Pakket. Dit zijn o.a. ghost-running. trainingsdoelen en live-tracking. Meten en delen van de route is gratis, evenals Nederlandstalige audiocoaching bij elke kilometer- of minuutdoorkomt.*Nederlandstalige audiocoaching*Looptijden.nl is de enige hardloopapp ter wereld met Nederlandstalige audiocoaching. Tijdens het hardlopen krijg je elke kilometer (of minuut) een statusupdate te horen met je voortgang en snelheid.*Trainingsdoelen en ghost-running (in het Plus Pakket)*Stel je doel in en de app coacht je er naar toe! Kies voor je gewenst tijd, afstand, calorie\xc3\xabn, snelheid of de combinatie van afstand en tijd en de audiocoach helpt je om je doel te halen!Met ghost-running kun je een vorige tijd van jezelf of een vriend selecteren en het hier vervolgens tegenop nemen. Je ziet een spookje op de kaart verplaatsen waar je zou moeten zijn. Kun jij het spookje voorblijven? *Live-tracking (in het Plus Pakket)*Laat vrienden, kennissen en familie rechtstreeks met je meekijken en je aanmoedigen tijdens het hardlopen. Ze kunnen je via Facebook en Twitter aanmoedigen en zodra je een aanmoediging ontvangen hebt zal de audiocoach je hiervan op de hoogte stellen. *Intervaltrainingen en hardloopschema's*Via de website van Looptijden.nl kun je zelf je eigen intervaltrainingen samenstellen of een hardloopschema volgen. Vervolgens kun je via de app gebruik maken van audiocoaching om de oefeningen uit te voeren. Noot: deze optie moet je via de website eerst activeren. Zie http://www.looptijden.nl/shop/store/hardloopschemas voor meer informatie.*Hartslagmeter*Koppel de Polar Bluetooth hartslagmeter aan deze app en meet eenvoudig je hartslag. Na afloop kun je een uitgebreide analyse van je hartslag terugzien via de website. Inclusief onderverdeling in hartslagzones. Bestel de bijbehorende Polar Bluetooth hartslagband via de webshop. Zie http://www.looptijden.nl/shop/store/polar-hartslagband voor alle details.*Twitter, Hyves en Facebook integratie*Aangezien je tijden op je Looptijden.nl profiel worden opgeslagen kun je gebruik maken van alle features hiervan. Zo kun je je tijden automatisch naar Facebook en/of Twitter publiceren en ook terug laten komen op je Hyves profiel.Ook krijg je toegang tot vele interessante statistieken over je tijden en alle andere features van Looptijden.nl. *Uitgebreide wedstrijd- en winkelinformatie*Omdat deze app (als enige) helemaal op de Nederlands hardlopers is gericht kun je ook uitgebreide wedstrijdinformatie vinden voor wedstrijden welke binnenkort plaatsvinden. Zo kun je o.a. de reviewscore, de route en tijden van andere hardlopers bekijken.Ook bevat de app een handig overzicht van alle hardloopwinkels in Nederland. Zo weet je precies waar je terecht kunt voor goed advies over hardloopschoenen en kleding.*Support*Heb je een vraag of een opmerking. Plaats deze NIET in een review, hier kunnen we niet op reageren. Neem daarentgen gerust contact op via de support opties op de website: www.looptijden.nl/support*Over GPS ontvangst*Deze app maakt gebruik van de GPS in je mobiel. De nauwkeurigheid van de meting is grotendeels afhankelijk van de kwaliteit van de GPS in je mobiel. Sommige Android telefoons hebben helaas een slechte GPS ontvanger en hiermee kan dus ook geen nauwkeurige meting gemaakt worden.Draag je mobiel altijd in een schouderband met de ontvanger naar boven en zorg dat je eventuele task killers / managers uit hebt staan.Recent changes:In 4.3:* Calorie audiocoaching (elke update het equivalent in voedsel wat je er al afgelopen hebt)* Opmerkingen bij een tijd toevoegen voor het opslaan* Tussentijden toevoegen* Betere automatische foutcorrectie Eerder:* Trainingsdoelen* Ghost-running* Gekleurd snelheidslint tijdens het lopen* Live-tracking* Intervallen en oefeningen van een training worden nu in de app getoond"
p4
tp5
tp6
.