((S'Title'
p0
S'Magisto - Magical Video Editor '
p1
tp2
(S'Description:'
p3
S'Over 6 million users worldwide!Automatically turn your video and photos into beautifully edited movies, complete with music and effects, in minutes. \xe2\x98\x86\xe2\x98\x86\xe2\x98\x86\xe2\x98\x86\xe2\x98\x86 \xe2\x80\x9cGreat! Awesome app, it does all the work and the end result is great!\xe2\x80\x9d\xe2\x98\x86\xe2\x98\x86\xe2\x98\x86\xe2\x98\x86\xe2\x98\x86 \xe2\x80\x9cBest video editing app in the history of video editing! Awesome!\xe2\x80\x9d\xe2\x98\x86\xe2\x98\x86\xe2\x98\x86\xe2\x98\x86\xe2\x98\x86 \xe2\x80\x9cThis app is like having your own little casting crew at work in your phone\xe2\x80\x9dHOW DOES THE MAGIC WORK?You don\xe2\x80\x99t have to be a video editor or know anything about video editing at all.  Think of Magisto as your own private video editor\xe2\x80\x94Magisto will analyze your video and photos and splice it together for you, creating a professional looking movie\xe2\x80\x94an edit that you\xe2\x80\x99ll be proud to share with your friends.\xe2\x98\x86\xe2\x98\x86\xe2\x98\x86\xe2\x98\x86\xe2\x98\x86 Easier to make videos than you\'d ever imagine. - Amazing. So easy, it immediately hooked me on making videos the way I\'m hooked in taking photographs.\xe2\x98\x86\xe2\x98\x86\xe2\x98\x86\xe2\x98\x86\xe2\x98\x86 \xe2\x80\x9cLoving it! It can make some of the funniest videos ever!\xe2\x80\x9d\xe2\x98\x86\xe2\x98\x86\xe2\x98\x86\xe2\x98\x86\xe2\x98\x86 \xe2\x80\x9cMy family and friends love seeing the videos...\xe2\x80\x9dMAGICAL FEATURES:\xe2\x98\x86 Unprecedented AI Technology that analyzes and edits the best parts of your videos\xe2\x98\x86 Easily share to Facebook, Twitter, Email and even YouTube\xe2\x98\x86 Automatic video stabilization, filters, effects and transitions\xe2\x98\x86 Facial recognition detects the important people in your videos\xe2\x98\x86 Upload video and photos from your Gallery or use Magisto as a smart video camera\xe2\x98\x86 Add soundtracks from your device or from Magisto\xe2\x80\x99s library of licensed music\xe2\x98\x86 Access your movies from any device\xe2\x98\x86 Draw something directly into your videos\xe2\x98\x86 Uses FFmpeg under permission of LGPL\xe2\x98\x86 Add Instagram photos from your gallery to your moviesTags: video, movie, clip, editor, edit, maker, trim, splice, camera, free, effect, filter, share, youtube, photo, compilation, mother\'s day video, mothers day video, mother\'s day, mothers day, video photo maker, movie maker, best video editor android, best video editor app, best video editingRecent changes:NEW! DRAW A VIDEO!Personalize your movies by magically animating your hand-made drawings!* Express your creativity* Access unique, hand drawn frames, transitions, titles and effects* Exclusive for Android* Try it while it\'s free!How does it work?Pick the new "Draw a Video" theme, draw something directly onto your videos and have them automatically analyzed and animated with Magisto\xe2\x80\x99s artificial intelligence magic!See the demo - http://www.youtube.com/watch?v=ovN7bVkRFCQ'
p4
tp5
tp6
.