((S'Title'
p0
S'Manage My Pain Pro '
p1
tp2
(S'Description:'
p3
S"Manage My Pain for Android helps you and others better understand what you are going through.Manage My Pain has helped thousands of people better understand their symptoms and provide evidence of their pain for their doctors, insurance companies, or government agencies.  It is the most effective pain management app to record, track, analyze, & share your pain. \xe2\x80\xa2 Track your pain using a powerfully customizable yet simple entry screen\xe2\x80\xa2 Get insight to your condition through statistics, charts, graphs, and calendar views\xe2\x80\xa2 Sync with the cloud to safe-keep your records and keep all your devices up to date\xe2\x80\xa2 Share what you're going through by creating evidence-based reports for diagnosis, treatment, and claims\xe2\x80\xa2 Personalize your account by recording your medical and personal characteristics\xe2\x80\xa2 Get support from a responsive team and detailed user guidesManage My Pain is the only app that synchronizes your information in the cloud and across all your devices.  Create and view your records anywhere, anytime, and from any device, while resting easy that your information will never be lost.The Pro version adds:\xe2\x80\xa2 the ability to view more than 10 records\xe2\x80\xa2 background sync capabilitiesTo migrate from Lite to Pro (using online account):\xe2\x80\xa2 Create an online account and synchronize your information\xe2\x80\xa2 Install the Pro version and login to your accountTo migrate from Lite to Pro (without an online account):\xe2\x80\xa2 Press the Backup/Restore button in the Lite version\xe2\x80\xa2 Select Backup from the pop-up\xe2\x80\xa2 Launch the Pro version, and press Backup/Restore\xe2\x80\xa2 Select Restore from the pop-up\xe2\x80\xa2 Select the latest backup file from the list that appears\xe2\x80\xa2 Validate that all records exist in Pro and uninstall LiteDeveloped for patients suffering from and care-givers or medical professionals treating:\xe2\x80\xa2 arthritis & rheumatism\xe2\x80\xa2 cancer\xe2\x80\xa2 chronic pain\xe2\x80\xa2 headaches & migraines\xe2\x80\xa2 fibromyalgiaQuestions? Bugs? Feature Requests? We want to hear from you to ensure a 5-star experience!\xe2\x80\xa2 Website: http://www.managinglife.com/contact-us/\xe2\x80\xa2 Twitter: http://twitter.com/#!/lifecontrolsw\xe2\x80\xa2 Facebook: http://goo.gl/kyLqj\xe2\x80\xa2 Google+: http://goo.gl/TyXjCUse this pain management app to replace your hand-written:\xe2\x80\xa2 pain diary\xe2\x80\xa2 pain journal\xe2\x80\xa2 pain log\xe2\x80\xa2 pain trackerFeature 1 - Track your pain using a powerfully customizable yet simple entry screen\xe2\x80\xa2 Intuitive and Medically-Relevant Description Approach\xe2\x80\xa2 Pre-Populated Yet Customizable Descriptors\xe2\x80\xa2 Touch-based entry in 30 secondsFeature 2 - Get insight to your condition through statistics, charts, graphs, and calendar views\xe2\x80\xa2 Single Screen Summary\xe2\x80\xa2 Pie Charts To Visualize Characteristics\xe2\x80\xa2 Severity Over Time\xe2\x80\xa2 Monthly Calendar View\xe2\x80\xa2 Sort & Filter Record ListFeature 3 - Sync with the cloud to safe-keep your records and keep all your devices up to date\xe2\x80\xa2 Never Lose Your Data\xe2\x80\xa2 Keep All Your Android Devices In Sync\xe2\x80\xa2 Have Full Offline FunctionalityFeature 4 - Share what you're going through by creating evidence-based reports for diagnosis, treatment, and claims\xe2\x80\xa2 Enable Evidence-Based Diagnosis & Treatment\xe2\x80\xa2 Support Medical Insurance & Disability Claims\xe2\x80\xa2 Email or Print ReportsFeature 5 - Personalize your account by recording your medical and personal characteristics\xe2\x80\xa2 Record Your Pain Conditions\xe2\x80\xa2 Have A Central Place For Your Personal Characteristics\xe2\x80\xa2 New Elements Being Added RegularlyFeature 6 - Get support from a responsive team and detailed user guides\xe2\x80\xa2 Detailed User Guides\xe2\x80\xa2 Get Fast Responses From Support\xe2\x80\xa2 Frequently Asked QuestionsRecent changes:Version 1.73 (12-Mar-2013):\tFeatures:\xe2\x80\xa2 Support for Russian languageFixes:\xe2\x80\xa2 App is usable after logging off\xe2\x80\xa2 Bug that prevented users from adding new pain conditions to Profile"
p4
tp5
tp6
.