((S'Title'
p0
S'MapFactor: GPS Navigation '
p1
tp2
(S'Description:'
p3
S'MapFactor Navigator is a free turn-by-turn GPS navigation app for Android phones and tablets using OpenStreetMaps data. Maps are installed on the SD card so there is no need for an Internet connection when traveling. Map and app updates are FREE every month.To contact us or make your views heard please use forum.mapfactor.com as Google Play does not allow us to answer your comments or queries.MapFactor also makes the popular NavigatorFREE for PC, Pocket PC and WinCE.OpenStreetMap is a collaborative project to create a free editable map of the world. For more information see www.openstreetmap.orgVoice guidance     * intuitive voice navigation in different languages     * door to door route planning     * cross-border routing without the need to switch between countries or to a less detailed map     * overview of the upcoming manoeuvre and distance shown on the screen GPS satellite navigation     * 2D/3D mode allows realistic visual map display     * day/night modes switch colour schemes for day or night time driving     * map rotates in driving direction, or north up Searching     * find nearest points of interest     * postcodes     * full GB postcodes (1.8 million) Speed cameras     * hear audible warnings as you approach speed cameras Features     * add your own favourite locations and routes     * routing modes for car, pedestrian, truck     * route avoidance - block off certain road from your route------------ OpenStreetMap data ------------ = EuropeAlbaniaAndorraArmeniaAzerbaijanAustriaBelarusBelgiumBosnia And HerzegovinaBulgariaCroatiaCyprusCzech RepublicDenmarkEstoniaFaroe IslandsFinlandFranceGeorgiaGermanyGibraltarGreeceGuernseyHungaryIcelandIrelandIsle Of ManItalyJan MayenJerseyKosovoLatviaLiechtensteinLithuaniaLuxembourgMacedoniaMaltaMoldovaMonacoMontenegroNetherlandsNorwayPolandPortugalRomaniaRussian FederationSan MarinoSerbiaSlovakiaSloveniaSpainSwedenSwitzerlandUkraineUnited KingdomUnited Kingdom Postcode - Ordnance Survey Vatican City= AmericaAntigua And BarbudaArgentinaArubaBarbadosBelizeBoliviaBrazilBritish Virgin IslandsCanadaCaribbean NetherlandsChileColombiaCosta RicaCrozet IslandsCubaCuracaoDominicaDominican RepublicEcuadorEl SalvadorFrench GuianaGrenadaGuadeloupeGuatemalaGuyanaHaitiHondurasJamaicaMartiniqueMexicoMontserratNicaraguaPanamaParaguayPeruPuerto RicoSaint Kitts And NevisSaint LuciaSaint MartinSaint Vincent And The GrenadinesSt Pierre And MiquelonSurinameThe BahamasTurks And Caicos IslandsTrinidad And TobagoUruguayUnited States of AmericaVirgin IslandsVenezuelaWallis And Futuna= AsiaAfghanistanBahrainBangladeshBhutanBruneiCambodiaDemocratic Republic Of Timor LesteGaza StripChinaIndiaIndonesiaIranIraqIsraelJapanJordanKazakhstanKuwaitKyrgyzstanLaosLebanonMalaysiaMaldivesMongoliaNepalNorth KoreaOmanPakistanPalestineQatarPhilippinesSaudi ArabiaSingaporeSouth KoreaSri LankaSyriaTaiwanTajikistanThailandTurkeyTurkmenistanUnion Of MyanmarUnited Arab EmiratesUzbekistanVietnamYemen= AustraliaAustraliaFederated States Of MicronesiaFijiGuamKiribatiMarshall IslandsNauruNew CaledoniaNew ZealandNorthern Mariana IslandsPalauPapua New Guinea= AfricaAlgeriaAngolaBeninBotswanaBurkina FasoBurundiCameroonCape VerdeCentral African RepublicChadComorosCongoDemocratic Republic Of The CongoDjiboutiEgyptEquatorial GuineaEritreaEthiopiaGabonGambiaGhanaGuinea BissauGuineaIvory CoastKenyaLesothoLiberiaLibyaMadagascarMalawiMaliMauritaniaMauritiusMoroccoMozambiqueNamibiaNigerNigeriaRwandaSao Tome And PrincipeSenegalSeychellesSierra LeoneSomaliaSouth AfricaSudanSwazilandTogoTunisiaUgandaUnited Republic Of TanzaniaWestern SaharaZambiaZimbabweRecent changes:1st birthday release 1.0.0- application name changed from "MapFactor Navigator (beta)"- bugfixes (speedcam, NMEA line ends, odometer, save edited links, edit params ...)0.14.30contact integrationexpanded search detours from your journey to avoid traffic jamsfix for white screen crashfix for restarting engines crash after downloadsearch in nearby streets even for ETownCentre without streetsdownloader better resumingbetter house number textplacingadded pt localization (Brazilian)...'
p4
tp5
tp6
.