((S'Title'
p0
S'MapMyRun GPS Running '
p1
tp2
(S'Description:'
p3
S'Built to help runners, joggers, and walkers of all ability levels and ages. Easily track pace, distance, calories, time with audio alerts and much more! \xe2\x80\x9cThe best part of my run\xe2\x80\x94the MapMyRun app. I\xe2\x80\x99m in love with this thing\xe2\x80\xa6 With MapMyRun, all you do is press Start when you begin your work out, and it calculates your route, mileage, minutes per mile and calories burned.\xe2\x80\x9d - @plankpilates Track running, cycling, and over 600 types of other activities with: \xe2\x8a\x95 Pace \xe2\x8a\x95 GPS Route Mapping \xe2\x8a\x95 Distance \xe2\x8a\x95 Route navigation \xe2\x8a\x95 Calorie counting \xe2\x8a\x95 Elevation profile \xe2\x8a\x95 Nutrition, food, diet, and weight tracking \xe2\x8a\x95 Real-time Stats (avg/min/max pace, distance, time, etc) during workout \xe2\x8a\x95 Voice prompts that give you updates on your progress as you go! \xe2\x8a\x95 Compete on local Courses: receive automatic achievements and overall rank on Leaderboards for popular local runs and rides. \xe2\x8a\x95 Tracks in the background so you can listen to music, take calls, and use any other feature of your phone, while still tracking Bragging (optional!): \xe2\x8a\x95 Post your workouts to Facebook and Twitter, or keep every thing completely private All of your info syncs securely with your free account on www.MapMyRun.com. Perfect training app for \xe2\x80\x9ccouch to 5K\xe2\x80\x9d, all the way to elite marathoner, or even someone just looking for a weight loss, diet or calorie counting app. Great for training for 10K, half marathon, marathon, even 50k (battery life up to 8 hours of tracking on newer phones!). Visit www.MapMyRun.com to: \xe2\x8a\x95 Search the world\xe2\x80\x99s largest database of running, walking, and cycling routes. \xe2\x8a\x95 Join sponsored challenges and WIN PRIZES (i.e. trips and shoes) just for running. \xe2\x8a\x95 Connect with our community of millions of fitness enthusiasts. \xe2\x8a\x95 Sync devices like Nike+, Garmin, Polar, CycleOps Joule, PowerTap, Fitbit, Timex, Magellan. Tips: \xe2\x8a\x95 Turn off wifi before you start, to improve battery life and GPS accuracy. \xe2\x99\xac Play music! This app keeps tracking your run in the background, so you can play your iPod, run Pandora or your favorite music app simultaneously. \xe2\x99\xac \xe2\x8a\x95 Explore settings, with many great features including auto-pause, audio alert settings and more -- Be sure to visit us at www.MapMyRun.com for the full experience.Recent changes:New in 2.7:\xe2\x9c\xad Improved GPS accuracy and tracking.\xe2\x9c\xad Uses less battery during your run.\xe2\x9c\xad More Voice Feedback stats. (Time of Day, Splits and Recording Paused)\xe2\x9c\xad More Voice Feedback interval options.\xe2\x9c\xad Improved workout save and sync. Better than ever!\xe2\x9c\xad Instantly see your workout stats when you finish.\xe2\x9c\xad Upgrade to MVP to remove all ads!\xe2\x9c\xad We listened and fixed the problems.2.7.4: Improved Auto Pause for running and riding. Fixes for some HTC devices.'
p4
tp5
tp6
.