((S'Title'
p0
S'Medical Calculators '
p1
tp2
(S'Description:'
p3
S"Pediatriconcall's Medical CalculatorsThis is an free application for all medical personal followed by the Pediatriconcall page relating to http://www.pediatriconcall.com/fordoctor/pedcalc/calcmain.aspxCalculators included are categorized as follows:Growth Calculator:\xc2\xbb \tPredict Height\xc2\xbb \tMid Parental Height\xc2\xbb \tBody Surface Area (BSA)\xc2\xbb \tBody Mass Index (BMI)\xc2\xbb \tBasal Metabolic Rate (BMR)Conversion Calculator\xc2\xbb \tConversion of Temperature Celsius to Fahrenheit\xc2\xbb \tConversion of Weight From Pound to Kg\xc2\xbb \tConversion of cm to inchesRenal Conversions\xc2\xbb \tSerum Osmolality\xc2\xbb \tBicarbonate & Base Excess\xc2\xbb \tFractional Excretion Of Sodium\xc2\xbb \tCreatinine Clearance\xc2\xbb \tCreatinine Clearance (Schwartz Formula)\xc2\xbb \tNormal Values Of GFR\xc2\xbb \tAnion Gap CalulatorPregnancy Calculators\xc2\xbb \tAPGAR Score\xc2\xbb \tOvulation Date Calculator\xc2\xbb \tPregnacy Due Date Calculator\xc2\xbb \tConception Date CalculatorBlood Pressure Calculator\xc2\xbb \tBlood Pressure CalculatorBlood Group Detection\xc2\xbb \tFind Your Blood GroupCritical Care\xc2\xbb \tAlveolar arterial Gradient (A-a gradient)\xc2\xbb \tET Size\xc2\xbb \tNormal Respiratory Rate\xc2\xbb \tPredicted Mean Peak Respiratory Flow Rates\xc2\xbb \tCorrected QTc Calculater\xc2\xbb \tSodium Deficit in Hyponatremia Calculater\xc2\xbb \tBurns Fluid Requirement CalculaterDrug Dose Calculators\xc2\xbb \tEmergency Drug FormulaDiarrhea Solution Calculators\xc2\xbb \tDiarrhea Solution\xc2\xbb \tIV Rates CalculatorBlood Reference Values\xc2\xbb \tWBC Count\xc2\xbb \tCoagulation Profile\xc2\xbb \tBlood Indices\xc2\xbb \tImmunoglobulin IgG Subclass Levels\xc2\xbb \tImmunoglobulin Reference Values\xc2\xbb \tSerum Complement Reference Values\xc2\xbb \tLymphocyte Reference Values\xc2\xbb \tCorrected CSF WBC Count for RBC`s Calculater\xc2\xbb \tCorrected Reticulocyte Count CalculaterEndocrine And Antibody Tests\xc2\xbb \tThyroid Function Test\xc2\xbb \tAntibodies & Their Associated DiseasesDrugs Interaction\xc2\xbb \tDrugs Interaction Calculator  *Supports API levels 8 & above (Android 2.2 and above)TAGS: Pediatrics, child health care, drug index, vaccine reminder, children health, medical calculators, pediatriconcall.Recent changes:v2.3*General performance enhancements*Numerous stability and performance improvementsv2.0New improved interface for the app for better useLogin required to use the application (Pediatriconcall login can be used with email or sign up with new account)Several other features addedSome minor bugs fixed"
p4
tp5
tp6
.