((S'Title'
p0
S'meinKlub - Bundesliga live '
p1
tp2
(S'Description:'
p3
S"Hol' dir mit meinKlub die Fu\xc3\x9fball Bundesliga aufs Smartphone!Mit der meinKlub App bist du immer aktuell \xc3\xbcber die Fu\xc3\x9fball Bundesliga und 2. Bundesliga informiert. Egal ob Fan vom FC Bayern M\xc3\xbcnchen, vom BVB, Dynamo Dresden oder Eintracht Braunschweig, die neuesten Nachrichten zu deinem Klub erh\xc3\xa4ltst du direkt auf einen Blick. Auch zu den anderen Klubs der 1. und 2. Bundesliga bekommst du alle Neuigkeiten aus erster Hand.Im Live-Ticker bist du 90 Minuten hautnah dabei. Ein Tor f\xc3\xbcr den HSV, Borussia M\xc3\xb6nchengladbach oder den SV Werder Bremen? Im Live-Ticker von meinKlub erf\xc3\xa4hrst du noch mehr! Vergleiche die Zweikampfbilanz, die Laufstrecke oder die Passgenauigkeit des VfB Stuttgart mit der des 1. FC K\xc3\xb6ln. Wann spielt mein Klub? Gibt es Tore, Karten, Wechsel? Mit Live-Statistiken wei\xc3\x9ft du auf einen Blick, wie sich die Teams w\xc3\xa4hrend des Spieltags schlagen. Neben 1. und 2. Bundesliga bekommst du zus\xc3\xa4tzlich die 3. Liga, die Champions League, die Europa League und internationale Top-Spiele im Live-Ticker. Im gro\xc3\x9fen Ergebnisdienst informieren wir dich mit Live-Ergebnissen \xc3\xbcber das Geschehen in der Frauen-Bundesliga sowie insgesamt zw\xc3\xb6lf europ\xc3\xa4ischen Fu\xc3\x9fball-Ligen \xe2\x80\x93 darunter die Premier League aus England, die Primera Division aus Spanien und die italienische Serie A. Hierzu erh\xc3\xa4ltst du alle Spielpl\xc3\xa4ne, Live-Scores und Tabellen!Stimme \xc3\xbcber Facebook Fanges\xc3\xa4nge deines Klubs an oder starte eine Laola-Welle! Jetzt kannst du Spielszenen aus dem Live-Ticker kommentieren oder Aktionen, Schlachtrufe und Schm\xc3\xa4hges\xc3\xa4nge zu allen Begegnungen deines Klubs mit deinen Freunden teilen.meinKlub bietet dir die aktuellen News zu allen Klubs der Bundesliga und 2. Bundesliga: 1. FC N\xc3\xbcrnberg, 1. FSV Mainz 05, 1899 Hoffenheim, Bayer 04 Leverkusen, Bayern M\xc3\xbcnchen, Borussia M\xc3\xb6nchengladbach, Borussia Dortmund, Eintracht Frankfurt, FC Augsburg, FC Schalke 04, Fortuna D\xc3\xbcsseldorf, Hamburger SV, Hannover 96, SC Freiburg, SpVgg Greuther F\xc3\xbcrth, VfB Stuttgart, VfL Wolfsburg, Werder Bremen, 1. FC Kaiserslautern, 1. FC K\xc3\xb6ln, 1. FC Union Berlin, Dynamo Dresden, Eintracht Braunschweig, Energie Cottbus, Erzgebirge Aue, FC Ingolstadt, FC St. Pauli, FSV Frankfurt, Hertha BSC Berlin, Jahn Regensburg, MSV Duisburg, SC Paderborn 07, SV Sandhausen, TSV 1860 M\xc3\xbcnchen, VfL Bochum 1848, VfR Aalen.Dazu gibt es f\xc3\xbcr alle Fans des deutschen Profi-Fu\xc3\x9fballs Videos und Konferenz-Ticker sowie Live-Ticker, Aufstellung, Spielstats und Bilanz je Partie.Alle Live-Ergebnisse, Tabellen sowie alle Spieltage kriegst du zum DFB-Pokal, der Champions League, der Europa League, sowie Premier League (England), Primera Division (Spanien), Serie A (Italien), Ligue 1 (Frankreich), Bundesliga (\xc3\x96sterreich), Eredivisie (Niederlande), Jupiler Pro League (Belgien), SuperLiga (Portugal), Premier League (Schottland), Super League (Schweiz), S\xc3\xbcper Lig (T\xc3\xbcrkei) und Premier Liga (Russland).Viel Spa\xc3\x9f mit der App w\xc3\xbcnscht das meinKlub-Team!Recent changes:Vielen Dank f\xc3\xbcr Euer tolles Feedback! Eure W\xc3\xbcnsche versuchen wir schnellstm\xc3\xb6glich umzusetzen.Dieses Update enth\xc3\xa4lt kleinere Bugfixes und Performance-Optimierungen."
p4
tp5
tp6
.