((S'Title'
p0
S'Meme Generator (U-MEME) '
p1
tp2
(S'Description:'
p3
S'\xc2\xbfYou tend to make your own memes??And if you do ..... You still have not tried U-MEME?NOW YOU CAN TAKE IMAGES FROM YOUR GALLERY!!!NOW YOU CAN MAKE A MEME DIRECTLY FROM WHATSAPP OR FACEBOOK!!But it is the simplest memes generator you\'ll find on the Market!Using our application you can make your own meme with only 3 clicks!Most extense gallery, 244 Memes!After our experience with other applications related to memes, we think about how to makea new application that you could generate memes really simple, with or withOUT internet connection, sowe decided to unite and improve our applications "Meme Collection" (Prize "FileDir - 5 Stars Reviewer\'s Choice Winner 2012") and "MEM-GEN" (Prize "AppEggs - Editors Pick"), and the result was "Ultimate Meme Generator (U-MEME)", the most complete and simple generator without internet memes for Android.Choose from 244 updated memes (and will continue augment), from the classics "Trollface" or "Feel like a sir" to the recents "Sympathy Sacha" or "San Juan Cholo", categorized into four categories so you can find them easily.10 reasons why "U-MEME" is different from other generators:---------------------------------1. Leaves no watermark on generated meme.2. No popup or ad asking you to buy anything.3. Doesn\'t will install "junk apps" (Advertising).4. Not will change your navigator home page.5. Great selection of pictures (The largest offline collection)6. If you want to make a meme when you don\'t have internet connection ... You can then save it!7. No need internet, for nothing!!8. You can move the app to SD card9. IT\'S FREE!!10. You can help keep the collection updated by sending the last memes you\'ve seen on the internet and are not yet included in "MEM-GEN"You can choose memes like Advice Polish memes, All the Things, anoying facebook girl, Arnold Advice, Bad Lucky Brian, Belfast Boy, Better to drink my piss, Brace yourselves, chemistry cat, various of Chuck Norris, Clarinet Boy, Conspiracy Keanu, more than 40 types of "advices" disaster girl, First World Problems, good guy greg,Joseph Ducreux, justin bieber fans, koala can not beleive it, trollface, YU NO, FapFap ... and so many many more!The operation method is simple:When the application starts, it will displays a grid, click the meme that you want to use, and then click the "Edit" button (has a pencil)Put the text .... and you\'re done!--------DISCLAIMER: The images are not made by KNUApps Team.The pictures in this app do not redeem the Opinions of the KNUApps Team. Most of the pictures are found or user submitted Specialized looking into web pages. Do not give bad reviews to picture Because You find offensive. The app contains the MOST famous memes throught the net.If you like our app and would like to support our work you can click on the ads, share our app with your friends or send us the latest memes using the button located at the "About" popup or via mail (knuapps@gmail.com ).IF YOU FIND ANY BUG * PLEASE LET U.S. KNOW *. TELL U.S. WHICH DEVICE AND ANDROID VERSION YOU ARE USING AND DO NOT FORGET TO DESCRIBE THE PROBLEM.THIS IS THE ONLY WAY TO REMOVE BUGS.IF WE DO NOT KNOW THAT A BUG EXISTS, WE CAN NOT FIX IT.Thank you.Recent changes:+v1.2.1.2: +24 MEMES!! NOW YOU CAN MAKE A MEME DIRECTLY FROM WHATSAPP+v1.2.1: Fixed "take from gallery" bug.+v1.2: Now You can TAKE IMAGES FROM YOUR GALLERY!!!'
p4
tp5
tp6
.