((S'Title'
p0
S'Mint.com Personal Finance '
p1
tp2
(S'Description:'
p3
S'ACCOLADES* Google Play: "Best Apps of 2012"* CNN Money: \xe2\x80\x9c6 Best Banking & Budget Apps\xe2\x80\x9d (2012)* Kiplinger\xe2\x80\x99s: \xe2\x80\x9cBest Online Money-Management Tools\xe2\x80\x9d (2012)* PC Magazine: \xe2\x80\x9cThe 100 Best Android Apps of 2012\xe2\x80\x9d (2012)* PC Magazine: "Editors Choice" (2013)* WIRED App Guide:  \xe2\x80\x9cBest Personal Finance App\xe2\x80\x9d (2012)* Winner, 2012 Appy Awards (Finance)* Winner, 2012 Webby Awards (Financial Services & People\xe2\x80\x99s Voice)WHY OVER 11 MILLION PEOPLE LOVE MINT.COMTHE BEST FREE WAY TO MANAGE YOUR MONEYMint pulls in all your personal finance accounts into one place, so you can manage your money from anywhere. Track your spending, create a budget, and save more. MANAGE YOUR MONEY ANYWHERE\xe2\x80\xa2 See all your personal finance accounts\xe2\x80\x94checking, savings, and credit cards.\xe2\x80\xa2 Automatically categorizes transactions.\xe2\x80\xa2 Charts and graphs show you at a glance where you\xe2\x80\x99re spending. (tablet only)\xe2\x80\xa2 Track your budget.\xe2\x80\xa2 Track your cash spending.\xe2\x80\xa2 View finances offline. The app stores information from your latest download. (tablet only) \xe2\x80\xa2 Get email or text alerts that notify you of upcoming bills, fees, low balances, unusual activity and more. IT\xe2\x80\x99S EASY TO GET STARTED.\xe2\x80\xa2 Get the free app and sign up for free with Mint.\xe2\x80\xa2 Securely connect your accounts. \xe2\x80\xa2 Mint automatically organizes everything and creates a budget for you. SAFE AND SECURE.Your app is passcode protected. If you lose your device, or even temporarily misplace it, simply log-on to your Mint.com account and deactivate device access from your profile page with one easy click. SYNCS WITH MINT.COM ON WEB, MOBILE AND TABLETAlways have access to your account from your mobile, tablet and the Web. Your information automatically syncs across devices so you have your latest information at your fingertipsPlease note that Mint currently connects to US and Canadian financial institutions only.Widget users, moving the app to a SD card will disable the widget. http://bit.ly/mintwidgetTo learn how Intuit protects your privacy, please visit https://www.mint.com/how-it-works/security/policy/When you download and use Mint, you agree to the Mint Terms of Service https://www.mint.com/how-it-works/security/terms/.Recent changes:2.6.3* Resolved issue where only balances and budget totals are shown* For offline users, the "No Connection" toast will only be shown once* Addressed manual transaction crashes2.6.2*  From the transaction list on your phone, swipe left to quickly categorize a transaction*  Automatic refresh.  Enable it to refresh data every 4 hours*  Improved 4x1 Widget Support*  Faster transaction download times and speedier page load times'
p4
tp5
tp6
.