((S'Title'
p0
S'mobile9 '
p1
tp2
(S'Description:'
p3
S'**Official app from mobile9.com**Find and download over 2 million FREE high quality themes, wallpapers, ringtones and more directly on your phone. Now your phone can be unique!Key Features:+ supports Android Themes (Go Launcher themes, ADW themes)+ Supports Wallpapers (regular HD wallpapers and Live Wallpapers)+ Supports Ringtones (Notification Alerts, Alarm sounds)+ Fresh dose of high quality content daily+ Optimized for each screen size and device type+ Browse Popular, Featured and Recent+ Save for later use on the SD cardBrought to you by mobile9.com. Over 40 million users are using mobile9 monthly to discover and distribute awesome mobile contents.Recent changes:New features\xe2\x80\xa2 auto detect device screen\xe2\x80\xa2 loading gallery files continuously (waypoint)\xe2\x80\xa2 cancel download progress\xe2\x80\xa2 downloaded files showing real filename \xe2\x80\xa2 swipe preview images\xe2\x80\xa2 more files to load in gallery (max. page is 200)\xe2\x80\xa2 for every connection error, have option to retry the operation\xe2\x80\xa2 optimized for tablet & high density device'
p4
tp5
tp6
.