((S'Title'
p0
S'MobileVOIP Cheap Calls '
p1
tp2
(S'Description:'
p3
S"Cheap Calls: The MobileVOIP dialer lets you make cheap calls to national or international destinations. MobileVOIP is the best Android voip solution; save on your mobile phone costs right away, by using this Mobile voip (MVoIP) cheap calls app! MobileVOIP offers free 3G calls or WiFi calls for Android, Symbian and iPhone users! Save on monthly calling charges!Travel Roam free with MobileVOIP! You never have to worry about high roaming costs abroad anymore! When abroad, simply use MobileVOIP over a WiFi network! Whether in a restaurant, hotel room or public HotSpot, you can now save on mobile calling charges when travelling abroad as well!Simply install our free calling app, register with one of the many supported VOIP brands and save loads of money on your international calls. If your selected destination is not among the FREE destinations, using mobile voip calls enable you to call them at almost no costs. MobileVOIP offers either FREE calls or very cheap calls to any international destination!- Make sure you have an account from a supported VoIP provider. NEW: signup now via www.MobileVOIP.com !- Make free international calls over SIP technology with this mobile voip dialer- Use your own contacts from within the free calls app- Connect to Internet using 3G, WiFi, UMTS and use your voip credit on the go for cheap calls.- Place FREE international calls to a selection of destinations.- Enjoy the cheapest international calls to any other destination.- Cheaper than Skype! More possibilities than Viber! No one offers cheaper calls!Stop spending too much money on your international calls; use cheap 3G calls or cheap WiFi calls with MobileVOIP. MobileVOIP is the best FREE calls app you'll find on the market! Install MobileVOIP for your Android VoIP calls and call for free!Looking for an older version of the app? Visit our website at http://www.mobilevoip.com!A few of the most popular countries you can make cheap international mobile internet calls to: Bangladesh, Brazil, China, Egypt, Germany, India, Indonesia, Iran, Iraq, Morocco, Nigeria, Pakistan, Poland, Romania, Russia, Saudi Arabia, Spain, Sri Lanka, Turkey, Ukraine and any other destination.MobileVOIP is a Mobile Voip (MVoIP) application developed by Finarea. It supports all Dellmont VoIP brands and enables it's users to save on their monthly calling charges by over 95%. MobileVOIP is a free voip dialer available for Android phones, Symbian phones, Windows Phones, BlackBerry and iPhones. Download MobileVOIP and call for free!! MobileVOIP does not support peer-to-peer calls to Skype users or Viber users. In order to improve the application and offer the best service possible, this app uses Google Analytics for Mobile Apps.Recent changes:1.\tLandscape option for tablets2.\tFixed microphone issues"
p4
tp5
tp6
.