((S'Title'
p0
S'Mobile Coupons & Deals '
p1
tp2
(S'Description:'
p3
S"Coupons Updated Daily Including Mother's Day! The best selection of in-store mobile coupons & deals for your favorite stores like Gap, Old Navy, Aeropostale, Abercrombie and Fitch, Victoria's Secret, Forever 21, Bath & Body Works, Express, Wet Seal, Hollister, Starbucks and more! Lots of Mother's Day coupons.Shopular is the coupon app that will give you the best coupons you can use right from your phone. The best part? Shopular is a clever app and sales will pop up automatically as soon as you reach the mall! You simply go shopping at your favorite mall and TING, your favorite mall coupons & mall deals will magically pop up on your phone.Also includes weekly ads and sunday circulars of stores like Walmart, Target, Best Buy, Macy's, Kohls, Toys R Us, CVS, Walgreens, JC Penney, Kmart, Home Depot, PetCo, PetSmart and more!Never shop without a coupon or deal again! Shop for Mother's Day. Includes crazy deals like FREE coffee at starbucks!Shopular covers over 1000 malls across the US including most large outlet malls. Mobile coupons are updated daily from tons of brands like Abercrombie and Fitch, American Eagle, Aeropostale, Ann Taylor, Banana Republic, Bath & Body Works, Charlotte Russe, Express, Forever 21, H&M, Macy's, Hollister, Old Navy, Starbucks, Ulta, Victoria's Secret, Wet Seal. Weekly Circulars are updated regularly for stores like Walmart, CVS, Walgreens and more.Shopular brings this magical experience with almost no impact on your battery life. Shopular's algorithm intelligently locates you using cell towers and wifi signals first to limit any GPS usage.Our early users are raving about their experience with this coupons app.\xe2\x98\x85\xe2\x98\x85\xe2\x98\x85\xe2\x98\x85\xe2\x98\x85 I can't believe how easily I am saving so much money. Best shopping coupon app. Effortless and much easier than coupons.com - Michelle from New York\xe2\x98\x85\xe2\x98\x85\xe2\x98\x85\xe2\x98\x85\xe2\x98\x85 Shopular has absolutely changed the way I save! Best coupon app ever! No more searching endlessly for deals and offers because now Shopular will just not let me miss a deal. - Susan from ChicagoFeatures:\xe2\x80\xa2 Coupons are hand-picked so they will always work.\xe2\x80\xa2 Mother's Day coupons and deals\xe2\x80\xa2 Redeem them right from your phone. No need to print.\xe2\x80\xa2 Covers 1000+ malls including Westfield mall deals, Premium Outlets, Simon Malls and more. New locations added regularly.\xe2\x80\xa2 Mobile deals and sales pop on your phone the moment you reach the mall\xe2\x80\xa2 All content is curated to your personal favorites\xe2\x80\xa2 Sunday circulars and weekly ads for stores like Walmart, Kohls, Macy's, Best Buy, CVS, Walgreens, Kmart, Toys R Us and more\xe2\x80\xa2 The interface is simple, smart, and easy to use\xe2\x80\xa2 Find a coupon for your favorite fashion brands like Abercrombie, American Eagle, Ann Taylor, Armani Exchange, Bath & Body Works, Banana Republic, Bebe, Charlotte Russe, Express, Forever 21, Gap, H&M, Juicy Couture, Loft, Macy's, Old Navy, rue21, Tory Burch, Starbucks, Victoria's Secret, Wet Seal and many more!\xe2\x80\xa2 Uses the latest in location technology with intelligent algorithms that efficiently prevents battery drain.Go on, be the savviest shopper out there. Your friends will all want to know your coupon secret :-)Recent changes:* Mother's Day coupons and deals* Updated to work with over 1000 mall locations including outlet malls* Now you can see Weekly circulars of stores like Walmart, Target, CVS, Toys R Us, Home Depot right from the app"
p4
tp5
tp6
.