((S'Title'
p0
S'Mobile Recharge & Bill Payment '
p1
tp2
(S'Description:'
p3
S"Join millions of people who already use Paytm -  the #1 mobile recharge app in India. It is the most trusted and secure app for your mobile recharges and bill payments. \xe2\x98\x85\xe2\x98\x85\xe2\x98\x85\xe2\x98\x85The Number 1 Shopping app on Google Play\xe2\x98\x85\xe2\x98\x85\xe2\x98\x85\xe2\x98\x85\xe2\x98\x85\xe2\x98\x85\xe2\x98\x85\xe2\x98\x85The Number 1 Utilities app on Apple Store\xe2\x98\x85\xe2\x98\x85\xe2\x98\x85\xe2\x98\x85USER REVIEWS \xe2\x80\x93\xe2\x80\x9cBest app for Mobile recharge in India\xe2\x80\x9d\xe2\x80\x9cAwesome only one word to describe.... Awesome App\xe2\x80\x9d\xe2\x80\x9cBest for online and mobile prepaid recharges with original company offers\xe2\x80\x9d\xe2\x80\x9cBest Online recharge app. It\xe2\x80\x99s the best mobile recharge company I have used ever\xe2\x80\x9d******************************************************Paytm gives you the best mobile recharge experience on your Android phone. It is truly the fastest way to do recharge, in under 10 seconds, via Paytm Cash; our virtual wallet. In addition to the awesome recharge experience, Paytm provides the best in class customer care service with unwavering trust and support to keep customers 100% satisfied and always charged. With over 13,000 five star reviews, Paytm is easily the most preferred partner for prepaid recharges and postpaid bill payments in India.Get Paytm now and you can recharge anywhere, anytime!What we offer:* ALL payment options - credit card, debit card and net banking (HDFC, ICICI, SBI etc.)* Prepaid mobile recharge for ALL operators (Airtel, Vodafone, Idea, Aircel, Reliance, TATA, BSNL etc.)* Postpaid bill payment for ALL operators (Airtel, Vodafone, Idea, Aircel, Reliance, TATA, BSNL etc.)* DTH recharge and bill payment for ALL service providers (Tata Sky, Dish TV, Airtel etc.)* Data Card recharge and bill payment for ALL operators (Airtel, MTNL etc.)* Electricity bill payment* Landline bill payment * Toll Card recharge service (Currently only for the Delhi-Gurgaon Expressway) * Latest prepaid and postpaid plan offers for Topups, SMS, Data (GPRS 2G and 3G) packs* Free and exciting discount coupons with each recharge!Money stored securely in your Paytm Cash account is on a PCI DSS security certified commerce platform that uses VeriSign\xe2\x80\x99s trusted technology. Our Paytm promise to you is \xe2\x80\x98Your money is yours unless you get what you asked for.\xe2\x80\x99With Paytm, enjoy a hassle free recharge experience in the quickest and most reliable way.For any queries or concerns, please write in to care@paytm.com.Download Now and Experience the Awesomeness!Recent changes:We have introduced some new features in this update which you\xe2\x80\x99ll simply love! 1) See details of popular recharges for your operator in your city2) View your order history in 'My Orders' section3) Added more banks to the payment options4) All your Paytm Cash FAQs answered in the Paytm Cash screen from Settings.5) Enabled push notifications so you never miss out on our hottest offers Stay Charged!"
p4
tp5
tp6
.