((S'Title'
p0
S'Mobile Hidden Camera '
p1
tp2
(S'Description:'
p3
S'The first professional Spy Camera & Camcorder app since  2010, with over 3M downloads and average rating of 4.5 stars. Now we are re-listing MHC on Google PlayStore to comply with Google\'s Android in-app upgrade policy.Spy camera for SUPER SAFE stealth shooting and video recording, even right in front of other people! MHC is the only spy camera app that guarantees your safety while spy shooting with a host of stealthy and protection features.***We respond to emails quickly so send us emails if you have any technical issues. We can\'t help you if you just leave negative comments here without a contact point.**** installed as "Simple Notepad" with an unobtrusive notepad icon** Shooting & recording **- the only spy camera app powered by the sophisticated Unified Spy Engine that supports all Android versions, from Android 1.1 to the latest Android 4.x- supports both front and back camera shooting- no preview, no flash, no shutter sound- auto-continuous image shooting with adjustable frequency- burst-mode super fast shooting, up to 5 to 10 images per second- remove shutter sound even on firmware-locked devices- configurable vibration feedback upon shooting- high resolution video recording- auto-split video recording into multiple files, bypassing file size limits on any devices- timer mode for auto-stop video recording** Strictly stealthy operations **- block incoming phone calls, sms & email alerts, etc. never get embarrassed while shooting- use hardware volume buttons to start image & video shooting- turn off button & keyboard backlights on the device so it looks truly powered off- turn all screens black & blank; remain at a black & blank screen for the full shooting cycle from start to finish- fully customizable main screen & menu labels, even hide them all** Totally hidden application **- installed as "Simple Notepad" app with unobtrusive notepad icon, nobody knows you have a spy app- hidden from "recent apps" list- hide the spy app in another fully functional notepad app, nobody can notice the spy app even if they take away your device and launch the app- the app is hidden so seamlessly, it doesn\'t even ask you for a password; you unlock it just by naturally typing on the notepad** Background shooting **- show the device\'s desktop, run other apps on top or even put it to standby mode while silently shooting in the background- no more fake screens to pretend you\'re reading ebooks, just run the real app on top and behave normally, nobody can even imagine you\'re shooting underneath** Quick quit mode **- just a single touch to stop shooting and quit the application in one go- the shooting cycle from application startup, manual or continuous shooting to quitting all go unnoticed** File protection **- hide all media files from Android Gallery and other file browsing apps- fully customizable folder and file names, file prefixes and extensions, etc, no problem even if someone browses your phone contents on a computer** Self destruction **- hidden way to quickly erase all media files taken by the spy camera; a life-saving feature in case of extreme emergency** Customization **- all features can be turned on or off individually so you choose exactly how *hidden* you want to be** Diagnosis & tools **- compatibility modes to boost app reliability & performance on various devices & Android versions- support ticket system to send the developer log files for diagnosis** Compatibility **- supports all Android versions, from Android 1.1 to 4.x- rigorously tested on all Android versions** USAGE **- this app is for covert security applications, do not use this software for illegal activitiesSpy Camera, Silent Camera, Stealth Camera, Private Camera, Hidden Camera, Secret Camera, Covert Camera, Mobile CameraRecent changes:- BIG security improvements, e.g. removed Internet permission so you can be sure MHC doesn\'t connect to the net- Android 4.x Jelly Bean phones & tablets ready- full support for Android 4.x devices without hardware buttons; supports gesture controls; supports hiding the system navigation bar- auto-rotate images & videos- separate camera quality settings for each camera- use hardware volume buttons to start shooting- burst-mode super fast shooting, up to 10/s- hide all UI'
p4
tp5
tp6
.