((S'Title'
p0
S'MOGA Pivot '
p1
tp2
(S'Description:'
p3
S'MOGA\xe2\x84\xa2 Mobile Gaming Controller is required to game with the MOGA Pivot\xe2\x84\xa2 App.Buy yours at http://www.MOGAanywhere.com Console Quality Gaming on your Android Smartphone or Tablet.Get the best game experience anywhere with MOGA. The MOGA\xe2\x84\xa2 Mobile Gaming System equips you with a state-of-the-art portable controller, a library of amazing titles (more added every month) and the MOGA Pivot\xe2\x84\xa2 App, helping you find the latest MOGA Enhanced games quickly and easily. Experience the best mobile gaming solution for Android\xe2\x84\xa2 smartphones and tablets. Game On. Anywhere. Winning Reviews\xe2\x80\x9cMOGA controllers redefine mobile gaming.\xe2\x80\x9d \xe2\x80\x93 Examiner\xe2\x80\x9cBest of CES 2013\xe2\x80\x9d \xe2\x80\x93 Laptop Magazine (for MOGA Pro)\xe2\x80\x9cThis opens an entire new world of possibilities for mobile gamers\xe2\x80\x9d \xe2\x80\x93 Destructoid\xe2\x80\x9cWinner - Best Hardware of E3 2012\xe2\x80\x9d \xe2\x80\x93 Machinima (for MOGA Pocket) MOGA Pivot\xe2\x84\xa2 App- Explore the ever-growing list of MOGA Enhanced Games \xe2\x80\x93 see the full list at http://www.MOGAanywhere.com- Features the most popular titles from the industry\xe2\x80\x99s top developers- Detects automatically which titles currently installed on your device are MOGA Enhanced games, so there is no need to re-purchase games that you already own. New updates coming all the time! MOGA Pocket Controller-     Built for gaming on the go-     Compact, pocket-sized high-precision game controller with dual analog sticks, shoulder triggers and four action buttons-     Works with Bluetooth enabled Android 2.3+ smartphones and tablets-     Your phone snaps right into the MOGA Arm\xe2\x84\xa2  \xe2\x80\x93 up to 3.2 in./82mm, the largest phones in the market \xe2\x80\x93 or kick back and game on your tablet-     Unleash the true gaming power of your Android deviceMOGA Pro Controller-     Built for extended play -     Full-featured, console-style controller with clickable dual analog sticks, shoulder buttons and triggers, D-pad, and four action buttons-     Internal, rechargeable batteries with a USB recharging cable-     Wireless Bluetooth connection works with phones and tablets-     HID compatible (requires Android 3.1+)-     Unleash the true gaming power of your Android deviceRecent changes:What\xe2\x80\x99s New in Version 1.14NOTE: PLEASE RESTART YOUR PHONE AFTER THE UPDATE.\xe2\x80\xa2 Adjustments to improve phone battery life\xe2\x80\xa2 Minor tweaks and fixes'
p4
tp5
tp6
.