((S'Title'
p0
S'Mokriya Craigslist '
p1
tp2
(S'Description:'
p3
S'The BEST, OFFICIALLY LICENSED craigslist app with NO ADS! **** TIME **** Mokriya Craigslist is a thoroughly slick, modern piece of software \xe2\x80\x94 one which looks like what Craigslist might be if it had been invented in 2013 by someone who cared about design. **** WSJ **** Mokriya created a craigslist mobile app to allow users a Pinterest-like experience while searching, buying and selling on the popular Internet marketplace.**** PandoDaily **** Today, mobile app engineering and design firm Mokriya launched an officially licensed Craigslist app for iOS that\xe2\x80\x99s head and shoulders above any other Craigslist app, in terms of design.**** VentureBeat **** If Craigslist was Pinterest, it would look like this app. Craigslist is possibly one of the ugliest sites on the web. But you can experience it as if it was Pinterest, as long as you use Mokriya Craigslist on your smartphone.This is Craigslist like you have never seen and experienced before. Browse worldwide craigslist directory with beautiful photos! Find anything, anywhere with comprehensive search filters, owner/dealer, multi-city search and GPS based searches. Simply snap photos, add title and description and post under 1 minute. Save your searches, setup alerts and get notified when listings match. This is the most beautiful craigslist app out there -- made with love by Mokriya, a premier app development studio that has worked on many blockbuster consumer Mobile Apps for clients! POST IN UNDER 1 MINUTE* Just add a title, description, some photos - and reach millions of craigslist users!* The EASIEST way to postBROWSE/SEARCH ANYTHING, ANYWHERE* Find anything nearby, within select cities, or within 50 states and 70 countries worldwide!* Find apartments on a MAP, with sneek peak* BEAUTIFUL photos and descriptions* Set ALERTS and get push notifications - never miss a great deal on craigslist again!MOST ADVANCED SEARCH OPTIONS* Search for-sale by price/images/owner/dealer* Search apartments by price/bedrooms/cars ok?/dogs ok?* Search personals by ageDEDICATED TO PERFECTION* Love us ? Please rate 5 stars!* Have a problem ? Please email craigslist@mokriya.com and we\xe2\x80\x99ll get back to you shortlyRecent changes:Version 1.9:* Issues with adding pictures when Posting is fixed!* Stability Enhancements* Better sorting options* Improved results in MapsVersion 1.8:* Fixed missing ad titles* Share an ad on Facebook* Viewed ads are marked gray* Ability to see full screen photos in landscapeVersion 1.7:* Select multiple locations when searching* Alerts will now indicate new results with a green bar* Pinch and zoom pictures* Map for all categories (if location is available)* Flag a post'
p4
tp5
tp6
.