((S'Title'
p0
S'Movie Tube '
p1
tp2
(S'Description:'
p3
S'Movie Tube collect all YouTube movies in one app to make it easier to watch free full movies. With Movie Tube, you can find HD movies from 2013 to 1980s. We frequently update new movies and remove invalid links. To play a movie, simply click the image and choose YouTube app to open it. Disclaimer: All movies link to YouTube. We do not host/upload any media content. Please report to YouTube or email us if any movie we linked is unauthorized.'
p4
tp5
tp6
.