((S'Title'
p0
S'Movie Tones '
p1
tp2
(S'Description:'
p3
S'Featuring 40 ringtones from the most iconic movie soundtracks of all time! Bringing the best sounds of Hollywood cinematography right to your fingertips, Movie Tones provides an experience like no other, combining optimized audio-phonic capabilities with a collection spanning the most renowned movie soundtracks in history! Mix and match among your favorites, even add to your selections from thousands of sounds across countless genres! Timeless ringtones, classic SMS tones, customized alarms, personalized ringers, Movie Tones does it all, giving you ease-of-use and endless possibilities with the greatest tracks to ever appear on the silver screens!'
p4
tp5
tp6
.