((S'Title'
p0
S'mp3 music download Pro '
p1
tp2
(S'Description:'
p3
S'Download any mp3 song for free.Download free mp3 and make ringtone or listen to music. Choose from millions of mp3 files and download music or make ringtones. This is an easy mp3 downloader with free mp3 music download.keywords: music,soneria,mp3,zedge,ringtone,sound,ringtones,download,save,mp3 music download'
p4
tp5
tp6
.