((S'Title'
p0
S'MP3 Music Download Show '
p1
tp2
(S'Description:'
p3
S'Download any MP3 song for free. The Fastest streaming speed when you play and listen to music. This is an easy and simple MP3 downloader. Works well whenever 3g/4g/wifi.A must have music application let you downloads thousands of music and mp3 to your sdcard. You can easily manage these music in your sdcard including info, categorize, delete and so on.Music fans paradise!Keywords: music,audio,mp3,sound,save,gtunes,v6,tuneeRecent changes:Fixed a crash errorOptimized permissions'
p4
tp5
tp6
.