((S'Title'
p0
S'Music Engine '
p1
tp2
(S'Description:'
p3
S"Music Engine is a unique free app to find and download single MP3 tracks and music albums in seconds. Absolutely legal & reliable Mp3 download tool. You will love it!Music Engine is first music app for download MP3s from public domains. Music Engine uses  modern technology searching optimization for your best result.Download Mp3 songs with Music Engine to understand why this app is so popular all over the world. The main benefits of Music Engine free music downloading are as follows: - quality; - great music library; - ability to listen to music online; - simple UI interface; - Listen online music;- high level of usability; - free legal music downloads. Find any song, artist, or album you'd like to save. Best search results guaranteed!Download best quality Mp3s (up to 320 kbps) for free. The Music Engine automatically downloads the highest quality audio available.This is  best music mp3 downloader today! Try it! It simple!Notice:*Music Engine is a search engine and it does not contain copyright-protected material. It is not a p2p software, it's only a search engine.*The official permitted use of this software is restricted to the audio files freely available in public domain.Keywords:mp3 music download free fast easy music,mp3,download,ringtone editor,maker,mp3 mp4,wav,acc,aiff,ogg,rma,file downloader,mp3 download, junk music retro classic pop hip-hop paradise best mp3 download manager download, audio, songs, downloader, mp3 file, music, easy, simple, pro"
p4
tp5
tp6
.