((S'Title'
p0
S'Music download '
p1
tp2
(S'Description:'
p3
S'A must have musical application let you free download thousands of music and mp3 to your sdcard. You can easily manage these music in your sdcard including rename, categorize, delete, share and so on.Recent changes:* Fix search bugs'
p4
tp5
tp6
.