((S'Title'
p0
S'Music Download Paradise '
p1
tp2
(S'Description:'
p3
S'The best and most advanced sound search engine on Android Market! Find ringtones,sound effects,royalty free music,short clips and more.tags: ringtone maker,sound effect,music download,music paradise,music paradise litePlease readSome monetization solutions are used in this app such as notification ads and home screen search link. They are easy to remove and you can disable them from app preferences if you want. If you choose to use them, thanks!EnjoyRecent changes:- Some bugfixes'
p4
tp5
tp6
.