((S'Title'
p0
S'MX Player '
p1
tp2
(S'Description:'
p3
S'MX Player - The best way to enjoy your movies.a) HARDWARE ACCELERATION - Hardware acceleration can be applied to more videos with the help of new H/W decoder.b) MULTI-CORE DECODING - MX Player is the first Android video player which supports multi-core decoding. Test result proved that dual-core device\xe2\x80\x99s performance is better up to 70% than that of single-core devices.c) PINCH TO ZOOM - Easily zoom in and out by pinching and swiping across the screen.d) SUBTITLE SCROLL - Subtitles can be scrolled to move back and forth faster.e) KIDS LOCK - Keep your kids entertained without having to worry about them making calls or touching other apps. (plugin required)f) ANDROID 4.2 - Fully supports Android 4.2 Jelly Bean MR1.Subtitle formats:- DVD, DVB, SSA/ASS Subtitle tracks.- SubStation Alpha(.ssa/.ass) with full styling.- SAMI(.smi) with ruby tag support.- SubRip(.srt)- MicroDVD(.sub/.txt)- SubViewer2.0(.sub)- MPL2(.mpl/.txt)- PowerDivX(.psb/.txt)- TMPlayer(.txt)******About "System Tools - display system-level alerts" permission: This is useful to block any accidental key entries while you are watching videos. This input block function will make sure that you can watch videos without interruption.******Recent changes:CUSTOM CODEC BEFORE 1.7.14 IS NOT COMPATIBLE WITH THIS VERSION. PLEASE UPDATE CUSTOM CODEC IF YOU ARE UPGRADING FROM 1.7.13 AND EARLIER.(1.7.15a) Fix-up for crash when called from external app.Fixed navigation bar at the bottom to be hidden while playing video on Jellybean tablet devices.Fixed custom codec to be reloaded automatically.Added thumbnail rebuilding menu for each videos.Changed video/folder property texts to be select-able.'
p4
tp5
tp6
.