((S'Title'
p0
S'myCigna '
p1
tp2
(S'Description:'
p3
S'The all-new myCigna Mobile App gives you a simple way to personalize, organize and access your important health information \xe2\x80\x93 on the go.* It puts you in control of your health, so you can get more out of life. Your Health Has Met Its App\xe2\x84\xa0.little app. BIG FEATURES. Health Care Professional Directory \xe2\x80\xa2 Search for a doctor, dentist, pharmacy or health care facility from Cigna\xe2\x80\x99s national network and compare quality-of-care ratings ID Cards \xe2\x80\xa2 Quickly view ID cards (front and back) for entire family \xe2\x80\xa2 Easily print, email or scan right from smartphone Claims \xe2\x80\xa2 View and search recent and past claims \xe2\x80\xa2 Bookmark and group claims for easy reference Drug Search \xe2\x80\xa2 Look up and compare actual costs at 60,000 pharmacies nationwide \xe2\x80\xa2 Find closest pharmacy location using GPS \xe2\x80\xa2 Speed-dial Cigna Home Delivery PharmacySM Account Balances \xe2\x80\xa2 Access and view health fund balances \xe2\x80\xa2 Review plan deductibles and maximums Coverage\xe2\x80\xa2 View plan coverage and authorizations\xe2\x80\xa2 Learn what\xe2\x80\x99s covered under your plan Health Wallet \xe2\x80\xa2 Organize and manage all the health information you use most\xe2\x80\xa2 Store your biometric information (cholesterol, blood pressure, allergies and medications)\xe2\x80\xa2 Save contact information and build your personal contact list with the doctors, hospitals, pharmacies, emergency rooms, and other health care professionals and facilities you may call frequentlySafe & Secure \xe2\x80\xa2 We use the latest technology in secure mobile applications to protect your personal health info while online or off. The all-new myCigna Mobile App. Your health has met its app. *You must be a Cigna customer to use the secure myCigna mobile app. Features available are based on coverage you have with Cigna. About Cigna More than just an insurance company, Cigna is a global health service company \xe2\x80\x93 dedicated to helping the people we serve improve their health, well-being and sense of security. We make this happen through a broad range of integrated health care and related plans and services, and proven health and well-being programs that are targeted to the unique needs of our customers, clients and partners.Recent changes:v.1.1.2- Plan coverage for Mental Health, Substance Abuse, Life & Accident, and Disability/Leave of Absence products- Bug fixesv.1.1.1- Dependents can now search for a doctor, dentist, pharmacy or health care facility from Cigna\'s national network and compare quality-of-care ratings.- Bug fixes and minor enhancementsv.1.1 - Support for Dental & Pharmacy products- New "Health Wallet" feature- Bug fixesv.1.0.2- Fixed the install issue for Android tablets- Other minor bug fixes'
p4
tp5
tp6
.