((S'Title'
p0
S'Naked Browser Pro / NB Pro '
p1
tp2
(S'Description:'
p3
S'New app released April 11.I want everyone who purchases this web browser to be happy with it so please try the free version. It will help you become familiar with how this Pro version works: http://tinyurl.com/nbfreeMORE FEATURES COMINGSee the list of new features below. A lot of work has been done behind the scenes so many more features are coming soon!PLEASE EMAIL MEPlease email me with any bug reports or comments: androidpro@nakedbrowser.comNEW PERMISSIONSThis app does not and will never spy or monitor in any way. All permissions are used only for functionality that you want and NEVER for any other purpose. See below for more information about permissions.WHAT\'S NEW AND DIFFERENTSee http://nakedbrowser.com/pro/ for help.\xe2\x80\xa2 set whitelist rules per website for: images, JavaScript, user agent, cookies. \xe2\x80\xa2 optionally show images only over WIFI\xe2\x80\xa2 set link long press action (open in new tab or show context menu)\xe2\x80\xa2 make screenshots of web pages\xe2\x80\xa2 bookmarks import from text file makes it easy to transition from the free version\xe2\x80\xa2 see open tabs list via long pressing new tab "+" menu\xe2\x80\xa2 UI tweaks: expanded/scrollable bottom menu, bottom menu labels removed, new and higher resolution app icon, app icon label now "Browser NBPro", and some Holo theme for newer devices\xe2\x80\xa2 set web page layout algorithm (normal/wide/single column)\xe2\x80\xa2 Adobe Flash can be set to "always on", although not recommended\xe2\x80\xa2 new option: use higher priority for displaying web pages\xe2\x80\xa2 privileges added for future options/functions: GPS, system bookmarks, shortcutsPERMISSIONS\xe2\x80\xa2 Internet: ONLY for your web page requests & retrievals. Absolutely no monitoring or snooping, & ad-less too.\xe2\x80\xa2 File read/write: ONLY so you can save & upload files. Absolutely no other reason.\xe2\x80\xa2 View network & WIFI connections: ONLY to handle changes in network connectivity and allow optionally loading images only on WIFI.\xe2\x80\xa2 Keep device from sleeping: ONLY to prevent downloads from being cut off.\xe2\x80\xa2 Access download manager: ONLY to ensure access to your device\'s download manager for downloading files.\xe2\x80\xa2 Near field communication (NFC): ONLY so you can choose this app to open a web site passed via NFC.\xe2\x80\xa2 All other permissions requested are not currently used as this app is a work in progress. Once implemented, these permissions will only be used if you enable the functionality in the browser. No permission will EVER be used by this software to spy or monitor in any way.ABOUT THE USER INTERFACEUser interface graphics are a low priority at this time.LEGALUses the list from http://publicsuffix.org/ under the MPL2 license http://www.mozilla.org/MPL/2.0/Recent changes:\xe2\x80\xa2 image whitelisting; for information see http://nakedbrowser.com/pro/\xe2\x80\xa2 temporarily showing images no long requires page reload in most cases\xe2\x80\xa2 force enable zoom on web sites that attempt to limit zooming, newer devices only\xe2\x80\xa2 options and downloads views Holo themed, newer devices only\xe2\x80\xa2 minor UI tweaks'
p4
tp5
tp6
.