((S'Title'
p0
S'NatWest '
p1
tp2
(S'Description:'
p3
S'With this updated version of NatWest Mobile Banking, managing your money on the move is even easier. NEW FEATURE\xe2\x80\x98Pay your contacts\xe2\x80\x99 gets even better. You can now also send money to anyone who has a valid UK Visa card just using their UK mobile number. OTHER GREAT FEATURES\xe2\x80\xa2\tGet Cash from any NatWest, RBS or Tesco cash machine without using your debit card\xe2\x80\xa2\tPay bills or people \xe2\x80\x93 just set up and make your first payment in Online Banking beforehand\xe2\x80\xa2\tTransfer funds between your accounts\xe2\x80\xa2\tCheck your balance and recent transactions \xe2\x80\xa2\tFind your nearest cash machine or local branch \xe2\x80\xa2\tTop up your pay as you go mobile phone and up to four others (service not available on the 3 network)\xe2\x80\xa2\tView your NatWest Mortgage AccountThank you for all your feedback on previous versions of the app. It helps us keep improving, so please keep it coming. HOW TO REGISTERYou need to be a NatWest online banking customer to use the NatWest app.Once you\xe2\x80\x99ve downloaded the app, registering is simple. All you need to hand is your online banking customer number, debit card and a couple of personal details. Your details will be verified within 24 hours and we\xe2\x80\x99ll send you a text message when you\xe2\x80\x99re all set to go.Not got a customer number? Get a reminder or sign up for online banking at www.natwest.com/online PLEASE NOTEYou need to have a NatWest personal account with debit card, be over 11 and have a mainland UK mobile number starting with 07 to use this service. Pay Your Contacts and Get Cash will be available for NatWest Customers in England and Wales (only).Standard data charges may apply. Contact your network operator for details. By downloading this application, you are accepting the terms and conditions which can be viewed at www.natwest.com/mobileterms. We recommend that you save or print a copy of the terms and conditions for your records.To allow you to enjoy all of the features listed you will need to accept the following permissions:Network communication for connectivity.Your location to find your nearest cash machine or branch. Read your contact list to allow you to pay your contacts. RECENTLY CHANGED IN THIS VERSIONWe\xe2\x80\x99ve made our payments service better. You can use the new \xe2\x80\x98Pay your contacts\xe2\x80\x99 service to \xe2\x80\xa2\tPay someone with a NatWest/RBS mobile app. Payee will be notified by SMS and funds will reach the payee\xe2\x80\x99s account instantly. Sum of all such payments to NatWest/RBS app users in a day cannot exceed \xc2\xa3100. \xe2\x80\xa2\tPay someone who does not have a NatWest/RBS mobile app but has a valid UK Visa debit, credit or prepaid card and a UK mobile. You will have to inform your contact separately about the exact amount. This will be a secret between you and your contact. We\xe2\x80\x99ll send your contact a text message notifying them of the payment but not the amount. The text message will have a link to a Visa payment collection site. On this collection site your contact will have to enter the exact amount and their Visa card number. Your contact has 7 days to collect a payment from the day they receive the notification. We\xe2\x80\x99ll notify you by text message when they\xe2\x80\x99ve collected the payment and your balance has been debited. Sum of all such payments to non NatWest/RBS app users over 4 days cannot exceed \xc2\xa3100.\xe2\x80\x98Pay your contacts\xe2\x80\x99 limits are independent of daily withdrawal and Get Cash limitsYou must have available funds to send from your account (including any overdraft facility)We hope you like this new feature and look forward to your feedback.Recent changes:\xe2\x80\x98Pay your contacts\xe2\x80\x99 gets even better. You can now also send money to anyone who has a valid UK Visa card just using their UK mobile number.'
p4
tp5
tp6
.