((S'Title'
p0
S'Navy Federal Credit Union '
p1
tp2
(S'Description:'
p3
S"Banking made beautiful.The Navy Federal app helps you to manage your money, wherever you are. Sign in to your accounts one time to use all of the features- now faster than ever since you can save your information for quick access. View your account balances, review transactions with our improved account views. Deposit checks even though you are miles from the nearest branch. Easily transfer funds, pay your credit card, find ATMs and branches, view and track rates, and calculate a loan payment. And we removed the pesky registration requirement, so our international members can now use the app. All this, and we made it beautiful, too! Features: \xe2\x9c\x93 Brand new look, feel and navigation. Easier to find information on your accounts and transactions. \xe2\x9c\x93 Faster sign in. Save your access number and user ID on your phone so that you only enter your password for future sign ins. \xe2\x9c\x93 No registration required- available to all Navy Federal Online Account Access users internationally. \xe2\x9c\x93 Member to member transfers for paying friends when you're on the move. \xe2\x9c\x93 Bill Pay for making payments on the go. \xe2\x9c\x93 Deposit checks using your camera. \xe2\x9c\x93 Make payments directly to Navy Federal consumer loan and credit cards. \xe2\x9c\x93 Improved branch and ATM locator. \xe2\x9c\x93 View and track rates. \xe2\x9c\x93 Redesigned mortgage, interest, currency, and tip calculators. \xe2\x9c\x93 Safe and Secure, 24 hours a day. \xe2\x98\x85 To sign in to mobile banking, use your Navy Federal Access Number, User ID and password. If you are not set up for Navy Federal Online Account Access, apply online or call us at 1-888-842-6328 or 1-703-255-8837. *Please make sure to sign in using your Access Number and not a savings account number. As always, if you have any issues with our app, you can call us at 1-888-842-6328 or 1-703-255-8837, or reach us via Twitter at @NavyFederalHelp. Federally insured by NCUA. Message and data rates may apply.Recent changes:This update fixes an issue that prevented many of you from making mobile deposits. Mea culpa!Some other newness:\xe2\x98\x85 Member to Member Transfers. Terrific for paying friends & family back when you're out to lunch! \xe2\x98\x85 Add/remove members to send money. \xe2\x98\x85 Mortgage details & payments. Make your scheduled mortgage payment right from your device. See how much you owe, your interest rate, escrow, & more! More great things are coming over the next few months & we can't wait to show you. Stay tuned!"
p4
tp5
tp6
.