((S'Title'
p0
S'Netflix '
p1
tp2
(S'Description:'
p3
S'Netflix is the world\xe2\x80\x99s leading subscription service for watching  TV episodes and movies on your phone. This Netflix mobile application delivers the best experience anywhere, anytime. Get the free app as a part of your Netflix membership and you can instantly watch thousands of TV episodes & movies on your phone.   If you are not a Netflix member sign up for Netflix and start enjoying immediately on your phone with our one-month free trial. How does Netflix work?\xe2\x80\xa2 Netflix membership gives you access to unlimited TV shows and movies for one low monthly price.  \xe2\x80\xa2 With the Netflix app you can instantly watch as many TV episodes & movies as you want, as often as you want, anytime you want.\xe2\x80\xa2 You can Browse a growing selection of thousands of titles, and new episodes that are added regularly. \xe2\x80\xa2 Search for titles and watch immediately on your phone or on an ever expanding list of supported devices.\xe2\x80\xa2 Rate your favorite shows and movies and tell us what you like so Netflix can help suggest the best titles for you.\xe2\x80\xa2 Start watching on one device, and resume watching on another. Check out netflix.com for all the TVs, game consoles, tablets, phones, Blu-ray players and set top boxes on which you can watch Netflix.\xe2\x94\x80\xe2\x94\x80\xe2\x94\x80\xe2\x94\x80\xe2\x94\x80\xe2\x94\x80\xe2\x94\x80\xe2\x94\x80\xe2\x94\x80\xe2\x94\x80\xe2\x94\x80\xe2\x94\x80\xe2\x94\x80\xe2\x94\x80\xe2\x94\x80\xe2\x94\x80\xe2\x94\x80\xe2\x94\x80\xe2\x94\x80\xe2\x94\x80\xe2\x94\x80\xe2\x94\x80\xe2\x94\x80\xe2\x94\x80\xe2\x94\x80\xe2\x94\x80\xe2\x94\x80\xe2\x94\x80\xe2\x94\x80\xe2\x94\x80\xe2\x94\x80\xe2\x94\x80\xe2\x94\x80\xc2\xa0Netflix 2.2.0\xc2\xa0License Agreement\xc2\xa0By downloading this application you agree to the Netflix Terms of Use and Privacy Policy, located at\xc2\xa0www.netflix.com\xc2\xa01-month free Netflix membership offer is available to first time and certain former members and cannot be combined with any other offer. Internet access and valid payment method are required to redeem offer.\xc2\xa0 Netflix will begin to bill your payment method for the Netflix membership fee at the end of the free month unless you cancel prior to the end of the first month. Your Netflix membership is a month-to-month subscription that you can cancel at any time. Go to "Your Account" on the Netflix website for cancellation instructions. No refund or credit for partial monthly subscription periods. The Netflix service is only available in the country where you originally signed up. A device that streams from Netflix (manufactured and sold separately) and broadband Internet connection are required to watch instantly.For complete terms and conditions, please visit http://www.netflix.com/TermsOfUse. For privacy policy, please visit https://signup.netflix.com/PrivacyPolicy.Recent changes:\xe2\x80\xa2 Improved stability and playback bug fixes'
p4
tp5
tp6
.