((S'Title'
p0
S'NewsHunt : India News | Jobs '
p1
tp2
(S'Description:'
p3
S"NewsHunt, India's #1 mobile newspaper app brings together the News from 80+ regional newspapers in 12 languages, and the best Jobs from India.\xe2\x80\x98NewsHunt : India News | Jobs' is free and is used every day by millions of users around the world. - Recipient of GSMA Mobile Awards 2013 for Best Mobile Publishing Product- Number 1 News App on Google Play in the free \xe2\x80\x98News & Magazines\xe2\x80\x99 category on Google Play- India's Best News App & in top 10 smartphone consumed apps across all platforms by Neilsen Consumer Rankings\xe2\x80\xa8- Named the \xe2\x80\x98Most Downloaded News App\xe2\x80\x99, by GetJar.com with over 8 million downloads to date\xe2\x80\xa8- Users spend more time on NewsHunt than on YouTube, according to a report by Nielsen Informate Mobile InsightsNews Features:\xe2\x80\xa2\tRead News from 85 national & regional Newspapers, Websites & other News sources\xe2\x80\xa2\tRead News in English & 10 Indian languages, even if your phone doesn\xe2\x80\x99t support the language & font. Available in Hindi, Malayalam, Tamil, Telugu, Kannada, Bengali, Marathi, Gujarati, Punjabi & Oriya\xe2\x80\xa2\tGet Local News from over 600 Indian districts & towns, plus Cricket scores, weather, horoscopes, stock updates & classifieds\xe2\x80\xa2\tGet Alerts & Notifications of Breaking News even when you\xe2\x80\x99re not using the app\xe2\x80\xa2\tPartners: The Hindu, Hindustan Times, The Indian Express, Mid-Day, Dainik Jagran, Dainik Bhaskar, Malayala Manorama, Dinakaran, Dinamalar, Eenadu, Sakshi, Ananda Bazaar Patrika, Deccan Herald, Sakaal, Divya Bhaskar, Jagbani, India Today, BBC (Hindi), IBNLive.com & more\xe2\x80\xa2\tShare News over SMS, Email & Facebook*Find your next Job on \xe2\x80\x98NewsHunt : India News | Jobs'*Now, \xe2\x80\x98NewsHunt : India News | Jobs' lets you stay on top of the best Job opportunities that suit you, in one simple Job search experience! Combining over 1 lakh Job postings from India's best Job portals, Naukri.com & Monsterindia.com, the app makes the process of finding a Job simple & fast. Jobs Features: \xe2\x80\xa2\tSearch for Jobs by keywords, location & industry type or browse by category\xe2\x80\xa2\tFind Jobs and read detailed Job descriptions without leaving the app\xe2\x80\xa2\tSave the Jobs you like, to read & apply to later\xe2\x80\xa2\tApply to Jobs directly from your mobile\xe2\x80\xa2\tCreate your profile & let the app search for matching Jobs, even when you're not using the app\xe2\x80\xa2\tGet one-touch access to your most recent Job searches, without having to type your search query againDo enjoy reading your favourite newspapers & looking for Jobs on \xe2\x80\x98NewsHunt : India News | Jobs'. To report any issues with usage or just to share feedback and tell us how we can improve, write to support@eternoinfotech.com Keywords: NewsHunt, India Newspapers on Mobile, Mobile Indian Newspaper, Mobile Newspaper, India, Hindi, Bengali, Marathi, Gujarati, Punjabi, Kannada, Tamil, Telugu, Oriya, Malayalam, English, News, Photo Gallery, Movie Reviews, Cricket, Horoscope, GPRS, Read Newspapers, Cricket, Scores, Live Scores, ODI, Test Match, Politics, Religion, Games, Lifestyle, Photo Gallery, Bollywood News, Recipes, Health, Breaking News, Cinema, Classifieds, Business, Careers, Magazines, Lifestyle, Economy, Politics, Jobs, Find Jobs, Job Search, Job Portals, Job Sites, Naukri.com, Monster, Monsterindia.com, Naukri, Apply, Recruitment, Recruiters, IT, BPO, Call Centre, Freshers, Trainee, Finance, Sales, Marketing, Management, Software, Wi-Fi, 3G, 2G, airtel, Vodafone, Idea, BSNL, Reliance, New Delhi, Andhra Pradesh, Karnataka, Tamil Nadu, Kerala, Maharashtra, Madhya Pradesh, Uttar Pradesh, Gujarat, Punjab, Haryana, Kashmir, Bengal, Jharkhand, BangladeshRecent changes:(Note: Some users have reported NewsHunt not opening after upgrade. If you face similar issue, please uninstall and install again. Sorry for the inconvenience.)New 3.82.04 :-- By popular demand, reading modes added to change background color for news stories for better readability- New papers added for Africa- Bug fixes where certain handsets were not able to render Tamil/Telugu fonts.- Bug fix for connectivity for users from Africa- Performance improvements"
p4
tp5
tp6
.