((S'Title'
p0
S'Next Launcher 3D Trial Version '
p1
tp2
(S'Description:'
p3
S'Great news! #1 ranked top grossing app at a $15.99 price tag. Now you have a chance to experience it for FREE\xef\xbc\x81Check how it extends your imagination and capability of phones. IntroductionDesigned by GO Dev Team, Next Launcher 3D shows how 3D, dynamic and highly customizable home screen replacement app could redefine your Android Launcher -- Extend imagination, extend capabilities. Embrace the next generation of user interface to your phone! Features* Stereoscopic Screen PreviewStunning 3D screen preview with dazzling animation of screen switching enables you to access to, add, set home screen, and delete any screen in a second.* Multi-select AppsAfter selecting one app, use sliding gesture to multi-select the other apps. The fantastic interaction designs not only to wow people, but save efforts to fulfill batch operation.   * Customizing Home ScreenPacked with unlimited screen layout function, you may place icons, folders, or widgets randomly on your screen. Change 3D themes and wallpapers to reclaim your phone interface.* IconsIcons support rotation, replace, Multi-select, align and so on. Operation is easy and fantastic. Multi-select apps, long press one of the selected apps to gather them, and draw a preview path by selecting operation from app icon menu.* Rotatable DockInvert the dock upward or downward to switch among home screen, preview and editing modes.* App DrawerIcons can be arranged by name or time. You can create folders by overlapping app icons. That batch operation to add icons on home screen is also available.* 3D Widgets & Themes & Live WallpapersPopular widgets in 3D space including switch, music, clock have been released, with weather, task manager, calender, notification widgets coming soon. Numerous of 3D themes and live wallpapers are being prepared.Watch the user tutorial demo through Youtube to preview all the stunning features:https://www.youtube.com/watch?v=RNWMMEBgSu4Tips:1. Trial period will last 84 hours. If you like Next Launcher 3D, please upgrade to the full version.2. More stunning features & themes with the full version3. Please make sure you have installed Google Play Store.4. Support Android 2.3.3 or higher. Dual-core will be better.Feel free to contact us if there is any problem or suggestion.E-mail: golauncher@goforandroid.comFacebook: www.facebook.com/NextLauncherGoogle+:https://plus.google.com/u/1/104540424317126374535/postsRecent changes:V1.281.(New) Next key\xe2\x80\x94\xe2\x80\x94Support scrolling homescreens quickly2.(New) Language setting3.(Fix) Some FC bugs'
p4
tp5
tp6
.