((S'Title'
p0
S'Nimble Quest '
p1
tp2
(S'Description:'
p3
S'From the creators of Tiny Tower, Sky Burger and Pocket Planes comes Nimble Quest! Lead a conga line of heroes to glory against hordes of enemies across an endless number of stages. How many enemies can you defeat? Swipe to steer your unstoppable (seriously, you can\xe2\x80\x99t stop) party as they cut a path of destruction through levels filled with different enemies and power-ups.  Unlock and level up heroes to increase the size of your party and make them more powerful. Can your party make it from the tranquility of the Forest to the fire and brimstone of the Depths?Tired of competing alone? Join a guild and compete with other players in special time-limited Guild Quests. Is your guild skilled enough to top the global leaderboards?Recent changes:- Reduced xp / gems needed for third hero star.- Added ability to buy tokens with gems in shop.- Fixed heroes taking damage while still fading in.- Bug Fixes.'
p4
tp5
tp6
.