((S'Title'
p0
S'NOOK '
p1
tp2
(S'Description:'
p3
S"Get an incredible reading experience with NOOK for Android\xe2\x84\xa2. Choose from NOOK books, magazines, newspapers, and comics on your Android smartphone or tablet*. Shop tons of titles including bestsellers, new releases and timeless classics. Sample any NOOK Book for FREE \xe2\x80\x93 or try any newspaper or magazine subscription FREE for 14 Days.Plus, NOOK for Android now supports NOOK Comics with Zoom View**. Read your favorite comics, graphic novels, and manga on your Android tablet and smartphone.NOOK for Android lets you choose from different font sizes, turn pages with the flick of a finger, and search for words in the downloadable in-app dictionary. You can also sideload ePub files, and easily lend books to friends with the LendMe\xe2\x84\xa2 feature. The app even comes loaded with free books.And so you never lose your place, NOOK for Android syncs the last page you've read across your smartphone, tablet, or computer. No matter which device, always pick up right where you left off.With NOOK for Android, read what you love, anywhere you like.NOOK FOR ANDROID FEATURES:\xe2\x80\xa2\tOne of the largest digital libraries of books, magazines, newspapers, and comics at your fingertips\xe2\x80\xa2\tFree samples of books and free trial subscriptions of newspapers and magazines\xe2\x80\xa2\tNOOK Comics with Zoom View gives you a close up, panel-by-panel view of the story in a sequence as the author intended\xe2\x80\xa2\tSyncs the last page you\xe2\x80\x99ve read across your NOOK devices and apps, so you don\xe2\x80\x99t lose your place\xe2\x80\xa2\tAdjustable font size lets you make the text as large as you want for more comfortable reading\xe2\x80\xa2\tMultiple font types allow you to read in the typeface you like best\xe2\x80\xa2\tBrightness control gives you easy legibility in any light\xe2\x80\xa2\tSearch inside the book, add notes, bookmarks and highlights, and access an in-app dictionary\xe2\x80\xa2\tEasily transfer ePub files to read on NOOK for AndroidBetter than Kindle or Kobo, ZDNet says NOOK for Android is at the \xe2\x80\x9ctop of [their] ebook reading application list\xe2\x80\x9d, Aug 2010NEWSSTAND CUSTOMER FAVORITES INCLUDE****:Entertainment & Celebrity \xe2\x80\x93 Us Weekly, OK! Magazine, Star Health & Fitness \xe2\x80\x93 Weight Watchers, Women\xe2\x80\x99s Health, Shape, Fitness Food & Cooking \xe2\x80\x93 Eating Well, Food Network Magazine, Every Day with Rachael RaySports & Recreation \xe2\x80\x93 Guns & Ammo, Runner\xe2\x80\x99s, ESPN The MagazineBusiness & Finance \xe2\x80\x93 The Economist***, Black Enterprise, Harvard Business ReviewFamily & Parenting \xe2\x80\x93 Family Circle, National Geographic Kids, Parents, Girls\xe2\x80\x99 Life Fashion \xe2\x80\x93 Cosmopolitan, Seventeen, Elle, Marie Claire, Glamour, VogueHome & Garden \xe2\x80\x93 do it yourself, HGTV Magazine, Better Homes & Gardens, Living NOOK COMICS CUSTOMER FAVORITES INCLUDE****:DC \xe2\x80\x93 Batman, Superman, Sandman, WatchmenImage \xe2\x80\x93 The Walking Dead, Chew, InvincibleMarvel \xe2\x80\x93 Invincible Iron Man, World War Hulk, Astonishing X-Men, Ultimate Spider-ManDark Horse Comics \xe2\x80\x93 Hellboy, B.P.R.D., Conan, Frank Miller\xe2\x80\x99s Sin City, Star WarsArchie Comics \xe2\x80\x93 Life With Archie, Betty & Veronica, Kevin KellerDynamite Entertainment \xe2\x80\x93 Vampirella, Dean Koontz\xe2\x80\x99s Frankenstein, Green HornetIDW \xe2\x80\x93 Locke & Key, The Rocketeer, G.I. Joe, Doctor WhoTop Shelf \xe2\x80\x93 League of Extraordinary Gentlemen, OwlyVIZ Media \xe2\x80\x93 Naruto, Bleach, Death Note, Dragon Ball Z, One PieceYen Press \xe2\x80\x93 Twilight, Maximum Ride, The Melancholy of Haruhi Suzumiya* NOOK Magazines and Newspapers are viewable on Android phones with HVGA or higher resolution displays and Android Tablets.** NOOK Comics are viewable on Android phones with HVGA or higher resolution displays and Android tablets.  Requires OS 2.2+.*** Only viewable on Android Tablets**** Selection shown above for U.S. users only ; Selection and price of e-books and e-periodicals may vary by countryRecent changes:3.3.1:\xe2\x80\xa2\tBug fixes3.3.0:\xe2\x80\xa2\tUpdated app name to appear as \xe2\x80\x9cNOOK\xe2\x80\x9d in your app tray (was \xe2\x80\x9cB&N NOOK\xe2\x80\x9d)\xe2\x80\xa2\tNew language support for British English, French, Italian, German and Spanish\xe2\x80\xa2\tNew dictionary support for British English\xe2\x80\xa2\tNow supporting the U.K. NOOK Store/ShopNotes:\xe2\x80\xa2\tPlease sync your Library before upgrading to 3.3"
p4
tp5
tp6
.