((S'Title'
p0
S'OfficeDrop '
p1
tp2
(S'Description:'
p3
S"The New York Times Says: Track business expenses with OfficeDrop by photographing receipts with your phone and storing the images in the app and online.CBS' BNET Says: Just snap a photo with your phone, then sit back while it converts the page into a searchable PDF and uploads it to cloud storage. How crazy-handy is that?**Turn Your Android Into a Scanner \xe2\x80\x93 Search and Share Files From Anywhere**The best way to scan, search, sync and store your paper is now available on your Android phone and now your Android Tablet! OfficeDrops is a free online cloud storage service that lets you scan paper, text search paper & digital files and share files - right from your Android device, the web or from your Windows PC (Mac coming soon).How OfficeDrop works:* Scan with your device\xe2\x80\x99s camera.* Upload your scan into your OfficeDrop cloud storage account and it becomes a PDF ready to be searched, shared or organized.* The PDF is automatically saved onto your Windows PC if you upload it into a folder that you\xe2\x80\x99ve synced using OfficeDrop\xe2\x80\x99s Windows Sync Client (available for free on officedrop.com).* Then search for text in the scan from your Android device or from the web!Key Features:* Access scans, files and documents from anywhere, anytime.* Turn your Android phone and tablet into a mobile scanner, creating multi-page PDFs that you can download, share or email.* Search for words, phrases or numbers within documents \xe2\x80\x93 even scans \xe2\x80\x93 with OfficeDrop\xe2\x80\x99s OCR and file search engine.* Sync files to and from your Windows PC using OfficeDrop\xe2\x80\x99s free Windows sync client; automatically uploads any file in any folder to the cloud for mobile searching & sharing.* Share files and folders from your device, the web or Windows desktop.* Organize your documents and files into folders and tag them with labels for easy access.* Personal email address {username}@myofficedrop.com allows you to forward emails and attachments into your account\xe2\x80\x99s secure Inbox.* Collaborate with team on your files right from your Android device.If you do not have an OfficeDrop account the app will ask you to create a free one. Then you can start scanning and uploading to the cloud! Plan types: * The Free multi-user plan supports 2 users and 4 GB of storage * Multi User paid plans start at $30 per month for 3 users and 3 usersRecent changes:2.0* Support for File Collaboration among teams.* Invite collaborators to share files within folders.* For account admins, manage users and permissions. * Numerous bug fixes and performance improvements.Please keep the feedback coming, it helps us make OfficeDrop much better. Don't forget to review OfficeDrop since reviews are reset for each update."
p4
tp5
tp6
.