((S'Title'
p0
S'OfficeSuite Viewer 7 + PDF&HD '
p1
tp2
(S'Description:'
p3
S'The world\xe2\x80\x99s No. 1 mobile office today!# Installed on over 100 million devices in more than 205 countries# Over 40,000 registrations per day# No. 1 app in Google Play Business categoryOfficeSuite is a universal document viewer for Android enabling you to open, view, print and share native DOC, DOCX, DOCM, RTF, TXT, LOG, XLS, XLSX, XLSM, CSV, PPT, PPTX, PPS, PPSX, PPTM, PPSM, EML, PDF and ZIP files and attachments ANYWHERE, ANYTIME!--- OfficeSuite 7 is Out Now. New Features include: ---File Browser:\xe2\x80\xa2\tNew and improved user interface\xe2\x80\xa2\tSide bar navigation in File Browser for quick access to different folders and remote third party cloud services \xe2\x80\xa2\tSample files so you can see OfficeSuite in action\xe2\x80\xa2\tExtended cloud support - now compatible with Microsoft SkyDrive. Google Drive support has been improved, by adding Folder Support, thus allowing an optimized document viewDocs Viewer:\xe2\x80\xa2\tTable design \xe2\x80\x93 improved visualization of table designs\xe2\x80\xa2\tFormulasSlides Viewer:\xe2\x80\xa2\tAnimationsPDF Viewing:\xe2\x80\xa2\tA new PDF engine using library from Adobe, providing instant opening of large PDF files\xe2\x80\xa2\tFind/Find Next------  Edit and create documents on the go! Download OfficeSuite Professional from Google Play -------Other Features:*  The software consists of several software modules that share the same look and feel, and allow you to view and share office document on the go - File Browser, Text Document Viewer, Spreadsheet Module, Presentation Module, PDF Reader and Email Reader.* With the integrated File Browser you can easily access and share your local or Cloud stored files. OfficeSuite integrates with Google Drive, DropBox, Box, SugarSync and SkyDrive* With OfficeSuite you can view email attachments and share documents via email or Bluetooth* OfficeSuite 7 is with intuitive design and user experience allowing quick and intuitive workflow while you work with your documents and attachments.* OfficeSuite is the only mobile office for Android that allows opening of password protected documents.* You are able to print documents via Google Cloud Print or other third party printing solution*  OfficeSuite is available in 56 languages: Arabic, Bulgarian, Bengali, Bosnian, Catalan, Czech, Danish, German, Greek, English US, Spanish, Spanish (Argentina), Spanish (Chile), Spanish (Columbia), Spanish (Mexico), Estonian, Persian, Finish, French, French Canada, Galician, Hindi, Croatian, Hungarian, Indonesian, Icelandic, Italian, Hebrew, Japanese, Javanese, Kazakh, Korean, Lithuanian, Latvian, Macedonian, Malay, Norwegian, Dutch, Polish, Portuguese, Portuguese Brazilian, Romanian, Russian, Slovak, Albanian, Serbian, Sundanese, Swedish, Thai, Tagalog, Turkish, Ukrainian, Vietnamese, Chinese (Hong Kong), Chinese (Taiwan), Chinese (Mainland). * Two-finger zoom, multi-touch support, context toolbars and popup menus make your work with OfficeSuite quick and fun.--File Formats Supported--* Text format - DOC, DOCX, DOCM, RTF, TXT, LOG* Spreadsheet - XLS, XLSX, XLSM, CSV * Presentation - PPT, PPTX, PPS, PPSX, PPTM, PPSM* Other formats - PDF, EML, ZIPCompatible with Sony Ericsson LiveDock\xe2\x84\xa2 Multimedia station.com.sonyericsson.extras.ATTACHED-----------------------------------------------------Connect with us on FACEBOOK: www.facebook.com/MobiSystems-----------------------------------------------------Recent changes:New Features in 7.1:* Oxford Dictionary of English integration (available as a separateadd-on product)* Ability to perform Google search from Word documents* Dual screen support* Links support in PowerPoint* Shadows support in PowerPoint'
p4
tp5
tp6
.