((S'Title'
p0
S'Official eBay Android App '
p1
tp2
(S'Description:'
p3
S'A must-have app for eBay Buyers and Sellers that makes it easy to browse, shop, sell and manage your eBay activity whenever and wherever you are!  NEW!!\xe2\x9c\x93 Personalize your eBay notifications with custom ringtones!\xe2\x9c\x93 Silence notification sounds while sleeping or at work with the "Quiet times" setting.\xe2\x9c\x93 The new streamlined checkout flow makes paying for your items faster and easier than ever.Thanks to all our loyal app fans for your support and great advice! We know that our customers come first and we work very hard to provide the best eBay app in the Android market. If you are having problems with the app or want to send us your ideas and suggestions, please contact us using our online help forum: http://getsatisfaction.com/ebaymobile. _____________________________________OVERVIEW Manage all your eBay activities on the go: \xe2\x9c\x93 Buy, Bid or Make Offers with just a couple of taps\xe2\x9c\x93 Pay for items securely\xe2\x9c\x93 Get notifications and reminders about items ending, being outbid, outstanding offers, new items matching your saved search criteria, new messages and more\xe2\x9c\x93 Track package shipments to find out where your item is and when it will arrive\xe2\x9c\x93 Leave feedback for sellers when you have a few spare minutes\xe2\x9c\x93 Check and respond to eBay Messages wherever you areQuickly find just what you are looking for: \xe2\x9c\x93 Browse through eBay\xe2\x80\x99s extensive categories to discover items of interest\xe2\x9c\x93 Scan a barcode to easily find and compare popular items\xe2\x9c\x93 Refine your search to narrow down to the results you want\xe2\x9c\x93 View completed listings to help you research and compare prices\xe2\x9c\x93 Save your common searches and get notified when new items match\xe2\x9c\x93 Save your favorite sellers to quickly see what they\xe2\x80\x99ve listed recently  Take advantage of the mobile-optimized experience for the Motors enthusiast (US only, more countries coming soon): \xe2\x9c\x93 Quickly scan your vehicle\xe2\x80\x99s VIN to prefill the details about the make, model and year and add it to \xe2\x80\x9cMy Vehicles\xe2\x80\x9d\xe2\x9c\x93 Easily find compatible parts and accessories for cars you own\xe2\x9c\x93 Search by Make, Model and Year to find your dream car, truck or motorcycle\xe2\x9c\x93 Contact sellers to get more information or to arrange a vehicle purchase\xe2\x9c\x93 Check out weekly episodes of unique motors-inspired video series including modJobs, BUILT by eBay, The World\xe2\x80\x99s Fastest Car Show and more Selling couldn\xe2\x80\x99t be easier: \xe2\x9c\x93 Start-to-finish listing in just minutes\xe2\x9c\x93 Prefill details of popular items by scanning the barcode or selecting the item from the product catalog\xe2\x9c\x93 Add and edit photos taken with your phone or import photos from your gallery\xe2\x9c\x93 Revise, relist, or sell similar items on the go\xe2\x9c\x93 Add shipment tracking information to items using the barcode scanner _____________________________________LANGUAGE AND FEATURE SUPPORT BY COUNTRY \xe2\x9c\x93 Language support:English, French, Italian, German, Spanish \xe2\x9c\x93 Search support:Australia, Austria, Belgium, Canada, France, Germany, India, Ireland, Italy, Malaysia, Netherlands, Philippines, Poland, Singapore, Spain, Switzerland, United Kingdom, United States \xe2\x9c\x93 Payments support:Australia, Austria, Canada, France, Germany, Ireland, Italy, Malaysia, Netherlands, Philippines, Poland, Spain, Singapore, Switzerland, United Kingdom, United States \xe2\x9c\x93 Selling support:Australia, Austria, Canada, France, Germany, India, Italy, Spain, United Kingdom, United States _____________________________________EBAY WIDGETS Find the eBay Widgets app in the Google Play store and customize your device with useful eBay shortcuts! _____________________________________CAMERA PERMISSION The app requires permission to use the device camera to take photos for listing an item and provide the ability to scan barcodes to find or list items.Recent changes:v2.2.1\xe2\x9c\x93 Fixes for bugs reported in the marketv2.2eBay Shopping Cart support (US and UK only):\xe2\x9c\x93 Add items to your shopping cart or save for later\xe2\x9c\x93 Pay for multiple items from different sellers with a single payment\xe2\x9c\x93 New notification when items in your cart are ending soonOther new features:\xe2\x9c\x93 Search improvements: related searches, spell check and searching other countries if you have low or no results\xe2\x9c\x93 Larger images on the item view\xe2\x9c\x93 Add a note to the seller in checkout'
p4
tp5
tp6
.