((S'Title'
p0
S'Onion News Network '
p1
tp2
(S'Description:'
p3
S"Watch the entire Onion News Network video catalog for free with The Onion's first Android app.See the latest videos, sort by show, access popular segments, editors picks and search ONN's vast archives."
p4
tp5
tp6
.