((S'Title'
p0
S'OverDrive Media Console '
p1
tp2
(S'Description:'
p3
S'Download eBooks and audiobooks from your library directly to your Android device!OverDrive Media Console gives you on-the-go access to eBooks and audiobooks from your public, school, or college library. More than 18,000 libraries worldwide offer best-selling and classic titles via OverDrive, so use the \xe2\x80\x98Get Books\xe2\x80\x99 feature in the app to find a library near you. How do library eBooks and audiobooks work? Digital titles from your library are borrowed just like print material. Once you find your library using \xe2\x80\x98Get Books,\xe2\x80\x99 you can browse your library\xe2\x80\x99s digital collection on the web, check out a title with a valid library card, and download the title directly to your Android device. While borrowing the digital title, you can enjoy it using the app\xe2\x80\x99s eBook reader or audiobook player. Each EPUB eBook and MP3 audiobook that you check out has a lending period. The title automatically expires in the app at the end of the lending period, so there\xe2\x80\x99s never a late fee. There\xe2\x80\x99s even a handy countdown clock built into the app so you know how long you have to read or listen before the title expires.What happens if a digital title is already checked out?Just like with physical material from the library, you can join a waiting list.  All you need to do is enter your email address and you\xe2\x80\x99ll receive an alert when the title is available for check out.Don\xe2\x80\x99t want to wait? Many libraries offer 15,000 EPUB eBook downloads that are always available. Just check for the \xe2\x80\x98Additional eBooks\xe2\x80\x99 link at the bottom of the digital collection homepage and you can get a free eBook from your library that\xe2\x80\x99s yours to keep\xe2\x80\x94without a lending period. You\xe2\x80\x99ll discover timeless books and find yourself reading more than ever before with this diverse collection.You can also download DRM-free EPUB eBooks from other online sources and read them in the OverDrive Media Console app.Want more books? Each library builds a custom digital collection of eBooks and audiobooks specifically for their local community. Contact your library and let them know that you are using OverDrive on your Android device and would like to see additional titles in the digital collection.Recent changes:New in v2.6.4Fixed bug on devices running Jelly Bean that caused the app to crash while reading (Nexus 7 and others).New in v2.6.3Fixed bug on Asus Transformer tablets running Jelly Bean that caused eBooks to get stuck on "loading" message.'
p4
tp5
tp6
.