((S'Title'
p0
S'Paint Pro '
p1
tp2
(S'Description:'
p3
S'One of the best free Painting tool!!Press menu to display/hide toolbar-pen/background color-load/save-effects-undo/redo-Kids mode: color and size change randomly, shake to clearRecent changes:1.3.1: small fix for tablet and the color picker1.3.0:New color picker'
p4
tp5
tp6
.