((S'Title'
p0
S'Paint Sparkles Coloring Book '
p1
tp2
(S'Description:'
p3
S"Over 10,000,000 Kids Love Paint Sparkles Coloring Book! The World\xe2\x80\x99s Epic Paint Sparkle Education Game Comes to Google Play! More than 200 Exciting, Coloring Pages of Animals, Princesses, Christmas & Fairies to Paint with AMAZING Glitter & Sparkle! The Best Painting, Coloring Book Game for Kids Ever!Your budding Picasso will LOVE to play with the world famous, Paint Sparkle Draw Coloring Book app with new, glittery gorgeous coloring pages and fabulous features! Children\xe2\x80\x99s favorite coloring book is now easier to use than ever! Play and draw with 20+ vibrant crayon, look-alike colors and a whimsical magic coloring tool. Your little artist is guaranteed hours of creative play! This smart, educational game will inspire and delight your kids as they draw and add their own color to pages of animals, fairies, princesses and even Christmas and holiday scenes.The Paint Sparkles Draw - My First Coloring Book app includes more than ten awesome categories of drawing and coloring pages to spark the creativity and imagination in your child. Toddlers and young kids from preschool to grade school can learn their ABC\xe2\x80\x99s as they color letters and add creative sparkle to all that they draw.What\xe2\x80\x99s Inside Paint Sparkles Draw - My First Coloring Book\xe2\x98\x85 20+ vibrant colors\xe2\x98\x85 A magic brush tool to add the sparkle!\xe2\x98\x85 Multiple brush sizes\xe2\x98\x85 Area fill bucket\xe2\x98\x85 Color choice pallet\xe2\x98\x85 Multi-Touch finger coloring which enables a unique painting experience\xe2\x98\x85 Save your colorful sparkle drawing to the gallery\xe2\x98\x85 230+ vivid coloring pages, in 11 categories including blank pages\xe2\x9c\xbd \xe2\x9c\xbd Coloring Book Pages Categories \xe2\x9c\xbd \xe2\x9c\xbd\xe2\x98\x85 Animals Galore: dogs, cats, ducks & more\xe2\x98\x85 Dinosaurs - happy & cheerful dinos\xe2\x98\x85 Princesses & castles - pretty princess, castles & unicorns\xe2\x98\x85 Butterflies and Flowers\xe2\x98\x85 Cars, trucks and buses\xe2\x98\x85 Sea animals, fish, octopus & sea turtles\xe2\x98\x85 ABC\xe2\x80\x99s - learn your letters!\xe2\x98\x85 Christmas, holiday and winter scenes\xe2\x98\x85 Crazy & Wacky Monsters\xe2\x98\x85 Dolls and Teddy Bears\xe2\x98\x85 Toys, balls, blocks and gamesKids will love coloring animals, fairies, princesses, cars, trucks and more! Great for the Christmas season with tons of Christmas pages and winter scenes to color. The Paint Sparkle Draw Coloring Book app is perfect for toddlers, pre-school and grade school kids to learn to draw and learn their letters!Note: The first coloring page of each category and the first three coloring utensils are completely free. Many more coloring pages and coloring utensils are available in an easy to use in-app purchase inside the application.WE VALUE YOUR FEEDBACKParents and kids are our best reviewers and help us create and improve our apps. We always welcome your suggestions, comments and thoughts. If you have a moment, feel free to rate and review our app. Please note that we aren't able to respond to reviews in the Google Play store, but we'd love to get your feedback to our email: support@TabTale.comABOUT TabTaleSearch \xe2\x80\x9cTabTale\xe2\x80\x9d on Google Play and discover more incredible apps for young kids. TabTale\xe2\x80\x99s smart games provide an exciting, interactive, and rich educational experience. Filled with innovative and engaging activities, each application inspires creativity and imagination in a way that is uniquely enjoyable and stimulating. Let the games begin! More games are coming soon....Join our Facebook Page: www.facebook.com/TabTaleFollow us on Twitter: @TabTaleIf you're having problems with downloads, installs, refunds, payments, or Google Play access, please contact Google Play team through the Google Play Help Center at https://market.android.com/support/ and user forum at http://www.google.com/support/forum/p/Android+Market.By downloading this application you agree to the Terms of Use of TabTale Ltd. which are available to your review on http://tabtale.com/terms-of-use.NEED HELP?Contact us 24/7 with any questions or comments: support@TabTale.com"
p4
tp5
tp6
.