((S'Title'
p0
S'Path '
p1
tp2
(S'Description:'
p3
S"Path is a personal social network designed to help you be closer with family and friends. Now with Path 3, we\xe2\x80\x99ve added private messaging and stickers so you can chat instantly with the ones you love. By focusing on beautiful design and simple experience, Path maintains a 5 star rating and is loved by millions of people. - Share life. Your family and friends can comment, smile, laugh, gasp, frown or love your photos, places, music, and more. Then you can search to rediscover your memories by people, seasons, holidays, and more.- Keep it close. Private one-on-one and group messaging with your words, your voice, your location, photos, stickers, music, and more.- Say it better with stickers. Say more in a single tap with handcrafted stickers from some of our favorite artists like David Lanham, Hugh MacLeod, and Richard Perez.- Stay here, post anywhere. Send your Path moments to Facebook, Twitter, Foursquare, and Tumblr. Simply import your photos, statuses, and check-ins from Instagram, Facebook, and Foursquare and keep all of your memories in one beautiful place. Features: \xe2\x98\x85 Messaging - The fast, fun, and private way to message your family and friends one-to-one or in small groups. Use your words, your voice, your location, media, stickers, and more! \xe2\x98\x85 Stickers - Say more in a single tap with handcrafted stickers from some of our favorite artists. \xe2\x98\x85 The Shop - The hand curated place to find premium photo filters and handcrafted stickers to make your Path experience more you.*\xe2\x98\x85 Capture photos and use Path-exclusive, custom-designed filters and editing features.*\xe2\x98\x85 Journal your thoughts, when you're asleep or awake, and check in to places with friends. \xe2\x98\x85 Share the music you're listening to, the movies you're watching, and the books you're reading. \xe2\x98\x85 Interact with your friends' posts: Smile, laugh, gasp, frown at, or love their moments. \xe2\x98\x85 Crosspost select moments to Facebook, Twitter, Tumblr, and Foursquare. \xe2\x98\x85 Search - rediscover memories on Path by season, holidays, weather, dates, people, places, birthdays, nearby, and more. \xe2\x98\x85 Import your photos, statuses, and check-ins from Instagram, Facebook, and Foursquare, and use Path\xe2\x80\x99s search to rediscover them.* Photo filters and editing features require Android 2.3.3+ with OpenGL ES 2.0.Recent changes:3.0.4.1- New option in settings: hide yourself in global search.- Performance improvements. - Bug fixes.3.0.2- Your feed is now locally cached for offline usage!- Find and add friends more easily with redesigned friends drawer.- Grayscale photo previews for Android 3.0+."
p4
tp5
tp6
.