((S'Title'
p0
S'Pel\xc3\x83\xc2\xadculas Completas Gratis '
p1
tp2
(S'Description:'
p3
S'M\xc3\xa1s de 10.000 pel\xc3\xadculas que se renuevan diariamente. Todas disponibles en Youtube.Ahora cuando est\xc3\xa9s aburrido, o quieras ver una peli en el m\xc3\xb3vil o en la tablet utiliza esta aplicaci\xc3\xb3n para encontrar la pel\xc3\xadcula que te apetezca ver.Todas las pel\xc3\xadculas son gratis y no tendr\xc3\xa1s que pagar nada para verlas, simplemente hacemos la mejor selecci\xc3\xb3n de pel\xc3\xadculas completas en espa\xc3\xb1ol que est\xc3\xa1n actualmente subidas en Youtube y te las mostramos de una manera limpia y sencilla.Pel\xc3\xadculas Completas Gratis no aloja ni controla en ning\xc3\xban momento los resultados que muestra, ya que simplemente es el listado que ofrece Youtube a una b\xc3\xbasqueda concreta.Recent changes:A\xc3\xb1adido buscador de pel\xc3\xadculas y mejoras importantes en la velocidad.'
p4
tp5
tp6
.