((S'Title'
p0
S'Photo editor, effects & frames '
p1
tp2
(S'Description:'
p3
S"Bliss Camera photo editor, effects & frames is a free, fun and easy way to create and share beautiful photos that'll surprise your friends and family.Bliss Camera Photo editor, effects & frames free app is: android photo gallery, advanced camera, photo portrait editor, Facebook photo uploader and your photo feed.Android photo gallery features:\xe2\x99\xa5 Instagram and Facebook photo downloader with beauty camera effects\xe2\x99\xa5 Photo gallery organizer viewing photo calendar\xe2\x99\xa5 Easy photo sharing using Facebook, Instagram, WeChat, CacaoTalk, Google+, Twitter, Weibo, Renren, Wretch, Kaixin, Qzone, Odnoklassniki, Vkontakte, Mixi, CyWorld, Pick, Douban or any appsAdvanced camera features:\xe2\x99\xa5 Special features for portraits: self timer camera, silent camera, big camera button\xe2\x99\xa5 Anti shake camera mode with stabilization \xe2\x99\xa5 Digital Zoom\xe2\x99\xa5 Flashlight and 3 flash modes\xe2\x99\xa5 Different capture scene modes: Automatic, Macro camera, Portrait, Sports, Night, Beach. Photo portrait editor features:\xe2\x99\xa5 Beautification & makeup: lighten, whiten and smoothing skin in one touch\xe2\x99\xa5 Beauty camera photo effects: like a sound of vanilla music, pastel themes, neon lights and bokeh effects for pictures\xe2\x99\xa5 Highlight camera options with backlight, blur effect, violet light, azure blue, pink and coral vignette camera effects, pixel art or mosaic picture effect, lamp light, monochrome photo effect\xe2\x99\xa5 Glow photo filters: sweet hearts, light rays of love, disco light, stars of love, bubble pop, diamond hearts, space effects and shining stars\xe2\x99\xa5 Love quotes and sayings in beautiful photo frames: I love you, I love U, Together forever, You color my world, Good morning, Good night, happy birthday, sweet dreams, diamond hearts as picture in picture and gangnam style\xe2\x99\xa5 Edit photo size: \xd1\x81rop photos, rotate screen with a photo, zoom camera and mirror camera options\xe2\x99\xa5 Write text quotes on photos________\xe2\x98\x85 App supports Android versions from 2.3 to 4.2\xe2\x98\x85 Tested on Samsung Galaxy S2, Samsung Galaxy S3 Samsung Galaxy S3 mini, Samsung Galaxy S4, Samsung Galaxy Note,Samsung Galaxy Note 2,Samsung Galaxy Y, Samsung Galaxy Tab 2, Samsung Galaxy Ace, Samsung Galaxy S, Samsung Galaxy S Advance, Samsung Galaxy S Plus, HTC One X, HTC Sense, HTC Desire HD, HTC Evo 4G, HTC Incredible S, LG Motion 4G, LG Optimus, ZTE N860, Nexus 7, Sony Ericsson Xperia Arc S, Sony Ericsson Xperia S, Sony Xperia U and works well on other android phones.Description keywords: camera, cam, photos, pictures, pix, pics, photo editor, portrait, photo effects, photo filters, photo frames, android photo gallery, photo editing tool"
p4
tp5
tp6
.