((S'Title'
p0
S'Photo Warp+ '
p1
tp2
(S'Description:'
p3
S"The most popular photo warping app is back with a sequel and it is better than ever!Photo Warp was downloaded more than 14 million times, and now Photo Warp+ is here with more! We rewritten it from scratch, so Photo Warp+ is faster, has more functions and got a new UI!Just take a picture then warp, bend and distort it to your heart's content.Make yourself skinnier, buff yourself up or enlarge any body parts that might need some enlargement ;) Or go crazy and have fun putting several pounds of fat on your friends or giving them the biggest cheese-eating grin you can imagine. With Photo Warp+, you too can be an instant, super-cheap plastic surgeon! How hilarious can you be?REVIEWS:\xe2\x80\x9cMessing around with Photo Warp is a great way to brighten up your day and you can really make fools out of your friends!\xe2\x80\x9d - James Thornton, SoftonicFEATURES::\xe2\x98\x85 Save high resolution pictures!\xe2\x98\x85 Animate your warps!\xe2\x98\x85 Use pinch-zoom for more detailed editing!\xe2\x98\x85 New, more streamlined UI!\xe2\x98\x85 Speed improvements - smoother interactions...and the old favorites:\xe2\x98\x86 Warp tool (Moves pixels around as you drag the cursor),\xe2\x98\x86 Pinch and Bloat tools (Move pixels towards/away from the center of your brush)\xe2\x98\x86 The unique Reconstruct brush (gradually resets the picture to its original state as you brush over it)\xe2\x98\x86 Twirl clockwise and counterclockwise tools (rotates pixels around the center of brush)\xe2\x98\x86 Set brush size and strength\xe2\x98\x86 Use any picture to warp whether it's from your camera or any photo from your device\xe2\x98\x86 Save pictures to your device or SD card\xe2\x98\x86 Share your creations online\xe2\x98\x86 Installing to SD card is supported====================================Facebook: http://www.facebook.com/pages/Photo-Warp/168203083270865====================================Tags:warp, warper, distort, distortion, bend, morph, morpher, liquid, liquify, goo, melt, melter, caricature, comic, camera, photo, picture, image, booth, face, rubber, stretch, fun, funny, hilarious, plastic surgery, plastic surgeon, correct, fat, skinnyRecent changes:1.2 - Bugfix release1.1 - GUI refresh, small bugfixes"
p4
tp5
tp6
.