((S'Title'
p0
S'Photon Flash Player & Browser '
p1
tp2
(S'Description:'
p3
S"Photon Flash Player for Android app is finally here! Photon Flash Browser for Android is the leading #1 browser for Flash player plugin support and video streaming that liberate your browsing experience on Android. Our leading edge technology allows the user to browse the web fast, runs Javascript at speeds faster than Chrome or Firefox on your device (during cloud streaming mode). Users can play Flash without installing or downloading any Flash plugin (which is currently also not available and possible after Adobe pulled Flash support for Android officially). Photon Flash Player and Web Browser Free supports Flash games, Flash videos and Flash websites. You can browse natively on the browser and when you need Flash support, you just need to click the lightning bolt button to activate Flash support for your Android tablets or phones. You can use Photon Flash Player for free with ads or purchase a premium pass to remove ads.Advanced Browser Features-------------------------1) Unlimited tab support2) Intelligent url bar that allows you to search and type your url from one single toolbar.3) Browse full screen4) Incognito and private browsing support allows you to erase browsing history with every session5) Customize your browser colors and make it personal. Choose from thousand of colors.6) Bookmark with folders support7) Desktop browser and multiple user agent support. Masquerade as Safari, Chrome, Internet Explorer IE or Firefox with our desktop mode to view websites in their full desktop version.Adobe Flash Player Support------------------------------------------Although 3rd party browsers such as Chrome, Firefox, Dolphin and Opera supports native Flash plugin, it still take a little work to get it installed assuming you can find it on Google play store. With Photon browser, you no longer need to find and search for the Adobe Flash Player plugin or install any Flash APK files for Android. Nor do you need to scratch your head and figure out how to install it even if you can officially find it. Photon Flash Player & Browser comes with Flash support without the headache of configuring and installing. It  Just press Photon's magical lightning bolt button and start enjoying Flash on your device.  The cloud based SWF and FLV player is powered by powerful cloud servers to deliver you the best FLV video experience. We also challenge you to download it for free and see how we stack up against other other 3rd party cloud based Flash player such as Puffin and Skyfire. Millions of users are already enjoying the benefits of Flash support on their devices. Join them and download Photon for free. The Flash app also comes with advanced features including:+ Local Access mode allows users to watch local TV stations and sites that may block based on geographical IP+ Dynamic bandwidth adjustment allows you to adjust your video stream bandwidth on the fly to optimize viewing experience and save data bandwidth+ Different Flash mode allows you to optimize your experience for video whether it is watching football games, movies, opera, playing Facebook games or browsing.+ 3 navigation modes. Finger mode allows you to touch and flick. Drag hand mode allows you to drag game maps and other items easily in Flash. Mouse mode allows you to treat your screen like a trackpad and provides for precise navigational control for mini navigational elements.+ FLV player and SWF player support+ Flash file viewer and downloading will be supported in future releases.+ Support up Flash Player 9.0, Flash Player 10, Flash player 11 & 11.1.+ Support Flash player for Android 2.3, 3.0, 4.0, 4.0.4, 4.1, 4.1.1 or higher.Tags: flash, best flash browser, browser, web browser, mobile browser, mobile web browser, android browser, android web browser, best browser, download browser, \xe5\x82\xb2\xe6\xb8\xb8, \xe9\x81\xa8\xe6\xb8\xb8, \xe6\xb5\x8f\xe8\xa7\x88\xe5\x99\xa8, \xe6\x89\x8b\xe6\x9c\xba\xe6\xb5\x8f\xe8\xa7\x88\xe5\x99\xa8, flash player for androidRecent changes:v1.9 update-----------------+ Optimize Flash performance+ Fix crash bugs on some devices like Samsung S4+ Fix screen freezing during resize on some devices in Flash mode+ Fix UI issues for devices with small form factors+ Added help for new users to press lightning bolt button+ Fix various known crashes"
p4
tp5
tp6
.