((S'Title'
p0
S'Photo Gallery (Fish Bowl) '
p1
tp2
(S'Description:'
p3
S"An Award-winning Photo & Video Organizer with many powerful & original features integrated into 1 beautiful, easy-to-use App. You can use it to organize, share, edit, and lock your private pictures & videos taken with your device or copied from a computer or digital camera. You can also use it to play slideshow, set wallpaper and compare multiple photos.It pioneered many original features not found on other devices such as iPhone, iPad, Windows 8, and saves you the trouble of paying for multiple Photo Apps. Use it as a replacement or a supplement to your existing Photo / Video Apps.Key Features:\xe2\x80\xa2 Photo & Album Organizer with File Browser \xe2\x80\xa2 Delete Guard & Undelete\xe2\x80\xa2 Side-by-side Image Comparison\xe2\x80\xa2 Share, Crop, Rotate, Move Pictures\xe2\x80\xa2 PhotoStream with Slideshow & Shuffle\xe2\x80\xa2 1-Step Resize & Share\xe2\x80\xa2 Locker to hide & protect your pictures, videos\xe2\x80\xa2 Add notes to Albums & Photos\xe2\x80\xa2 Custom Wallpaper Editor\xe2\x80\xa2 Support Removable Media e.g. SD CardPlease support our effort by submitting crash reports and sending us your feedback by email to viewer-support@pixiereef.com. Please also leave us a good review in Android Market if you like our App. Thank you!If you have questions about how to use the App, please start with the In-App Help Guide (Menu > Help) and our Online Tutorial at http://www.pixiereef.com. If you need to email us, please be patient while waiting for a response. We\xe2\x80\x99ll try to respond to all emails as soon as we can.Organize, Share & Edit\xe2\x80\xa2 Move, delete, hide, sort, create folders\xe2\x80\xa2 Rotate, resize, crop with 3 output quality\xe2\x80\xa2 Share resized images to save bandwidth ($)\xe2\x80\xa2 Delete Guard keeps your files safe\xe2\x80\xa2 View Trash & Undelete files\xe2\x80\xa2 Pick Album Cover\xe2\x80\xa2 Annotate photos, videos and albums\xe2\x80\xa2 Tailor fit Wallpaper with 3 scaling & 3 output quality settings\xe2\x80\xa2 Add up to 3 favorite shortcuts\xe2\x80\xa2 Rectangle & circle crop with face detection\xe2\x80\xa2 Share via Email, IM, Facebook, Picasa, Bluetooth and more* \xe2\x80\xa2 Automated multi-file sharing with apps that only support 1 file (e.g. Facebook, Flickr, Google Goggles, etc.)\xe2\x80\xa2 Hide subfolders (e.g. Album art, book covers)\xe2\x80\xa2 Files & folders remain intact after uninstall* Depends on sharing apps that were installed on your device.Locker\xe2\x80\xa2 Protect private pictures & videos from prying eyes and malicious app\xe2\x80\xa2 Easy bulk image import and export\xe2\x80\xa2 Seamless integration with most view & organization features\xe2\x80\xa2 Files & folders remain intact after uninstall\xe2\x80\xa2 Add password (Available in Fish Bowl Photo Guard)Viewer & Media Finder\xe2\x80\xa2 Photostream shows all Photos & Videos at once\xe2\x80\xa2 Browse Albums with Full & Mini Gallery\xe2\x80\xa2 Compare images side by side (up to 4)\xe2\x80\xa2 Flip through photos & folders simultaneously\xe2\x80\xa2 Shuffle photos (up to 5000)\xe2\x80\xa2 3 image quality setting\xe2\x80\xa2 Fishbowl View reduces scrolling\xe2\x80\xa2 Album Title Search\xe2\x80\xa2 Show location of geo-tagged photos\xe2\x80\xa2 Shows Image/EXIF data while viewing photos\xe2\x80\xa2 Auto-rotate or Lock image position\xe2\x80\xa2 File browser to find photos\xe2\x80\xa2 Add missing files to the GalleryGestures (while in Grid)\xe2\x80\xa2 Touch image corner and edges to rotate & zoom\xe2\x80\xa2 Touch image center to pan\xe2\x80\xa2 Tap or long-press image to open menu\xe2\x80\xa2 Horizontal swipe to flip albums\xe2\x80\xa2 Diagonal swipe to see mini album listing\xe2\x80\xa2 Gesture sensitivity options\xe2\x80\xa2 Multi-touch (Available in Fish Bowl Photo Guard)Slideshow Player\xe2\x80\xa2 Single or Multi photo \xe2\x80\xa2 Shuffle, pause & speed settings\xe2\x80\xa2 Shows photos from 1 album or the PhotoStream\xe2\x80\xa2 Interact with photosSystem\xe2\x80\xa2 Optimized for HD screens\xe2\x80\xa2 Hardware acceleration\xe2\x80\xa2 Save to SD Card\xe2\x80\xa2 In-App Help Guide\xe2\x80\xa2 Read files from Internal Storage\xe2\x80\xa2 Supports Removable Media\xe2\x80\xa2 Start Android Media Scanner\xe2\x80\xa2 Battery Saver cuts power use by 50%\xe2\x80\xa2 Sailfish boosts speed by up to 700%\xe2\x80\xa2 Jelly Bean, ICS & Honeycomb supportRecent changes:\xe2\x80\xa2 Fast Scrolling\xe2\x80\xa2 Won't sleep during Slideshow\xe2\x80\xa2 Option to sort by \xe2\x80\x9cDate Added\xe2\x80\x9d\xe2\x80\xa2 Option to fully dim background\xe2\x80\xa2 Option to disable horizontal scroll\xe2\x80\xa2 Enhancements for larger screens, ICS & Jelly Bean"
p4
tp5
tp6
.