((S'Title'
p0
S'Pic Collage '
p1
tp2
(S'Description:'
p3
S'\xe2\x98\x85\xe2\x98\x85\xe2\x98\x85\xe2\x98\x85\xe2\x98\x85 25 million people love \xe2\x9d\xa4PicCollage\xe2\x9d\xa4 PicCollage is the best way to make collages of your photos.  Get creative with free-form collages, clipped images, photo filters, borders, frames, stickers, and even add text. Your friends will be amazed with what you can create. It\'s like Photoshop with your fingers!"Whether you\'re 6 or 106, you\'ll find the free Pic Collage app an excellent way to dress up your photo collection and share your handiwork." - USA TodayPicCollage is a Top 10 Photo App in the US, UK, Japan and many other countries!Awesome features:* Import photos from your photo gallery, Facebook and Google image search* Simple touch gestures to rotate, resize, flick to delete* Double-tap an image to edit photo, clip photo, adjust borders* Clip photos by outlining the area you want with your finger * Lots of fun backgrounds and stickers to choose from!Simple and intuitive touch gestures: - Tap to add photos and move them to front - Resize photos by stretching or pinching them - Rotate them with two fingers - Flick the photo to delete it- Add text in various fonts and colors- Tap-and-hold to move images to the back of the collage- Double-tap an image to clip, edit, add photo filter effects, or draw! "You can impress your mother, brag to your co-workers, and make your vacation look even better than it really was, all before you pack your suitcase to return home ... It could be the fastest way you\'ll ever find to organize a batch of photos ... Also makes gorgeous emails and can turn your image into a real postcard." - LA Times"Superb!! It\'s good at editing. And when i\'m lazy to upload my pics one by one,i can squeeze everything in one page.."- Mamat Helmi "Awesome! Simply fantastic!!!! Exactly what I needed!!!!"- Alexa Lepe"I never rate or comment about apps but this is one is by far my favorite...."- Deidrah TrujilloPicCollage is fast, fun and simple. It\'s the best way to create awesome collages of your friends and favorite celebrities, with stickers, text, and web search! When you\'re done, share your collages on Facebook, Instagram, Twitter, Tumblr or email.  Check out the Featured collages, and see all the awesome collages created for One Direction, Harry Styles, Liam Payne, Niall Horan, Zayn Malik, Justin Bieber, Katy Perry, Selena Gomez, Hello Kitty, Nikki Minaj, Carrie Underwood, Taylor Swift, AKB48, Disney, Hearts, Love, Flowers, Pink, Cats, Puppies, Kittens, Domo, Happy Birthday and many more of your favorite products, bands and celebrities.  Check our these featured collages and share them to Facebook, Twitter, Instagram and Tumblr!You can also see the collages featured on our website http://pic-collage.com and on Pinterest: http://pinterest.com/piccollage"It could be the fastest way you\'ll ever find to organize a batch of photos." - San Jose Mercury News"\xe8\xa4\x87\xe6\x95\xb0\xe3\x81\xae\xe5\x86\x99\xe7\x9c\x9f\xe3\x82\x92\xe8\x87\xaa\xe5\x9c\xa8\xe3\x81\xab\xe9\x85\x8d\xe7\xbd\xae\xe3\x81\x97\xe3\x81\xa6\xe3\x82\xb3\xe3\x83\xa9\xe3\x83\xbc\xe3\x82\xb8\xe3\x83\xa5\xe3\x81\x8c\xe4\xbd\x9c\xe3\x82\x8c\xe3\x82\x8b\xe3\x82\xa2\xe3\x83\x97\xe3\x83\xaa\xe3\x80\x8cPicCollage \xe5\x86\x99\xe7\x9c\x9f\xe3\x82\xb3\xe3\x83\xa9\xe3\x83\xbc\xe3\x82\xb8\xe3\x83\xa5\xe3\x80\x8d\xe3\x80\x82\xe7\x84\xa1\xe6\x96\x99\xe3\x81\xa8\xe3\x81\xaf\xe6\x80\x9d\xe3\x81\x88\xe3\x81\xaa\xe3\x81\x84\xe6\xa9\x9f\xe8\x83\xbd\xe3\x81\xae\xe5\x85\x85\xe5\xae\x9f\xe3\x81\xb6\xe3\x82\x8a\xe3\x81\xa7\xe3\x80\x81\xe6\x84\x9b\xe7\x94\xa8\xe8\x80\x85\xe3\x81\xae\xe5\xa4\x9a\xe3\x81\x841\xe6\x9c\xac\xe3\x81\xa0\xe3\x80\x82" - \xe6\x97\xa5\xe6\x9c\xac\xe7\xb5\x8c\xe6\xb8\x88\xe6\x96\xb0\xe8\x81\x9eHave fun with "Pic Collage"!   It\'s your scrapbook on-the-go.It\'s the canvas for your life.Don\'t miss the featured collages in Pic Collage, especially all the creative collages, and One Direction and Justin Bieber fan collages. "Pic Collage" is also available in iTunes, Amazon App Store, and KDDI\'s au smartpass.PicCollage(TM) and "Pic Collage" are trademarks of Cardinal Blue Software.Recent changes:Version 1.5.9* bugs fixed.* App can be moved to SD cardVersion 1.5.7* bugs fixed.Version 1.5.6* bugs fixed.Version 1.5.5* New stickers and backgrounds!* bugs fixed.Version 1.5.4 of Pic Collage* Fix bugs.Version 1.5 of Pic Collage* New improved layout for Android 4.0 UI Guidelines'
p4
tp5
tp6
.