((S'Title'
p0
S'pick '
p1
tp2
(S'Description:'
p3
S'Share your everyday moments with everyone around the world! # Never forget that moment! Had a really gorgeous lunch with friends? Or maybe the weather is just so perfect you want to take a photo? Whatever the reason, \xe2\x80\x9cpick\xe2\x80\x9d is here to make sure you always remember that moment! Post a photo, leave a comment and share those precious times.It\xe2\x80\x99s really easy to design and decorate your photos too with filters, frames, stickers, brushes and more. Try it out today! # Make new friends! You can have even more fun with friends if you both use \xe2\x80\x9cpick\xe2\x80\x9d. You can even make new friends by \xe2\x80\x9cpicking\xe2\x80\x9d other people\xe2\x80\x99s photos and \xe2\x80\x9cfollowing\xe2\x80\x9d the users you like. Of course, you can invite your Facebook and Twitter friends to the action too. Who knows? Maybe someone will leave a comment and \xe2\x80\x9cpick\xe2\x80\x9d your photos too! # Choose the design of your page! Many people will visit your page every day. There is no better way to thank them than to update those cover photos, title bars and menus to have them looking sleeker than ever # Choose the posts you\xe2\x80\x99re interested in! Cats, dogs, cars, nature\xe2\x80\xa6 We all have our favorites! With \xe2\x80\x9cpick\xe2\x80\x9d you can tag your photos according to the theme. You can also add your favorite tags to your \xe2\x80\x9cfavorites\xe2\x80\x9d so you only see what you want to see. If there is no particular tag, why not start that trend with your photos? Tags allow you to connect with like-minded people. # Travel the world with \xe2\x80\x9cpick\xe2\x80\x9d See what people in other countries are up to in a flash. Whether its Thai people enjoying \xe2\x80\x9cSongkran\xe2\x80\x9d or Japanese people enjoying the cherry blossoms, you\xe2\x80\x99ll find it here. Simply select the country of interest at the \xe2\x80\x9cCountry page\xe2\x80\x9d and you can view moments from wherever in the world you wish. Travelling the world never came so easy! So, do we have you interested? Download \xe2\x80\x9cpick\xe2\x80\x9d now and open your eyes to a new world of wonder! We are all looking forward to your photos!Recent changes:\xe2\x96\xbc 3.5.1 (2013/5/2) \xe2\x98\x85 Fixed bugs\xe2\x96\xbc 3.5.0 (2013/5/2) \xe2\x98\x85 Today\xe2\x80\x99s Message! : You can now easily display a short message of the day on the cover photo of your My Page. \xe2\x98\x85 Stickers in comments! : Express your feelings beyond words! \xe2\x98\x85 Design improvements! : Enjoy greater freedom in the design of your My Page! \xe2\x96\xbc 3.4.0 (2013/3/11)\xe2\x98\x85 Added a function to Invite Friends \xe2\x96\xbc 3.3.0 (2013/2/8)\xe2\x98\x85 Editing functions for My Page\xe2\x98\x85 New viewing option for the HOT PICK section'
p4
tp5
tp6
.