((S'Title'
p0
S'PicMix '
p1
tp2
(S'Description:'
p3
S'-The BEST and most FAMOUS mobile social photo sharing application. Join millions of users world-wide in PicMix community now!-PicMix 3.5.8--------------PicMix 3.5.8 has now been released. Download the newest PicMix now and get a new experiences on editing and sharing your photos!Please note that if you have any issues or difficulties when using PicMix, please do send us an email to support@picmix.it we will gladly help you to sort it out.What\'s new in this version :\xe2\x80\xa2\tCustom Frame - Create your own frame by slicing it horizontally and vertically! Then adjust the border color, setup the corner and frame pattern as well! You will be addicted. Guaranteed! Try it for yourself!\xe2\x80\xa2\tFaster Image Loading - you\'ll be surprise for the speed loading improvement!\xe2\x80\xa2\tNew Payment Method!        Purchasing Mix Credit has never been easier. Now you can purchase Mix Credits in 73 countries!\xe2\x80\xa2\tImport Photos from Instagram.   \tOpen your Profile page and connect to your Instagram account to import all of your Instagram photos to PicMix gallery!\xe2\x80\xa2\tCandy Filter\tPut some sweet and sparkling color tones in your photo. Make it pops out!\xe2\x80\xa2\tBeattle Filter\tSoft and calm color tones to make your photo elegant looks.\xe2\x80\xa2\tPopRocket Filter\tRed has never look so good! Try this cool red filter and judge it by yourself!\xe2\x80\xa2\tLots of bug fixes, tweaks and speed improvements! PicMix Features :\xe2\x80\xa2\tPut your picture in fancy and stylish frames\xe2\x80\xa2\tApply filters and enhance your photo using many filters and effects\xe2\x80\xa2\tSocialize and meet a lot of new people in PicMix. ------------------------------------------------------------------------------------------------------------------------About PicMix :A picture is worth a thousand words, but multiple pictures in fancy frames, text caption and photo effects, is worth a MILLION stories and awesomeness. With PicMix, you can combine your favorite photos into custom frames, adjust the photos, add text caption (just like comic book!) , finalize it with touch of fancy EFFECTS, and share it to your friend on Facebook and Twitter. Create a good pictures and grab a place at POPULAR to become PicMix celebrities. Join the CONTEST and win exclusive prizes! Start PicMixing now, its totally FREE and FUN!We love hearing from you, our beloved users :)So if you have any feedback, questions or concerns about PicMix, don\'t hesitate to let us know:* Support: support@picmix.it* Website : www.picmix.itOR follow us on social media:http://www.facebook.com/mypicmixhttps://twitter.com/mypicmixHappy PicMixing!Recent changes:What\'s New in PicMix 3.5.8:* Custom FrameCreate your own frame by slicing it horizontally and vertically! * Faster Image Loading* New Payment Method!Purchasing Mix Credit has never been easier. Now you can purchase Mix Credits in 73 countries!* Import Photos from Instagram. * New Filters: sweet and sparkling "Candy Filter", soft and calm "Beattle Filter", and cool red "PopRocket Filter"!'
p4
tp5
tp6
.