((S'Title'
p0
S'PicSay Pro Font Pack - B '
p1
tp2
(S'Description:'
p3
S'This is not an app! You can use the fonts in this pack with PicSay Pro to add styled text to your photos. After installation, open PicSay Pro and in the Title Editor tap the Preview or press the Menu button and choose Font. See second screenshot above for instructions.Fonts by Dieter Steffmann. Free for personal use.#picsayprofontpackRecent changes:Update adds new fonts by Dieter Steffmann. Free for personal use.'
p4
tp5
tp6
.