((S'Title'
p0
S'Plate Theme 4 GO Launcher EX '
p1
tp2
(S'Description:'
p3
S'Take a look at our other themes:- Cube Theme 4 GO Launcher EX- 80\'s Theme 4 GO Launcher EX- Elegant Theme 4 GO Launcher EX- Winter Cube 4 GO Launcher EX- Social+ Theme 4 GO Launcher EX- Clear Theme 4 GO Launcher EX- aOS Theme 4 Go Launcher EX- Andy Theme 4 Go Launcher EX!Latest version of GO Launcher EX is required. Install it for free from the market. Search for Go Launcher Ex!------------------------How to install:1. Search for the latest version of GO Launcher EX. install and run it2. Install the Theme (Please Do Not open directly after it\'s installed)4. Back to GO Launcher EX: MENU > Themes.5. Choose and apply "Plate Theme" theme.Clock Widget:This is the widget "Fancy Widgets".For more How to do\xc2\xb4s go to: themes4go.blogspot.com----------------------If you like this theme, check out our other themes. Click on "More of White Eye Design" or search for "White Eye Design" here in the market. Thanks for your support! More themes are still coming. Hope you like our design!For Problems and Suggestions mail to:support@themes4go.comNews and Announcements go to:themes4go.blogspot.comFacebook:www.facebook.com/themes4goKeywords:White Eye Design; Modern; plate theme; Android Theme; GO Launcher Ex Theme; Icons; Transparent; cube theme; elegant theme; plate theme 4 Go Launcher Ex; Social+ Theme 4 GO Launcher EX, Cube Theme 4 Go Launcher Ex; Elegant Theme 4 GO Launcher EX; Clean; Clear;Recent changes:Colors of the tabs changed'
p4
tp5
tp6
.