((S'Title'
p0
S'Pleco Chinese Dictionary '
p1
tp2
(S'Description:'
p3
S'The most popular mobile Chinese dictionary ever is now on Android.LAUNCH PROMO: Get a free copy of our Chinese handwriting recognizer add-on if you download before June 30th. (you can keep using it for free even after that!)Pleco is the ultimate Chinese learning companion - an integrated Chinese English dictionary / document reader / flashcard system with fullscreen handwriting input and live camera-based character lookups, from a company with over a decade of experience making mobile Chinese learning software. Major features: \xe2\x80\xa2 Great dictionaries: the free app comes with two dictionaries that between them cover 130,000 Chinese words and include 20,000 example sentences with Pinyin, and 11 other wonderful dictionaries are available as paid upgrades. (another batch of dictionaries are due out this spring)\xe2\x80\xa2 Live Optical Character Recognizer: look up Chinese words simply by pointing your device\'s camera at them, or by scrolling around a still image. (paid add-on)\xe2\x80\xa2 Handwriting input: use the entire width of your device\'s screen to draw characters. Very accurate, with a recognition engine licensed from China\'s leading maker of handwriting input systems. (paid add-on, free till June 30th)\xe2\x80\xa2 Flashcard System: create a card from any dictionary entry with a single button tap, import premade word lists, use advanced memorization techniques like SRS (spaced repetition), and study in a variety of modes including fill-in-the-blanks and tone drills. (simple version free, full-featured a paid add-on)\xe2\x80\xa2 Powerful search: look up words by Chinese characters, Pinyin (spaces and tones optional), or a combination, with support for wildcards and full-text search.\xe2\x80\xa2 Cross-referencing: tap on any Chinese character / word in any dictionary entry to bring up its definition.\xe2\x80\xa2 Audio Pronunciation: instantly hear a native-speaker Mandarin audio recording of each Chinese headword; recordings are available for over 34,000 words. (single-syllable free, multi a paid add-on)\xe2\x80\xa2 Voice Recognition: not too exciting since it\'s built into Android, but we support it and it works well. (free)\xe2\x80\xa2 Stroke Order Diagrams: animations showing you how to draw each Chinese character; over 20,000 characters are covered. (paid add-on) \xe2\x80\xa2 Document Reader: open a Chinese-language text file and translate unknown words simply by tapping on them. You can also look up characters on web pages and in Word / RTF documents via the pasteboard. (paid add-on) \xe2\x80\xa2 Mainland- and Taiwan-friendly: supports traditional and simplified characters (in dictionary definitions, stroke order diagrams, searches, OCR, and handwriting), and supports Zhuyin as well as Pinyin for pronunciation display. Experimental Cantonese support too.\xe2\x80\xa2 Tablet-friendly: Android 4 optimized, includes a two-panel (results + definition together) interface that\'s perfect for tablets, and we\'ve also tweaked our layouts around tablet-sized screens.\xe2\x80\xa2 No ads: we won\'t even nag you about buying add-ons.We also offer excellent customer support - send us an email and see for yourself - and an active user community at plecoforums.com.Though we\'re new to Android, we\'ve been selling mobile Chinese dictionary apps since 2001, and our sales and customer base have been steadily growing for 11 years across four different platforms. We take good care of our longtime users, too - people who bought the Oxford dictionary from us in 2001 can still use that purchase on their brand new Android phone in 2013 without even having to pay an upgrade fee. You can be confident that we\'ll still be fixing bugs and adding new features for many years to come.Paid add-ons can be transferred to another device like any other paid app; load the free version of Pleco on your new device, go into "Add-ons" and tap "Restore Market Purchases."Customers who already own our software on another platform should check out our website at pleco.com/android for upgrade / license transfer options. twitter.com/plecosoftfacebook.com/plecosoftRecent changes:2.4.9: Fix for an E-C search bug + tap-hold voice rec lang menu.2.4.8: Bug fixes, UI tweaks, and options to auto-play audio on reader arrow and use Cantonese instead of Mandarin for voice rec.2.4: Massive update; among other enhancements:\xe2\x80\xa2 Holo theme\xe2\x80\xa2 Merged multi-dict search\xe2\x80\xa2 Nicer dictionary formatting\xe2\x80\xa2 Overhauled task switching\xe2\x80\xa2 Experimental text-to-speech add-on (available to buy in Add-ons)\xe2\x80\xa2 Experimental Cantonese display support (enable in Settings / General)\xe2\x80\xa2 Many bug fixes'
p4
tp5
tp6
.