((S'Title'
p0
S'Pocket Agent\xc3\x82\xc2\xae '
p1
tp2
(S'Description:'
p3
S'Pocket Agent\xc2\xae gives mobile access to State Farm\xc2\xae insurance and financial information, and allows customers to manage their policies and accounts anytime, anywhere. Pocket Agent lets you: \xe2\x80\xa2 View insurance policy info\xe2\x80\xa2 View insurance card*\xe2\x80\xa2 Contact your agent\xe2\x80\xa2 Search for an agent near you\xe2\x80\xa2 Submit an auto insurance claim\xe2\x80\xa2 View claim status (Fire and Auto)\xe2\x80\xa2 Pay insurance premium bills\xe2\x80\xa2 View State Farm Mutual Funds\xc2\xae account info \xe2\x80\xa2 Search and locate Select Service\xc2\xae Repair Facilities\xe2\x80\xa2 Find roadside services and more! Included features for State Farm Bank\xc2\xae customers:\xe2\x80\xa2 View State Farm Bank account info including previous transactions\xe2\x80\xa2 Deposit checks into State Farm Bank accounts with MyTime Deposit\xc2\xae\xe2\x80\xa2 Pay your bills with State Farm Bank mobile bill pay\xe2\x80\xa2 Pay your State Farm Bank credit card\xe2\x80\xa2 Transfer Funds from one eligible State Farm Bank account to another NOTE:In order to log in and use Pocket Agent to view personal information, make a bank deposit, submit/view a claim, and/or make payments you must:\xe2\x80\xa2 Be a State Farm customer\xe2\x80\xa2 Be enrolled and registered on statefarm.com\xc2\xaeCheck out http://www.statefarm.com/mobile/faqs.asp for Pocket Agent frequently asked questions Security permissions required by Pocket Agent:\xe2\x80\xa2 GPS and network location \xe2\x80\x93 Used to determine your location for Find an Agent, Find a Repair Facility, On the Road, and Accident Location under Report a Claim\xe2\x80\xa2 Full Internet Access \xe2\x80\x93 Used to connect to State Farm servers to retrieve user information\xe2\x80\xa2 Write contacts data \xe2\x80\x93 Used to add agent, repair facilities, or On The Road businesses to your contacts\xe2\x80\xa2 Read phone state and identity \xe2\x80\x93 Used by AdWhirl to display State Farm info banners\xe2\x80\xa2 Take pictures \xe2\x80\x93 Used by MyTime Deposit to capture front and back of checks for deposit; also used by Report a Claim to capture accident pictures If you are having trouble with the Pocket Agent app, please call our 24/7 toll-free tech support line at (888) 559-1922 * Insurance Card does not meet requirements for proof of insurance as required in some states. State Farm Bank\xc2\xae, Bloomington, Illinois, is a Member FDIC and Equal Housing Lender. The other products offered by affiliate companies of State Farm Bank are not FDIC insured, not a State Farm Bank obligation or guaranteed by State Farm Bank, and subject to investment risk, including possible loss of principal invested. Contact State Farm Bank toll-free at 1-877-SF4-BANK (1-877-734-2265). Before investing, consider the funds\' investment objectives, risks, charges, and expenses. Contact State Farm VP Management Corp (1-800-447-4930) for a prospectus or summary prospectus containing this and other information. Read it carefully. AP2012/03/0376Investing involves risk, including potential for loss. State Farm VP Management Corp. is a separate entity from those State Farm entities, which provide banking and insurance products.Recent changes:- This version addresses a "remember device" issue for certain bank customers who have Pocket Agent installed on more than one device.'
p4
tp5
tp6
.