((S'Title'
p0
S'Podcast Addict '
p1
tp2
(S'Description:'
p3
S"With Podcast Addict, manage all your audio & video Podcasts from your Android device.Subscribe to your favorite podcasts using the embedded networks (5by5, ABC, AfterBuzz TV, BBC, CBC, Channel 9 (MSDN), CNN, ESPN, FrogPants, LibriVox, NPR, Revision3, Smodcast, Twit, ...). You can also import your podcasts subscriptions from an iTunes or Google Reader OPML export file, or use the embedded search engine to browse Podcasts Addict database (Podcasts available in a lot of different languages).Finally you can also copy and paste your podcasts RSS feeds in order to subscribe.The app displays a small ad banner at the bottom of the screen.If you want to support Podcast Addict and/or disable the ad banner, you can buy 'Podcast Addict - Donate' appFeatures \xe2\x80\xa2 minimal permission requirement \xe2\x80\xa2 manage Audio & Video podcasts \xe2\x80\xa2 support both download & streaming \xe2\x80\xa2 automatic update \xe2\x80\xa2 automatic download \xe2\x80\xa2 automatic deletion \xe2\x80\xa2 podcasts search engine (thousands of podcasts available in different languages) \xe2\x80\xa2 audio player with resume feature \xe2\x80\xa2 variable playback speed available for Android 4.1+ \xe2\x80\xa2 playlist \xe2\x80\xa2 widgets \xe2\x80\xa2 lock screen widgets (Android 4.0+ only) \xe2\x80\xa2 sleep timer \xe2\x80\xa2 virtual podcasts (handle a folder content as a podcast) \xe2\x80\xa2 TOP 25 most successful podcasts \xe2\x80\xa2 OPML import (iTunes, Google Reader, ...) \xe2\x80\xa2 OPML export \xe2\x80\xa2 comments download feature \xe2\x80\xa2 episode & podcast sharing \xe2\x80\xa2 episode filters & search engine \xe2\x80\xa2 can be controlled by task automation apps like Tasker or AutomateIT through Intents \xe2\x80\xa2 ...Available networks: \xe2\x80\xa2 Chinese: HK Reporter \xe2\x80\xa2 English: 5by5, ABC, AfterBuzz TV, Al Jazeera, BBC, CBC, Channel 9 (MSDN), CNN, ESPN, FrogPants, LibriVox, NPR, Revision3, Smodcast, The Guardian, Twit \xe2\x80\xa2 French: BadGeek, Bepod, BFM TV, College de France, Europe1, Freepod, JeuxVideo.com, NoWatch, Radio Campus Paris, Radio Canada, Radio France, Radio01.net, RFI, RMC, RTBF, RTL, RTS, SynopsLive \xe2\x80\xa2 German: Deutsche Welle, DRadio Wissen, ORF, SRF, WDR \xe2\x80\xa2 Italian: Radio24, Rai Radio 1, Rai Radio 2, Rai Radio 3 \xe2\x80\xa2 Portuguese: BAND, CBN, RTP, TSF \xe2\x80\xa2 Spanish: Cadena SER, RTVEUpcoming features:  \xe2\x80\xa2 New UI optimized for tablets \xe2\x80\xa2 Podcast recommendation feature \xe2\x80\xa2 Download manager \xe2\x80\xa2 Internal video player-----------------------------------------------------------Version 1.17.3\xc2\xa0\xe2\x80\xa2 [New] Online FAQ (Settings/FAQ)\xc2\xa0\xe2\x80\xa2 [New] Control Podcast Addict from 3rd parties apps (Tasker, AutomateIt) using Intents (Settings/FAQ)\xc2\xa0\xe2\x80\xa2 [Fix] High pitch issue when variable playback speed is enabled on some Podcasts\xc2\xa0\xe2\x80\xa2 [Fix] Delete button not appearing anymore for virtual podcast episodes\xc2\xa0\xe2\x80\xa2 [Fix] Some virtual podcast episodes weren't playing because of special character in their file name-----------------------------------------------------------Version 1.17.2 \xe2\x80\xa2 [New] Episodes can be deleted from the playlist context menu \xe2\x80\xa2 [New] Long press on an episode to copy its url to the clipboard \xe2\x80\xa2 [New] Playlist duration can be displayed (Option menu) \xe2\x80\xa2 [New] Episodes can be deleted from the playlist context menu \xe2\x80\xa2 [Improved] Episode type (audio/video) detection with invalid Rss content \xe2\x80\xa2 [Improved] Podcast thumbnail retrieval and display \xe2\x80\xa2 [Fix] Switch back to default player when variable playback speed failed \xe2\x80\xa2 [Fix] Downloader to avoid truncating episode files-----------------------------------------------------------Version 1.17.1 \xe2\x80\xa2 [Fix] Variable playback speed issues-----------------------------------------------------------Version 1.17 \xe2\x80\xa2 [New] Variable playback speed available for Android 4.1+ (define default speed in the Settings) \xe2\x80\xa2 [Fix] Sound issues on Samsung devices \xe2\x80\xa2 [Fix] Download issues-----------------------------------------------------------Version 1.16.2\xc2\xa0\xe2\x80\xa2 [Improved] RSS feed compatibility (ie: wired.co.uk)-----------------------------------------------------------Version 1.16.1\xc2\xa0\xe2\x80\xa2 [Fix] App might freeze on startupRecent changes:Version 1.17.3 \xe2\x80\xa2 [New] Online FAQ (Settings/FAQ) \xe2\x80\xa2 [New] Control Podcast Addict from 3rd parties apps (Tasker, AutomateIt) using Intents (Settings/FAQ) \xe2\x80\xa2 [Fix] High pitch issue when variable playback speed is enabled on some Podcasts \xe2\x80\xa2 [Fix] Delete button not appearing anymore for virtual podcast episodes \xe2\x80\xa2 [Fix] Some virtual podcast episodes weren't playing because of special character in their file name"
p4
tp5
tp6
.