((S'Title'
p0
S'Postepay '
p1
tp2
(S'Description:'
p3
S"Postepay \xc3\xa8 l\xe2\x80\x99applicazione ufficiale di Poste Italiane dedicata ai servizi via mobile della carta ricaricabile Postepay.Si scarica gratis, \xc3\xa8 facile da usare, \xc3\xa8 sicura nei pagamenti con Conto BancoPosta e Postepay.Scopri le funzionalit\xc3\xa0 dell\xe2\x80\x99app Postepay: Saldo e lista movimenti, Ricarica Postepay, Ricarica cellulari, e-Postepay, Gestione carte e rubrica, Ricerca punti di ricarica, Gestione codice posteID, Consiglia l\xe2\x80\x99App e Scopri l\xe2\x80\x99App.Visualizza il saldo e i dettagli dei movimenti della tua carta Postepay, ricarica la tua carta o quella di un amico. Ricarica una sim telefonica richiamando il numero dalla tua rubrica del telefono.Attiva direttamente dall\xe2\x80\x99app e gratuitamente una carta virtuale e-Postepay e ricevi via sms i suoi codici di utilizzo.Gestisci la rubrica delle carte Postepay che ricarichi pi\xc3\xb9 spesso e assegna un nome alle tue carte Postepay per riconoscerle meglio in fase di pagamento.Ricerca i punti di Poste Italiane, uffici postali o ATM, dove ricaricare la tua carta Postepay. Puoi visualizzarli su lista o su mappa e ottenere le informazioni principali: indirizzo, orari di apertura, numeri di telefono.Gestisci tutte le funzionalit\xc3\xa0 legate al nuovo Sistema di sicurezza posteID, per effettuare i pagamenti da app con il solo inserimento del codice posteID scelto da te.Puoi segnalare l\xe2\x80\x99app ad amici e famiglia tramite Facebook, Twitter e via e-mail. Struttura e funzionalit\xc3\xa0 dell\xe2\x80\x99applicazione sono raccontate nella miniguida Scopri l\xe2\x80\x99App.Puoi eseguire ricariche Postepay con addebito su Conto BancoPosta e Postepay e ricariche telefoniche con addebito su Postepay allo stesso costo del servizio online.Per effettuare le ricariche dall\xe2\x80\x99app Postepay devi essere registrato al sito poste.it. Se ancora non lo sei, puoi farlo dall\xe2\x80\x99area di login dell\xe2\x80\x99app.La registrazione tramite app \xc3\xa8 consentita solo ai cittadini italiani maggiorenni e con domicilio in Italia. Anche se non sei registrato, puoi comunque accedere alle sezioni informative Scopri l'App e Ricerca punti di ricarica.Recent changes:Attiva il nuovo Sistema di sicurezza posteID su app Postepay!Un metodo innovativo che ti consente di effettuare, in totale sicurezza, pagamenti attraverso l'app in modo ancora pi\xc3\xb9 semplice e veloce.Per autorizzare le operazioni di pagamento ora sar\xc3\xa0 sufficiente inserire il codice posteID scelto da te. \xe2\x80\xa8Per ogni ulteriore segnalazione scriveteci qui: assistenza_posteapp@postecom.it"
p4
tp5
tp6
.