((S'Title'
p0
S'Prayer times (Qibla Compass) '
p1
tp2
(S'Description:'
p3
S'\xe2\x98\x85\xe2\x98\x85\xe2\x98\x85 Prayer times and Qibla: Accurate and Free \xe2\x98\x85\xe2\x98\x85\xe2\x98\x85\xc2\xab\xc2\xa0Prayer times\xc2\xa0\xc2\xae Muslim Toolbox \xc2\xbb is an Android app for the Muslims all around the world.This app provides islamic prayer times (Salat) and find the direction to the Qibla wherever you are in the world.\xe2\x9c\x94 Accurate and exact Salat:- Shows the times for the Fajr, Sunrise, Dhuhr, Asr, Maghrib et Isha.\xe2\x9c\x94 A quick and easy selection of the city:- Select your city manually amongst a list of 6\xc2\xa0000\xc2\xa0000 in 251 countries, or be located automatically thanks to your integrated GPS.- Memorize your favorite cities to know their prayer times.\xe2\x9c\x94 Configurable Calculation of the timetable:- Several methods of calculation for the prayer time (Fajr and Isha) : Egyptian General Authority of Survey (EGAS), Islamic society of North America (ISNA), Shia Ithna Ashari (Jafari), Universit\xc3\xa9 of Islamic Sciences (Karachi), Umm al-Qura (Makkah), Muslim World League (MWL), geophysics institute (University of Tehran), Union of Islamic Organizations of France (UOIF).- Various juristic methods (for the prayer of Asr): \xe2\x80\xa8Standard (Imams Shafii, Hanbali and Maliki), Hanafi.\xe2\x80\xa8- Adjust manually the twilight angle (for the prayer of Fajr and Isha).- Adjust manually the minutes for every prayers.- Display the hours with the AM/PM format time.\xe2\x9c\x94 Call to islamic prayer notifications:- Activate the notifications in order to be informed when it is prayer time, so that you won\xe2\x80\x99t miss any prayer.- Select the prayers for which you want to be warned.-\xc2\xa0Wake up to the sound of the alarm before the prayer of Fajr.\xe2\x9c\x94 Direction of Mecca / Qibla\xc2\xa0:- Use the compass to know in which direction to pray.- Indication about the distance between your position and the position of the Mecca.\xe2\x9c\x94 The others features:- A pretty neat GUI with a little touch of Islamic art. - A help/support menu in case of a technical problem.- New features coming as the application is in constant evolution.For any questions, suggestions\xc2\xa0or bug report: a tutorial, a F.A.Q and a contact form are available on the application.The team of \xc2\xab\xc2\xa0Prayer times\xc2\xa0\xc2\xae Muslim Toolbox\xc2\xa0\xc2\xbb is aware of the importance of prayer in Islam. We provide you an useful Android application that will keep you informed about the exact hours of Salat throughout the year.Download and recommend this program to your friends and family.- Follow us on:\xc2\xa0http://www.facebook.com/muslimtoolbox http://www.twitter.com/muslimtoolboxhttps://plus.google.com/u/0/117058153069181744965/posts  Thank you in advance for your comments. May Allah preserve us and guide us all to the right path.Tag : islamic, qibla finder, islamic prayer times, salat, adhan, islamic apps, prayer times islam, muslim, pro, athan, azan, azhan, quran, salat times, islam, qibla locator, qibla finder, qiblah, muslim apps, muslima, islamic ringtones, muslim prayer times, muslim prayer, prayer time pro, prayer time and azhan, mektoub, mektoube, namaz, namaz time, namaz times, \xe0\xa4\xa8\xe0\xa4\xae\xe0\xa4\xbe\xe0\xa4\x9c\xe0\xa4\xbc, \xe0\xa4\x87\xe0\xa4\xb8\xe0\xa5\x8d\xe0\xa4\xb2\xe0\xa4\xbe\xe0\xa4\xae, \xe0\xa4\xb0\xe0\xa4\xae\xe0\xa4\xa6\xe0\xa4\xbe\xe0\xa4\xa8, ramadan, ramadan 2013'
p4
tp5
tp6
.