((S'Title'
p0
S'Princess Girls Jigsaw Puzzle '
p1
tp2
(S'Description:'
p3
S'We Love Jigsaw Puzzle!* GAME FOR KIDS *This is a wonderful jigsaw game for kids!Every girl loves princess!Play the best jigsaw puzzle games!Become the puzzle master!Princess jigsaw puzzle is a fun & free jigsaw puzzle game applicable for all ages. They improve cognitive skills, stimulate memory, logical thinking, develop social skills, and so on. In other words, they make you smarter!This game contains very cute images of princesses, mermaids, unicorns, pink ponies, fairies, castles, knights, horses, queens.The ten current members of the franchise are Snow White, Cinderella, Aurora, Ariel, Belle, Jasmine, Pocahontas, Mulan, Tiana, and Rapunzel.In July 2013, M\xc3\xa9rida from Brave will be joining the line-up.[2]The franchise has released dolls, sing-along videos and a variety of other girls\' products, apparel, home decor and a variety of toys featuring the Disney Princesses.How to play:\xe2\x80\xa8Drag or Slide the puzzle pieces to the right place in order to recreate the image.Many cool features waiting for you to challenge.\xe2\x80\xa8* Two game modes suit for all age.\xe2\x80\xa8* More than 100+ shapes.\xe2\x80\xa8* More than 1000+ online web albums will add in more games.\xe2\x80\xa8* Masters and score leaderboard.\xe2\x80\xa8* Save pictures to your device.\xe2\x80\xa8* Set picture as wallpaper.The app also have iPad,iPhone,Mac and Pc version.You can follow us via twitter,Facebook,google plus and weibo\xe2\x80\xa6All our applications are free and ad supported. This explains the permissions. Thank you for understanding.The app contains a great selection of Princess cartoon girls high quality wallpaper and Themes. Collection of cute princess wallpaper from several popular anime and cartoons.\xe2\x80\xa8A great app for anime, Japanese cartoon fans. very suitable for people who like cartoons and anime.This game can give the children a higher wisdom and a sense of accomplishment!Our selection of these pictures are very cool, if you set it as your mobile wallpaper will feel very very fashionable. If you share these wallpaper to your friend, and I believe will give your friends a surprise.The photo will be cut into 3x3;4x4;5x5 components, you must fight all the puzzle to the right place. You can click "Tip" to view the photos, when you finish it, you can set it as wallpaper photos, and enter the next game.More games are coming,Please feel free to e-mail us with any bug reports, requests, or questions!Puzzles-game available for all ages. But first of all, exactly, you will enjoy with this interesting game and will be busy for a long time. Let\'s begin the game, aim for your Hi-Score and and challenge the anime girls now!!Keywords:\xe2\x80\xa8Kids jigsaw puzzle,free game,Images,Photo,princess'
p4
tp5
tp6
.