((S'Title'
p0
S'PrinterShare\xc3\xa2\xe2\x80\x9e\xc2\xa2 Mobile Print '
p1
tp2
(S'Description:'
p3
S"Wirelessly print documents, bills and invoices (MS Office: Word, Excel, Powerpoint; PDF and text files) from device memory, SD card and even from Google Drive (Google Docs)!Instantly print emails from Gmail, print photos and images (JPG, PNG, GIF), also print contacts, agenda, sms/mms, call log, web pages (HTML) and other digital content directly from your device to a printer right next to you or anywhere in the world! For unlimited printing you need to purchase PrinterShare Premium Key, which is a separate small application that simply needs to be on the device to unlock Premium Features. Prior to buying the key we highly recommend printing the test page to ensure compatibility with your printer. Premium Features:* Nearby direct printing via Wi-Fi, Bluetooth and USB without PC;* Nearby printing to Windows shared (SMB/CIFS) or Mac shared printers;* Unlimited Remote printing. The receiving end (Windows or Mac) would not have to buy pages or subscribe.Please note:1) PrinterShare supports Google Cloud Print at no extra-charge. Google Cloud Print requires latest version of Chrome browser on your computer. For more setup instructions please read http://www.google.com/support/cloudprint/2) If something isn't working as expected, send us email to support@printershare.com. Posting comments about it does not help anyone, and we can't respond.PrinterShare are supporting a wide variety of HP, Epson, Canon, Brother, Samsung, Kodak, Dell, Lexmark and other printers including legacy networkable.Have a good print!* For direct Nearby printing to selected printer models PrinterShare downloads and uses drivers provided by GutenPrint (http://gimp-print.sourceforge.net). The drivers are distributed under GNU General Public License, version 2.** For direct Nearby printing to selected printer models PrinterShare downloads and uses drivers provided by HPLIP (http://hplipopensource.com). The drivers are distributed under GNU General Public License, version 2.Recent changes:improved integration with Samsung print menu optionbugs fixed"
p4
tp5
tp6
.