((S'Title'
p0
S'Progressive Insurance '
p1
tp2
(S'Description:'
p3
S"Progressive for AndroidInsurance that\xe2\x80\x99s quick and easy to buy and use\xe2\x80\x94anytime, anywhere. That\xe2\x80\x99s exactly what you get with Progressive for Android\xe2\x84\xa2 phones and tablets.Get a quote in minutes by snapping a picture of your driver\xe2\x80\x99s license or our other convenient auto quoting tools; pay your bill while waiting in line; report damage and send photos from the scene of a fender-bender; find an agent or Service Center, then get directions to it; plus much more. It\xe2\x80\x99s all about convenience \xe2\x80\xa6 in the palm of your hand. CustomersYou can use Progressive for Android to: \xe2\x80\xa2 Make a payment, using billing information stored in your progressive.com account. \xe2\x80\xa2 Report vehicle damage, even if it\xe2\x80\x99s just a crack in your windshield, and send photos of it, so we can start processing your claim. \xe2\x80\xa2 Find a Service Center, where you can have us manage your repairs from start to finish. Then, your repairs are guaranteed for as long as you own or lease your car.\xe2\x80\xa2 View a copy of your insurance ID card, as well as other insurance and policy information. Insurance shoppers, car buyers, Flo fans and information-seekersYou can use Progressive for Android to: \xe2\x80\xa2 Quote and buy a Progressive car insurance policy in minutes, right from your phone. Snap a picture of your driver's license or insurance card*, or scan a VIN, and we\xe2\x80\x99ll fill in this information automatically using our exclusive optical character recognition technology. *Our new Image Capture feature is available for users in 28 states, AZ, CA, CO, CT, FL, GA, IA, IL, IN, MD, MI, MN, MO, MS, MT, NE, NH, NJ, NV, NY, OH, OK, OR, SD, TX, VA, WA, & WI. Please note that the image capture feature does not support portrait-oriented driver's licenses at this time. \xe2\x80\xa2 Take advantage of the contact information stored on your phone to quickly add your information into your quote or use GPS to easily add your location information.  Please note we  only use contact information as a convenience when you initiate an auto quote, and strictly with the user's permission.  We do not access any other contact information in any way for any purpose.   \xe2\x80\xa2 Find and connect with a local agent. Have us use your current location, or enter a ZIP code to start your search. \xe2\x80\xa2 Get crash test ratings and vehicle recall information, and use budget and monthly payment calculators when you\xe2\x80\x99re shopping for a car. You can even compare insurance costs; just scan the VINs of up to three vehicles to see how they stack up. \xe2\x80\xa2 Add Flo and Progressive to your social networks, download more apps like Flo-isms, Superstore Shuffle and Progressive Art App, and watch new commercials.Questions about Progressive or our Android App? Call 1-800-PROGRESSIVE, or submit feedback online: progressive.com/contact-us.aspx.Recent changes:* Minor bugfixes* Service Center Enhancements* Portrait Drivers Licenses are now supported"
p4
tp5
tp6
.