((S'Title'
p0
S'Proven Job Search '
p1
tp2
(S'Description:'
p3
S'ACCOLADES* CNN Money: "Innovating job-search tools"* Featured on ABC News Radio* Featured on CBS Radio* Forbes: "Killing It With \'Mobile First\'"* TechCrunch: "... Create Resumes Using Only Their Smartphone"THE BEST WAY TO FIND & APPLY TO JOBS FROM YOUR PHONEProven Job Search helps you find and apply to the latest Craigslist, SimplyHired, and Beyond jobs using your resume and cover letter.Millions of jobs are available. Beat the crowd by applying as soon as you see the job. Unchain yourself from your home computer. On a quick break? On the bus? In a waiting room? Apply to jobs and improve your life.JOB SEARCH AND APPLY FROM ANYWHERE\xe2\x80\xa2 Search through the most recent Craigslist, SimplyHired, and Beyond jobs and apply to them in seconds.\xe2\x80\xa2 Refresh your saved searches in a snap\xe2\x80\xa8. Get notified when new jobs are available.\xe2\x80\xa2 Apply to different types of jobs with different versions of your resume and cover letter.\xe2\x80\xa2 Share jobs with your friends via text or email (SMS permission required)\xe2\x80\xa8\xe2\x80\xa8\xe2\x80\xa8.CREATE AND MANAGE YOUR RESUMES\xe2\x80\xa2 Create a resume directly in the app to use for Craigslist, SimplyHired, and Beyond job listings.\xe2\x80\xa2 Import an existing resume from email, web or Dropbox.\xe2\x80\xa2 Store and create as many versions as you like.IT\'S EASY TO GET STARTED\xe2\x80\xa2 No account creation required.\xe2\x80\xa2 Install and start searching for jobs from Craigslist, SimplyHired, and Beyond immediately.\xe2\x80\xa2 Contact us anytime for help.FREE CAREER ADVICE\xe2\x80\xa2 Access our blog proven.com/blog for free career advice.\xe2\x80\xa2 Free tips within the app help improve your job hunting experience.\xe2\x80\xa2 Contact our customer support for advice over the phone.SYNCS WITH PROVEN.COM FROM WEB, MOBILE OR TABLETSync all your resumes, favorites and applications to Proven.com so you can apply from anywhere, phone or web. Your information will automatically sync across multiple devices so you always have access to the latest information.OUR PROMISE TO YOUOur goal is to help you in anyway we can with finding your next job, advancing your career, and putting your best foot forward. We always welcome honesty, feedback, and suggestions to make your experience better.Recent changes:Version 1.6.1Fixed several bugs causing crashes when returning to the app.Fixed issue with Craigslist job post not always being displayed properly.Fixed issue with search sometimes showing a blank page when changing the job source.Version 1.6.0Fixed problem with Craigslist titles not showing.Version 1.5.9Better location support - search with any valid address.Bug fixes.'
p4
tp5
tp6
.