((S'Title'
p0
S'Pudding Camera '
p1
tp2
(S'Description:'
p3
S'\xe2\x98\x85\xe2\x98\x85At last! \xe2\x80\x9cReal-time effects\xe2\x80\x9d V3.0 available on Android! View and capture photos in real-time! \xe2\x98\x85\xe2\x98\x85(Real-time effect requires Dual-Core processor or higher)Take Professional Photos with Your Smartphone! 72 Quality Effects in One Classic Camera App \xe2\x80\x93 All for Free! \xe2\x98\x85\xe2\x98\x85\xe2\x98\x85Loved by Girls\xe2\x80\x99 Generation, Super Junior, B2st, KARA & K-POP Stars for Flattering Self-portraits\xe2\x98\x85\xe2\x98\x85\xe2\x98\x85\xe2\x98\x85\xe2\x98\x85\xe2\x98\x85Recommended by Major IT Media Including CNET, Mashable & More\xe2\x98\x85\xe2\x98\x85\xe2\x98\x85Pudding Camera\xe2\x80\x99s 9 Quality Cameras and 8 Beautiful Films - with various aspect ratios, Multi-frame shots, Fish-eye and toy camera effects - will enable anyone to produce gorgeous photography with DSLR quality.[Exclusive in Pudding Camera]\xe2\x98\x85\xe2\x80\x99The\xe2\x80\x99 Widest Viewfinder and a Real Camera-Like InterfaceEnjoy our full-screen viewfinder and interface controls which resemble real-life cameras.\xe2\x98\x85Essential Aspect RatiosBasic (4:3), Snap (3:2), Panorama (1.85:1)\xe2\x98\x85Fun-inducing Cameras with Effects - Tilt-Shift, Multi-frame Shots & Fish-eyeFantasy (Tilt-Shift), Motionx2 (3:2 / 2 shots), Motion2x2 (4:3 / 4 shots), Motionx4 (1:3 / 4 shots), Fish-eye (hemispherical), Triplex (3 shots)\xe2\x98\x858 Films Designed with Retro Sensibility Basic, Vintage Brown, Vintage Blue, Vignetting, Dazzle, Mono, Noir, Vivid[Main Features]\xe2\x98\x85Camera Functions- Choose from 9 Quality Cameras and 8 Beautiful Films- Exposure Controls (-2.0~+2.0)- Face Recognition- Grid feature- Self-Camera mode (Touch screen to shoot)- Timer countdown for Motion Camera Series\xe2\x98\x85Gallery- Photos ordered by date in Gallery- Share and delete multiple photos- Preview Photo with image data: Date, time, camera, film, image size and exposure info\xe2\x98\x85Settings- Supports three resolution sizes (Small: 472px, Medium: 700px, Large: 1280px)- Update Pudding Camera from Settings\xe2\x98\x85Easy, Instant Sharing-E-Mail-Facebook-Twitter-Tumblr-Flickr-Pudding.to- Other Apps[Contact Us]Facebook: http://www.facebook.com/PuddingcamBlog: http://blog.pudding.to/en/category/blog/pudding-camera/Twitter: https://twitter.com/pudding_to* Pudding Camera requires OS 2.2 or higher.* Real-time effect requires Dual-Core processor or higher.* Pudding Camera is available in English, Korean, Japanese, Chinese, Thai, Spanish, French and German.* If you have any problems using the app, please feel free to contact mobile customer center (app settings > help/customer center)Recent changes:\xe2\x98\x85v3.0.1- Real-time effect added (requires dual-core processor or higher)- Improved Fantasy, Fisheye camera features- \xe2\x80\x9cMy Gallery\xe2\x80\x9d menu added- Additional sharing options: Tumblr, Flickr, Kakao Talk- Additional language support: French, Thai- Miscellaneous bugs fixed- Fixed force close error'
p4
tp5
tp6
.