((S'Title'
p0
S'QuickDic Offline Dictionary '
p1
tp2
(S'Description:'
p3
S'QuickDic offline multilingual translation dictionary.* Mono-lingual dictionaries for English, German, and Italian.* Mutli-lingual dictionaries between many language pairs.* FREE, ad-free, and open-source!* Fast! (See translations as you type!)* Dictionaries stored on SD card (works offline!)* Save queried translations to text file on SD card for later reference.* Create your own dictionaries with a command-line Java program.QuickDic currently has built-in dictionaries for these language pairs (some much more complete than others, your mileage may vary!):QuickDic currently has built-in dictionaries for these language pairs (some much more complete than others, your mileage may vary!):  * Arabic-Chinese|Mandarin|Cantonese  * Arabic-French  * Arabic-German  * Arabic-Hebrew  * Arabic-Italian  * Arabic-Japanese  * Arabic-Russian  * Arabic-Spanish  * Bulgarian-French  * Catalan-German  * Czech-French  * Czech-German  * English-Afrikaans  * English-Albanian  * English-Arabic  * English-Armenian  * English-Azeri  * English-Basque  * English-Belarusian  * English-Bengali  * English-Bosnian  * English-Breton  * English-Bulgarian  * English-Burmese  * English-Catalan  * English-Chinese|Mandarin|Cantonese  * English-Croatian  * English-Czech  * English-Danish  * English-Dutch  * English-Esperanto  * English-Estonian  * English-Faroese  * English-Finnish  * English-French  * English-Gaelic  * English-Galician  * English-Georgian  * English-Greek  * English-Haitian Creole  * English-Hawaiian  * English-Hebrew  * English-Hindi  * English-Hungarian  * English-Icelandic  * English-Indonesian  * English-Irish  * English-Italian  * English-Japanese  * English-Korean  * English-Kurdish  * English-Latin  * English-Latvian  * English-Lithuanian  * English-Luxembourgish  * English-Macedonian  * English-Malay  * English-Maori  * English-Mongolian  * English-Nepali  * English-Norwegian  * English-Persian  * English-Polish  * English-Portuguese  * English-Punjabi  * English-Romanian  * English-Russian  * English-Sanskrit  * English-Serbian  * English-Slovak  * English-Somali  * English-Spanish  * English-Swahili  * English-Swedish  * English-Tagalog  * English-Tajik  * English-Thai  * English-Tibetan  * English-Turkish  * English-Ukrainian  * English-Urdu  * English-Vietnamese  * English-Welsh  * English-Yiddish  * English-Zulu  * Finnish-Norwegian  * Finnish-Swedish  * French-Chinese|Mandarin|Cantonese  * French-Dutch  * French-Italian  * French-Japanese  * French-Latin  * French-Russian  * German-Chinese|Mandarin|Cantonese  * German-English  * German-Esperanto  * German-French  * German-Hungarian  * German-Italian  * German-Japanese  * German-Latin  * German-Polish  * German-Russian  * German-Spanish  * German-Swedish  * Greek-Italian  * Hungarian-Italian  * Italian-Chinese|Mandarin|Cantonese  * Italian-Dutch  * Italian-Japanese  * Italian-Latin  * Italian-Latvian  * Italian-Polish  * Italian-Russian  * Italian-Swedish  * Japanese-Chinese|Mandarin|Cantonese  * Korean-Chinese|Mandarin|Cantonese  * Norwegian-Swedish  * Spanish-Chinese|Mandarin|Cantonese  * Spanish-French  * Spanish-Italian* Data from en.wiktionary.org.If QuickDic crashes on your device (especially Sony Ericsson devices), try using QuickDic\'s preferences to change to the "System default" font.QuickDic is open source: http://code.google.com/p/quickdic-dictionary/Recent changes:* Fixed crashes.* (Beta) Monolingual dictionaries for English, German, Italian.* Detail pages showing Wiktionary information for some words, including: etymology, pronunciation, and synonyms/antonyms. (And Italian verb conjugations in the EN-IT dictionary!)* Wiktionary data from de.wiktionary.org, fr.wiktionary.org, and it.wiktionary.org.* Dictionaries updated with latest Wiktionary data.* Simple text-to-speech pronunciations for main rows.* Several new dictionaries, by request.'
p4
tp5
tp6
.