((S'Title'
p0
S'QuickBooks Mobile \xc3\xa2\xe2\x82\xac\xe2\x80\x9c Invoice '
p1
tp2
(S'Description:'
p3
S"Invoice, estimate, bill, pay, and CRM on the go! \xe2\x98\x85 Now optimized for both phones and tablets! \xe2\x98\x85QuickBooks Mobile is the free, easy-to-use app that syncs with QuickBooks to let you manage customers and email invoices, sales receipts, estimates, and payments. Great for your small business accounting, bookkeeping, and CRM needs. Keep your small business organized and stay productive from home, work, and on the go! INVOICE CUSTOMERS\xe2\x80\xa2    Billing tool with unlimited invoicing on the go!\xe2\x80\xa2    Manage, create, edit, & email invoices\xe2\x80\xa2    Email professional invoice forms to customers\xe2\x80\xa2    Bill customers with invoices from anywhereMANAGE CUSTOMERS\xe2\x80\xa2    View & edit customer information from mobile CRM\xe2\x80\xa2    Manage outstanding client balances and CRM\xe2\x80\xa2    Efficient accounting and bookkeeping \xe2\x80\xa2    Easy to use CRM solution for your small businessRECORD PAYMENTS\xe2\x80\xa2    Mark invoices and bills as paid\xe2\x80\xa2    Track your small business payments and record sales\xe2\x80\xa2    On the go mobile accounting and bookkeepingSALES RECEIPTS\xe2\x80\xa2    Create custom sales receipts \xe2\x80\xa2    Track business sales & email sales receipts to clients\xe2\x80\xa2    Never miss a saleESTIMATES\xe2\x80\xa2    Create, edit, & email unlimited estimates\xe2\x80\xa2    Convert estimates to invoices\xe2\x80\xa2    Professional estimates for clients WHAT YOU NEED\xe2\x80\xa2    QuickBooks Online users \xe2\x80\x93 it\xe2\x80\x99s free with your subscription! Just sign in and go!\xe2\x80\xa2    QuickBooks 2011 or 2012 for WINDOWS users \xe2\x80\x93 You need a PAID SUBSCRIPTION that includes QuickBooks Mobile (includes a 30-day free trial)OPTIMIZED FOR MOBILE AND TABLET\xe2\x80\xa2    Your information automatically syncs across mobile and tablet devices so you have your latest information at your fingertipsFROM THE MAKERS OF\xe2\x80\xa2    Intuit GoPayment, Intuit QuickBooks, QuickBooks Online, TurboTax, Quicken, & Mint.comGREAT FOR SMALL BUSINESS ACCOUNTING, BOOKKEEPING, AND CRM, ESPECIALLY\xe2\x80\xa2    CONSTRUCTION: Stone Masons, Painters, Interior Designers, Landscapers, Contractors, Carpenters, Tile Layers\xe2\x80\xa2    HOME IMPROVEMENT: Plumbers, House Cleaners, Lawn Mowers, Window Cleaners, Heating and Air Conditioning, Pest Control, Electricians\xe2\x80\xa2    PERSONAL SERVICES: Personal Trainers, Limousine Drivers, Home Nurses, Hair Stylists, Caterers\xe2\x80\xa2    AND MANY MORE!Visit http://security.intuit.com/privacy to learn how Intuit protects your privacyRecent changes:What's new in v3.0?\xe2\x80\xa2 Optimized now for your tablet! \xe2\x80\xa2 Access vital info from the new \xe2\x80\x9cRecent Activity\xe2\x80\x9d and \xe2\x80\x9cNeeds Attention\xe2\x80\x9d home feeds \xe2\x80\xa2 1-tap access to features with the new sliding navigation and design\xe2\x80\xa2 Schedule calendar appointments (Android OS 4.0 and up)"
p4
tp5
tp6
.