((S'Title'
p0
S'Rain Drop Live  Wallpaper '
p1
tp2
(S'Description:'
p3
S'Live Wallpaper Rain Drop Live  Wallpaper, original and unique open and deliver to the owner of an android device very theme of summer.Perfectly in harmony with each theme, Magic Cube and the Pixel Droplets perfectly reveal the plot Rain Drop Live  Wallpaper.Emerging Rain Drop crumble enchanting rain on a perfectly suitable background Forest.The key distinction Rain Drop Live  Wallpaper from other applications, is its small size, to the same application Rain Drop Live  Wallpaper for free. Lots of different settings for 3D objects, allows you to set the optimal ratio of the quantity and quality of facilities.Installing the application Rain Drop Live  Wallpaper is not the owner of any Android device, and is available for installation on Facebook phone HTC First, Samsung Galaxy S4, Samsung Galaxy Note, Samsung Galaxy Note 2, Sony Xperia Z, Xperia ZL, Samsung Galaxy S3, and others.Amaze your friends and acquaintances, by downloading and installing a free application Rain Drop Live  Wallpaper.Tags:  To download free of charge, Cool Lines, rain, 3d, Live Wallpaper, android, Free LWP, fantasy wallpapers, Samsung Galaxy S3, abstraction wallpaper, Sony Xperia Z, HD, Full HD, Xperia ZL, Rain, Facebook, HTC First,Photo, Samsung Galaxy S4, summer, Samsung Galaxy Note 2, picture, Rainbow, Cool, android device, top.Recent changes:errors are corrected'
p4
tp5
tp6
.