((S'Title'
p0
S'RBC Mobile '
p1
tp2
(S'Description:'
p3
S'RBC\xc2\xae Mobile  is now available for the Android phone. Get the simplicity and convenience of everyday banking, no matter where you are or what you\xe2\x80\x99re doing. \xe2\x80\x9cBank anywhere, anytime, on your schedule\xe2\x80\x9dFEATURES OF RBC MOBILE: VIEW ACCOUNT DETAILSView account balances, details and transaction history for all of your personal and business accounts. TRANSFER FUNDSTransfer funds between existing CAD or USD RBC Royal Bank\xc2\xae accounts. PAY BILLSPay any of your registered bills in CAD or USD. INTERAC\xe2\x80\xa1 e-Transfers Send Interac e-Transfers to registered payees.BRANCH & ATM LOCATORTake advantage of GPS within your Android phone to locate the closest RBC Royal Bank Branch or ATM.Additional features include access to our Mortgage Payment Calculator, Foreign Exchange Calculator, Click-to-call RBC Royal Bank and Masking of, and support for, multiple usernames/client card numbers.SECURITY: We understand how important information security and privacy are to you. That\xe2\x80\x99s why you\xe2\x80\x99re protected no matter how you bank. The RBC Online Banking Security Guarantee covers banking through RBC Mobile; which means 100% reimbursement for unauthorized transactions in RBC Mobile that result in losses to your accounts.\xc2\xb2ACCESS: To access banking through RBC Mobile, simply use your existing RBC Royal Bank Online Banking client card or username and password. You will then be prompted to answer one of the Personal Verification Questions you set up for Online Banking. If you are not yet enrolled for Online Banking, call us 24 hours a day, seven days a week at 1-800-769-2555 and follow the prompts (TTY: 1-800 661-1275).LEGAL: If you download this application, then you must review, and are subject to, the terms and conditions found under the Legal link on www.rbc.com, in the Electronic Access Agreement if you are a personal client of Royal Bank of Canada with RBC Royal Bank Online Banking and the business account agreements if you are a business client of Royal Bank of Canada.LANGUAGES: English & French\xc2\xb9 RBC Mobile is operated by Royal Bank of Canada\xc2\xae Registered trademark of Royal Bank of Canada.  RBC and Royal Bank are registered trademarks of Royal Bank of Canada\xe2\x80\xa1 Registered trademark of Interac Inc. Used under license by Royal Bank of Canada.\xc2\xb2 For a definition of an unauthorized transaction and for full details regarding the protections and limitations of the RBC Online Banking Security Guarantee, please see your Electronic Access Agreement. This guarantee is given by Royal Bank of Canada in connection with its Online Banking service.Recent changes:What\xe2\x80\x99s in this version 1.3: 1.\tAdditional bug fixes'
p4
tp5
tp6
.