((S'Title'
p0
S'Rebtel: Cheap and Free Calls '
p1
tp2
(S'Description:'
p3
S'Make cheap calls to any phone at some of the world\xe2\x80\x99s lowest international rates, or call other Rebtel app users for free! *** Why Should You Use Rebtel? *** \xe2\x9c\x94 Call Anywhere in the World for 98% Less**Call landline phones, feature phones or anyone else abroad that doesn\xe2\x80\x99t have Rebtel too. Try for free \xe2\x80\x94 you automatically get 3 free minutes when you sign up.        \xe2\x9c\x94 Free Rebtel to Rebtel CallsMore than 17 million people use us to call their loved ones for free over Wi-Fi/3G with crystal clear voice quality.* \xe2\x9c\x94 Send Low Cost International SMSText friends and family in more than 150 countries. Like regular SMS, only 60% cheaper. \xe2\x9c\x94 Keep Talking without DataCall breaking up? Tap the Keep Talking button and move from Wi-Fi/3G to a local phone call at no extra cost.*** \xe2\x9c\x94 Instantly Find FriendsRebtel works with your regular address book and shows you who\xe2\x80\x99s already using our apps and can be called for free. Inviting more friends is super easy! *  Operator charges may apply for the local part of the call and/or your cellular data connection. ** List of some of the countries where you can make cheap international calls: Afghanistan, Albania, Algeria, Angola, Argentina, Australia, Austria, Bahrain, Bangladesh, Belarus, Belgium, Belize, Bolivia, Bosnia, Botswana, Brazil, Bulgaria, Cambodia, Cameroon, Canada, Cape Verde, Chad, Chile, China, Colombia, Congo, Costa Rica, Cuba, Dominican Republic, Ecuador, Egypt, El Salvador, Guinea, Eritrea, Estonia, Ethiopia, Finland, France, Gabon, Gambia, Georgia, Germany, Ghana, Greece, Guatemala, Haiti, Honduras, Hongkong, China, Hungary, Iceland, India, Indonesia, Iran, Iraq, Ireland, Israel, Italy, Jamaica, Japan, Jordan, Kenya, Korea, Kuwait, Laos, Lebanon, Libya, China, Mali, Malta, Martinique, Mexico, Mongolia, Morocco, Mozambique, Myanmar, Namibia, Nepal, Netherlands, New Zealand, Nicaragua, Niger, Nigeria, Norway, Oman, Pakistan, Panama, Paraguay, Peru, Philippines, Poland, Portugal, Puerto Rico, Qatar, Romania, Russia, Rwanda, Saudi Arabia, Senegal, Serbia, Singapore, Slovakia, Slovenia, Somali, South Africa, Spain, Sri Lanka, Sudan, Sweden, Switzerland, Syria, Taiwan, Tanzania, Thailand, Tunisia, Turkey, UAE, Uganda, Ukraine, UK, USA, Uruguay, Uzbekistan, Venezuela, Vietnam, Yemen, Zimbabwe *** Keep Talking is only available for Android smartphone users. Cheap International Calls anywhere in the world, Free Calls to Rebtel App Users.Recent changes:2.7.2\xe2\x80\xa2\tRecipient name is now shown instead of number when writing new text messages.\xe2\x80\xa2\tWeak data connection is handled better when writing new text messages.\xe2\x80\xa2\tLong-pressing messages gives you the opportunity to forward them.\xe2\x80\xa2\tView all recipients of a message if there are more than one2.7.0-2.7.1\xe2\x80\xa2\tSMS tab now shows message history for international conversations\xe2\x80\xa2\tStability improvements'
p4
tp5
tp6
.