((S'Title'
p0
S'RedLaser Barcode & QR Scanner '
p1
tp2
(S'Description:'
p3
S'RedLaser Barcode and QR Scanner \xe2\x80\x94 Shop Smarter Rated as a top shopping app by US Today, The New York Times, CNN Money, PC Magazine and Smart Money magazine, RedLaser helps millions of shoppers shop smarter every day - and it can help you too! \xe2\x98\x86 GET THE BEST PRICES RedLaser searches millions of products across thousands of online and local retailers to find the best prices \xe2\x98\x86 FIND MORE WAYS TO SAVE  Find deals and coupons from hundreds of stores (US Only)\xe2\x98\x86 EASY CHECK-OUT WITH REDLASER RedLaser makes it easy, fast, and secure to buy from select retailers \xe2\x98\x86 DISCOVER RELATED PRODUCTS Find alternatives and accessories for the product you just viewed\xe2\x98\x86 DIGITIZE YOUR WALLETScan & store your loyalty cards and even share cards with family and friends \xe2\x98\x86 SHOP HEALTHY AND SAFEWhen you scan almost any food product with RedLaser, we\xe2\x80\x99ll tell you everything you need to know\xe2\x80\x94including product ratings , nutrition facts, and critical allergen information\xe2\x97\x8f FEATURES \xe2\x97\x8f \xe2\x9c\x93 Scan all major retail barcodes (including UPC, EAN, UPC-E, and EAN-8) and QR codes\xe2\x9c\x93 Search for prices from thousands of online retailers for millions of products\xe2\x9c\x93 Search hundreds of local retailers to compare prices, find the nearest locations, and even check out books at the library\xe2\x9c\x93 Buy on the go, right from your phone.  Have items shipped to your home or pick up in-store from select local retailers\xe2\x9c\x93 Get product descriptions, reviews, and nutritional information to help you make the right decision\xe2\x9c\x93 Find deals and coupons from many merchants. You can view top deals of the day or browse deals by store.  \xe2\x9c\x93 View popular products scanned by other RedLaser users. \xe2\x9c\x93 Create personalized QR codes with your info, contacts, website\xe2\x80\x99s URL, location and more with our powerful QR code engine\xe2\x9c\x93 Create shopping, wish, and gift lists to share with friends and family.  Also great for archiving your book, CD, DVD, and even your wine collection!\xe2\x9c\x93 Keyword, Voice, and Image recognition search to find the best deal, even when you don\xe2\x80\x99t have a barcode handyNote: RedLaser uses your contacts to generate QR Codes if you use that feature.  Otherwise your contacts are not used, and your information is never sent to us.- Coverage -Featured as a top comparison shopping app by E! News, Marie Claire, Better Homes & Gardens, The Oprah Magazine and All You. Top five comparison shopping app by Smart Money magazine, as featured on CBS news First app mentioned in PC Magazine\xe2\x80\x99s ten best shopping apps to compare prices \xe2\x80\xa8"This is probably the most fully featured app-based barcode reader on the market." - Entrepreneur Magazine"\xe2\x80\xa6RedLaser is a perfect shopping companion."- The New York Times"It\'s great for comparison shopping, reading product reviews, or simply making note of a specific product for later."- Martha Stewart Living"In my review last winter I said RedLaser was the only app with which I\'d ever made a profit. It\'s still true and it just keeps on saving me money."- Houston Chronicle- Testimonials -"A seriously impressive & useful App. Anyone who likes a bargain or even better anyone that doesn\'t like to throw away money this App is EXCELLENT" - Jimmy"This is like the best app ever! It really works!" - Desmond"A must have utility. I have been finding that most local retailers will honor the prices found by this utility. It has saved me a lot of money." - Philip"Awesome app almost bought something at a store that was $25 scanned it and found it for $ 6.76" - BrianAlt: red, laser, redlazer, lazer* Android Permissions to access your contact list are only for the create QR codes from your contacts feature.  We will never store your contacts.* Android Permissions to directly call phone numbers are only to allow you to call your local store from RedLaser.  We will not make calls without your permission.Recent changes:New in 4.2.1- Bug Fix to fix upgrades from pre-4.1 versions of the app.New in 4.2.0- Use your American Express Membership Rewards points to purchase products in RedLaser.- Bug Fixes'
p4
tp5
tp6
.