((S'Title'
p0
S'Regneregler '
p1
tp2
(S'Description:'
p3
S'Alle de kendte matematik-v\xc3\xa6rkt\xc3\xb8jer fra www.regneregler.dk og meget andet.Regneregler-app\xe2\x80\x99en, som k\xc3\xb8rer direkte p\xc3\xa5 din telefon, er en app-udgave af hjemmesiden http://www.regneregler.dk  F\xc3\xa5 hj\xc3\xa6lp eller opfrisk dine matematikkundskaber med en hurtig oversigt over formler og med \xe2\x80\x9dregnemaskiner\xe2\x80\x9d, der viser mellemregninger, og som giver forklaringer. En uundv\xc3\xa6rlig app for elever, for\xc3\xa6ldre, h\xc3\xa5ndv\xc3\xa6rkere og andre - uanset niveau - da den b\xc3\xa5de kan bruges som opslagsv\xc3\xa6rk og som hj\xc3\xa6lp med forklaringer til selve udregningerne.Regneregler tager udgangspunkt i undervisningen i grundskolen, men rummer ogs\xc3\xa5 mange emner, der bruges p\xc3\xa5 gymnasiale uddannelser eller i erhvervslivet.Teksterne er skrevet, s\xc3\xa5 de er let forst\xc3\xa5elige. Vores m\xc3\xa5l er, at alle skal kunne v\xc3\xa6re med - uanset niveau.F\xc3\xb8lgende emner er d\xc3\xa6kket:* GeometriCirkel, cirkelafsnit, cirkelring, cirkeludsnit, enhedscirklen, kvadrat, linjer og punkter, parabel, parallelogram, polygon, rektangel, rombe, trapez, trekanter og vektorer i planen.Regn p\xc3\xa5, tegn og l\xc3\xa6r om de geometriske former. \xe2\x80\x9dTegnemaskiner\xe2\x80\x9d der kan lave parabler, cirkler i koordinatsystemet, trekanter med vinkelm\xc3\xa5ler og passer med trinvis instruktion og meget andet inden for geometri.* RumgeometriCylinder, kegle, keglestub, kugle, parallelepipedum (kasse), prisme og pyramide.Regn direkte p\xc3\xa5 figurerne og se formlerne for rumfang, overfladeareal og meget andet.* OmregningerAreal, grader og radianer, hastighed, l\xc3\xa6ngde, m\xc3\xa5lestoksforhold, tidsforbrug, tidsomregning, rumfang og valuta.Omregn imellem forskellige enheder, l\xc3\xa6r at omregne imellem danske kroner og fremmed valuta eller omregn imellem grader og radianer direkte i app\xe2\x80\x99en.* FinansAnnuitetsl\xc3\xa5n, annuitetsopsparing, kapitalfremskrivning, momsberegning, procentregning og valutaomregning.L\xc3\xa6r om de forskellige l\xc3\xa5n og opsparingstyper og f\xc3\xa5 hj\xc3\xa6lp til procentregning.* Tal og algebraF\xc3\xb8rstegradsligninger, andengradsligninger, br\xc3\xb8ker, bin\xc3\xa6re tal, l\xc3\xa6gge sammen, tr\xc3\xa6kke fra, dividere og gange p\xc3\xa5 papir, parentes- og potensregneregler, regnearternes r\xc3\xa6kkef\xc3\xb8lge, roduddragning, tal-delelighed samt talkategorier.Se regnereglerne for potens og parenteser eller l\xc3\xa6r at udf\xc3\xb8re regne stykker med de fire regnearter p\xc3\xa5 et stykke papir.Regnemaskinerne opstiller og regner stykkerne med trinvise forklaringer.L\xc3\xa6r at l\xc3\xb8se ligninger eller beregn om et tal er et primtal eller et sammensat tal.* FunktionerLine\xc3\xa6re, omvendt proportionale, andengrads-, eksponentielle og potensfunktioner.L\xc3\xa6r om funktioner og tegn dem i graftegneren.* StatistikDiagrammer og observationer, kombinatorik, sandsynlighedsregning, m\xc3\xa6ngdel\xc3\xa6re og binomialfordelingL\xc3\xa6r om procent-, cirkel- og s\xc3\xb8jlediagrammer og se hvad begreber som typetal, mindstev\xc3\xa6rdi og meget andet d\xc3\xa6kker over - med eksempler og forklaringer.* Spil og tr\xc3\xa6ningTr\xc3\xa6ning af den lille tabel.L\xc3\xa6r den lille tabel udenad med vores lille men underholdende spil, hvor man skal s\xc3\xa6tte gangestykker sammen p\xc3\xa5 tid. Spillet er nemt i starten, men bliver meget sv\xc3\xa6rere efterh\xc3\xa5nden.Spillet om regnearterneKan du r\xc3\xa6kkef\xc3\xb8lgen af plus, minus, gange og dividere? Vrid hjernen med vores nye regneart-spil.* Matematisk ordbogF\xc3\xa5 korte forklaringer p\xc3\xa5 matematiske begreber. Ordbogen d\xc3\xa6kker endnu ikke alt, men vil blive opdateret l\xc3\xb8bende.Regneregler underst\xc3\xb8tter android-telefoner og tabs fra version 2.3.3Site Project ApS kan kontaktes p\xc3\xa5 www.regneregler.dk/kontakt.jsp eller direkte inde fra app\xe2\x80\x99en under \xe2\x80\x9dOm og kontakt\xe2\x80\x9d og derefter \xe2\x80\x9dKontakt os\xe2\x80\x9d.Recent changes:Version 2.0Opdatering til nyt system, app\'en er redesignet.Tilf\xc3\xb8jelser:Mange nye emner og regnemaskinerMatematisk ordbogS\xc3\xb8gefunktionNyt spil, "spillet om regnearterne"'
p4
tp5
tp6
.