((S'Title'
p0
S'Relax Timer ( Sleep Cycle) '
p1
tp2
(S'Description:'
p3
S'This is the best and complete application to help you for better sleep, Features ambient sounds of the environment like ocean waves rain storms, flowing streams, fans and more. We did big significant improvements for the sleep cycle tracker, It track your sleep cycle every day with astonished chart graphic,just put your phone next or under your pillow, it will tracking your sleep as magic device,and you can record moods and notes for every night. If you are using sleep cycle, Lighting Bug,Sleep as Android,  White Noise or other relax and sleep cycle application, you must not miss this professional Relax Timer& Sleep Cycle Tracker.\xe2\x98\x85 \xe2\x98\x85 \xe2\x98\x85 \xe2\x98\x85 \xe2\x98\x85 \xe2\x98\x85 \xe2\x98\x85 \xe2\x98\x85 The comments from our users:KashLovely App, which genuinely aids relaxation and de-stressing process. Thankyou developers, I really felt releived that this could have been a payed for App going by quality, but its totslly FREE!!! People, what you waitin for Get it! AmirosePretty good! It\'s the best sleeping app I\'ve got so far! TracyNice music. Let me feel relax and comfortable .\xe2\x98\x85 \xe2\x98\x85 \xe2\x98\x85 \xe2\x98\x85 \xe2\x98\x85 \xe2\x98\x85 \xe2\x98\x85 \xe2\x98\x85 \xe2\x98\x85 Sleep Cycle Tracking and Recording is available on version 2.0\xe2\x98\x85 The application  can use the mobile accelerometer to sense your movement during you sleep. Since you move differently in bed, it will track which state you are in.  it\'s so easy and can be run in the background.\xe2\x98\x85 \xe2\x98\x85 \xe2\x98\x85 \xe2\x98\x85 \xe2\x98\x85 \xe2\x98\x85 \xe2\x98\x85 \xe2\x98\x85 Relax Timer ( Sleep Cycle Tracker) is a sound machine when you want to sleep tight or get wake from your tight sleep naturally,  Night time clock, sleep timer & alarm.Relax Timer ( Sleep Cycle Tracker) will make you in good mood! Find sleep and relaxation easier with Relax Timer,  the very simple but very peaceful sound mixed with nature sound effects and soft melodies for Android devices. Relax Timer contains the nature loop and simple sounds:  Beach , Birds , Rains, Brooks, Bug nights, Cave drips,  Fire, Jungle, loud wale, Pond, soft waves, Storm, Thunder, Trans passing, Tropical forest, Urban, Waterfall, Wind chimes and etc;Also contains soft melodies: Aborginal, Boomelody, Djembe, Guitar, Marimba, Soul, Sunlight;Relax timer even customer itself to play these soft sounds in random patterns, you will never have the same thing twice also can hear the wonderful simple audio when you want to relax yourself  just tap the "random" button!You can set your timer like 20 minutes, it will turn off automatically after you feel asleep naturally.You can set your alarm at morning with soft music sounds, wake you up refreshed.Feature:\xe2\x98\x85 Sleep Cycle Tracking and Recording\xe2\x98\x85 Manage your favor sound lists with favor list function.- Library of Nature Effect sounds- Library of Soft Melodies Music- Random mode if you don\'t know what to choose- Sleep Timer with App Shutdown- Alarm Clock with customer audio or music- Digital Clock- Save the last sounds automaticallyIf you have any problem , please contact us through email (2bamastermail@gmail.com), Not only comment on Google play.Enjoy it and give us more suggestion, we need more supports!Recent changes:Performance improvements.Bug fixes.We will strive to become better and better!Thanks for your support!'
p4
tp5
tp6
.