((S'Title'
p0
S'Ringtone Slicer & Maker Beta '
p1
tp2
(S'Description:'
p3
S'Ringtone Slicer is ringtone maker and audio editor, enhancement of popular Ringdroid app. It allows you to edit your favorite music to make the best mp3 ringtones and notifications ever! If you like Ringdroid \xe2\x80\x94 you\'ll like this mp3 cutter and ringtone maker much more. Because it works like a pro!You can cut ringtone, alarm  and notification audio, save it to your device with Ringtone Slicer app. Just select piece of your favourite song in ringtone editor and it will create mp3 ringtone for you! Users of Ringdroid app should recognize this make-mp3-ringtones-scheme. :)Please, notice that this is beta version of ringtone maker and it may contain some bugs related to files opening or ringtone editing. If you found some errors while cutting ringtone, facing some problems or just want to say "thanks"  \xe2\x80\x94 please, feel free to email me.Also you can always email me if you want to contribute translatings for your native language. I would appreciate it.Feature list:\xe2\x80\x94 Inbuilt file explorer. Pick audio file, you want to cut, right from folder on your phone!\xe2\x80\x94 Theming, which allows you to choose the best color apperance for audio editing your mp3 or wav music files.\xe2\x80\x94 Buttery smooth scrolling on 4.0+ devices comparing with Ringtone Maker, Ringtone Editor or Ringdroid \xe2\x80\x94 this app works like a charm. Navigate your mp3s with pleasure!\xe2\x80\x94 Holo style. Feel pure Google Android\'s power in ringtone maker app!\xe2\x80\x94 Formats support for cutting and trimming: MP3, WAV, AAC and AMR.\xe2\x80\x94 Zooming for the most accurate ringtone editor. Just use pinch-to-zoom!\xe2\x80\x94 Playback from any position in audio file. Tap at the point you want to start playback and listen how your created ringtone will sound.\xe2\x80\x94 Looping for pro ringtone making. Listen and tune your created ringtone to sound like a ringtone pro. For example, popular ringtone editor app Ringdroid haven\'t this feature.\xe2\x80\x94 Saved ringtone will show up in the standart Android audio settings for picking.\xe2\x80\x94 Intuitive ringtone maker interface with orientation support and gestures like pinch-to-zoom and flinging. \xe2\x80\x94 App is and *always* will be free mp3 ringtone maker to use! Ringtone editing should be free! And no Ads while this ringtone maker is in Beta version!Audio FX like Fade In/Out, Volume Adjust, Compression, EQ, Delaying and others, that are unavailable in Ringdroid or Ringtone Maker pro, will be available in this app in release version of this ringtone mp3 cutter app.Recent changes:Save path now is showing in "Save as" dialog.Fixed bug with ringtone disappearing after reboot.Fixed some crashes.Added support for 2.1 Android Eclair.Added ukrainian translation.'
p4
tp5
tp6
.