((S'Title'
p0
S'RMC Sport '
p1
tp2
(S'Description:'
p3
S'Message aux utilisateurs : La nouvelle version de l\xe2\x80\x99application RMC Sport n\xc3\xa9cessite au minimum une version 2.2 d\xe2\x80\x99Android.Si vous avez rencontr\xc3\xa9 des probl\xc3\xa8mes avec la derni\xc3\xa8re mise \xc3\xa0 jour, nous vous conseillons de mettre \xc3\xa0 jour votre version d\xe2\x80\x99Android et de t\xc3\xa9l\xc3\xa9charger \xc3\xa0 nouveau l\xe2\x80\x99application. RMC Sport vous pr\xc3\xa9sente ses excuses pour les \xc3\xa9ventuels d\xc3\xa9sagr\xc3\xa9ments occasionn\xc3\xa9s.A la pointe de l\xe2\x80\x99actualit\xc3\xa9 sportive avec les reporters RMC Sport et au c\xc5\x93ur des d\xc3\xa9bats via les \xc3\xa9ditoriaux et les pronostics de la Dream Team RMC. T\xc3\xa9l\xc3\xa9chargez gratuitement l\xe2\x80\x99application et entrez dans la nouvelle dimension RMC Sport : - Toute l\xe2\x80\x99actualit\xc3\xa9 sportive en temps r\xc3\xa9el en textes et en photos. - Live : Les directs audio et texte des plus grands \xc3\xa9v\xc3\xa8nements et tous les scores en direct. - R\xc3\xa9sultats : Tous les r\xc3\xa9sultats, calendriers et classements de tous les sports. - La Dream Team RMC Sport : Billets d\xe2\x80\x99humeur \xc3\xa9crits et audio de tous les consultants vedettes RMC (Luis Fernandez, Roland Courbis, Jean-Michel Larqu\xc3\xa9, Vincent Moscato, After Foot, \xe2\x80\xa6 - Les Paris RMC : Les conseils et les pronostics quotidiens de la Dream Team RMC. - Les Courses : Pronostics, derni\xc3\xa8res infos, les partants et les r\xc3\xa9sultats gr\xc3\xa2ce \xc3\xa0 la Dream Team des Courses RMC. - Le player RMC live et tous les podcasts des shows Sport de l\xe2\x80\x99antenne. Enfin, partagez la dimension RMC Sport avec votre communaut\xc3\xa9 sur Facebook, Twitter ou par mail.Apr\xc3\xa8s installation de la mise \xc3\xa0 jour 1.3, si vous voyez le message "Le programme li\xc3\xa9 n\'est plus install\xc3\xa9 sur votre t\xc3\xa9l\xc3\xa9phone", merci de bien vouloir supprimer l\'application et la t\xc3\xa9l\xc3\xa9charger \xc3\xa0 nouveau (il s\'agit d\'un bug HTC Sense).Recent changes:Avec cette nouvelle version, l\xe2\x80\x99application RMC Sport am\xc3\xa9liore ses performances.Elle voit la rubrique d\xc3\xa9di\xc3\xa9e aux Jeux Olympiques disparaitre pour laisser place \xc3\xa0 celle d\xc3\xa9di\xc3\xa9e \xc3\xa0 tous les autres sports \xc2\xab  + de sports \xc2\xbb  ( Natation, judo, Handball\xe2\x80\xa6.) Merci pour votre fid\xc3\xa9lit\xc3\xa9 et \xc3\xa0 tr\xc3\xa8s bient\xc3\xb4t pour rester \xc3\xa0 la pointe de l\xe2\x80\x99actualit\xc3\xa9 sportive.'
p4
tp5
tp6
.