((S'Title'
p0
S'Runtastic Road Bike '
p1
tp2
(S'Description:'
p3
S"Take your cycling to a new level with Runtastic! Road Bike is the ultimate, road biking performance app, which transforms your smartphone into the best bike computer on the market \xe2\x80\x93 with over 50 cycle features, compatible velo hardware, and a complementary fitness site.This top-rated app (4.5+) has been specifically designed with road biking in mind, incorporating every feature a leisure rider or professional racer desires. This app is 100% cycle focused to give riders the ultimate GPS tracking and data measurement tool for any cycling activity \xe2\x80\x93 from a bicycle tour in the park with the kids, to training for your first road race, to an intense stage of the Tour de France! You can now enjoy and analyze your bicycle ride, tour, or trek in a completely new way.DURING YOUR RIDE (limited features in LITE version):* Live GPS tracking of critical performance metrics \xe2\x80\x93 calories, distance, time, speed, altitude, pace* Ride thousands of biking routes, using Route Search (available in-app and on www.runtastic.com)* Mapping (Google maps) \xe2\x80\x93 detailed live map features* Colored traces (track cycle pace, speed, grade, elevation, heart rate)* Current rate of climb, ratio of gained or lost altitude in meters per minute* Cadence measurement (with additional hardware)* Heart rate measurement (with additional hardware)* Dashboard configuration \xe2\x80\x93 displays preferred biking statistics* Automatic pause detection during your trek* Weather data* LIVE Tracking \xe2\x80\x93 real time tracking of your cycle position to share with friends* Voice feedback of critical velo metrics, motivational messages available in numerous languagesCOMPATIBLE HARDWARE:* Various Runtastic heart rate monitors* Runtastic Bike Case for Android Smartphones + accessories* Runtastic Sports Armband + accessoriesAFTER YOUR RIDE (limited features in LITE version):* Full bicycle training history \xe2\x80\x93 graphics, data charts, training progress* Mapping- Historic mapping of every trek- Google maps integration \xe2\x80\x93 historic mapping of cycle routes- Open Street Map integration- Offline maps \xe2\x80\x93 download international maps for overseas biking* Key metric analysis \xe2\x80\x93 altitude, grade, cadence, heart rate, distance, pace* Detailed post-tour data on time rode uphill, downhill, and flat* Share your cycle route and accomplishments on Google+, Facebook, Twitter, and via e-mailUsers are encouraged to save all cycle tours on www.runtastic.com. By joining the Runtastic online community, you'll get further bicycle data analysis, velo coaching, and encouraging comparisons to friends! All these app benefits can help you stay motivated while striving to reach your race training or overall health and fitness goals. Tour de France, here you come!Download the Road Bike app now!Want to join the Runtastic conversation?  Find us here:Website: www.runtastic.comGoogle+: plus.google.com/+runtasticYouTube: www.youtube.com/user/runtasticFitnessFacebok: facebook.com/runtasticTwitter: @runtasticKeywords: bicycle, cycle, biking, route, map, cadence, trek, velo, tour, app, interval, heart rate, de france, race, racer, GPS, tracking, best, workoutRecent changes:Bugfixes"
p4
tp5
tp6
.