((S'Title'
p0
S'Science Daily News '
p1
tp2
(S'Description:'
p3
S'Science News-Reader app delivers articles from the great website www.ScienceDaily.com!Satisfy all you daily science needs with this simple article reader.Save the articles to read later... even with no data connection!Includes all topics found on this wonderful website including but not limited to:Health, Medicine, Mind, Brain, Space, Time, Computers, Math, and more!:: Coming Soon :: - Article Filters (similar to web site) - Day/Night ModeRecent changes::: Coming Soon :: - Article Filters (similar to web site) - Day/Night ModeVersion 1.8 - Bug Fixes - OptimizationVersion 1.7 - Added adjustable text size (from menu button) - Fixed bugs --> from crash reports (thanks for reporting them!)Version 1.5 - Fixed bug where website mistook app for bot and blocked itVersion 1.4 - Available for TabletsVersion 1.3 - Optimization of load times - Bug Fix with "Rate App" popup'
p4
tp5
tp6
.