((S'Title'
p0
S'Scottrade Mobile '
p1
tp2
(S'Description:'
p3
S'Looking for an on-the-go investing tool that lets you check the market, get quotes and make trades virtually anytime, anywhere? The Scottrade\xc2\xae Mobile app for Android\xe2\x84\xa2 is free for everyone to download and puts Scottrade\xe2\x80\x99s powerful trading tools at your fingertips.The mobile trading app offers instant access to market research and stock quotes in real-time. You can also easily log in to your account for in-depth content and to make trades. Plus, the Scottrade Mobile app features Scottrade SmartText\xc2\xae, an exclusive tool that puts complex chart analysis into plain English.Download the free Scottrade Mobile app today to find and research trading opportunities anytime, anywhere!APPLICATION TIPS****************\xe2\x80\x9cRefresh vs. Streaming Quotes\xe2\x80\x9dThe app includes two options for quotes: streaming and static. Streaming quotes is activated by default and can be turned off in the Settings menu to improve battery life. Should you turn off streaming quotes, you can use the refresh button to access current quote data. Also, the refresh button is useful to update non-streaming content, such as news and commentary. \xe2\x80\x9cCharting\xe2\x80\x9dCandlestick charting is available. In fact, we have seven chart styles, 10 upper indicators, 38 lower indicators and SmartText\xc2\xae. In addition, we have eight charts with multiple time intervals per time range.\xe2\x80\x9cExiting App Completely\xe2\x80\x9dTo allow your Android device to completely shut down the app and not have it run in the background, you will need to press the menu button on your phone, choose MORE, then select Exit.\xe2\x80\x9cLogin Shortcut\xe2\x80\x9dWhen using the Scottrade Mobile app not logged in, you can quickly click on any of the icons and log in directly to that section. This is helpful if you want to access a specific feature of the app that is only available post login.WHAT WE ARE WORKING ON**********************There are other features and functionality that we will deliver in upcoming releases. Here are just a few of the items we are working on: \xe2\x80\xa2 Mobile banking\xe2\x80\xa2 Account funding and linking\xe2\x80\xa2 Landscape view\xe2\x80\xa2 Push notifications and more.Recent changes:\xe2\x80\xa2 FINRA has required an industry-wide name change for all equity stop orders.\xe2\x80\xa2 The new order names are provided below.... \xe2\x80\x9cStop Order\xe2\x80\x9d \xe2\x80\x93 now called \xe2\x80\x9cStop-on-Quote Order\xe2\x80\x9d... \xe2\x80\x9cStop Limit Order\xe2\x80\x9d \xe2\x80\x93 now called \xe2\x80\x9cStop-Limit-on-QuoteOrder\xe2\x80\x9d... "Trailing Stop Order\xe2\x80\x9d \xe2\x80\x93 now called \xe2\x80\x9cTrailing-Stop-on-Quote Order\xe2\x80\x9d\xe2\x80\xa2 This update is a name change only and has no impact onyour order execution.For more details on the name change, please visit the Scottrade\xc2\xae Knowledge Center.'
p4
tp5
tp6
.