((S'Title'
p0
S'Secretos del Lenguaje Corporal '
p1
tp2
(S'Description:'
p3
S'Todos los secretos del lenguaje corporal de la persuasi\xc3\xb3n y la seducci\xc3\xb3n, la comunicaci\xc3\xb3n no verbal y c\xc3\xb3mo detectar mentiras.'
p4
tp5
tp6
.