((S'Title'
p0
S'SendHub: Free Business Phone '
p1
tp2
(S'Description:'
p3
S'Get a free business phone line. Instantly. \xe2\x98\x85 100% Ad free \xe2\x98\x85 Android 4.0 (ICS) and higher ONLY \xe2\x98\x85 US and Canada ONLY \xe2\x98\x85\xe2\x99\x9b Top 100 Free Business App \xe2\x99\x9b"SendHub is a perfect option for businesses" Appstorm*, 8/10 "A big plus for many businesses" - TechCrunch*"Highly recommend using SendHub if you\xe2\x80\x99re a business" The iPhone App Review*, 4/5Features: \xe2\x9c\x94 Free Business Phone Line in any Area Code \xe2\x9c\x94 Free Texting & Calling right from the App \xe2\x9c\x94 Call Transfer, Call Forwarding & Shared Groups\xe2\x9c\x94 Voicemail Transcription & Group Texting \xe2\x9c\x94 Works on the Web too! Business: SendHub is great as your work phone. Get phone lines for all your employees.\xe2\x9c\x94 Free Business Phone Number - keep your personal number private \xe2\x9c\x94 Add, delete and manage phone lines from the web\xe2\x9c\x94 Call Transfer, Call Forwarding & Shared Groups \xe2\x9c\x94 Group Texting for your team + customers Church: Reach out to your congregation and small groups.\xe2\x9c\x94 Free Business Phone Number - keep your personal number private\xe2\x9c\x94 Group Texting - send encouragement verses to your members. \xe2\x9c\x94 Schedule Messages - create all your messages + send them whenever you wish. \xe2\x9c\x94 Message Autoresponder School: Stay connected with students and parents. \xe2\x9c\x94 Free Business Phone Number - keep your personal number private\xe2\x9c\x94 Get multiple phone lines for all your teachers\xe2\x9c\x94 Group Texting - great for reminders \xe2\x9c\x94 Schedule messages - create reminders when you set the homework. Non-Profit Organization: Stay connected with donors and staff. \xe2\x9c\x94 Free Business Phone Number - keep your personal number private\xe2\x9c\x94 Group Texting - organize your team, let donors know about upcoming events \xe2\x9c\x94 Fundraising - send real-time updates with calls to action \xe2\x9c\x94 Use Text to Join for event RSVP We love your feedback! Please email us at support@sendhub.com with your comments & suggestions.Support URL http://sendhub.desk.com/*Source: 1. Use your iPhone for Work and Home with SendHub - AppStorm 2. With Debut of SendHub Manager, Google Voice Alternative - TechCrunch 3. SendHub: The Newest VOIP & Messanger Available - The iPhone App ReviewRecent changes:In 1.6:\xe2\x98\x85 Need more texts, calling minutes, or groups?  Now you can upgrade right from the app!\xe2\x98\x85 Bug fixes, reliability, & speed improvements \xe2\x9a\xa1\xe2\x98\x85 You can now make calls using SendHub from your real Phone app, even while SendHub is not open\xe2\x98\x85 Need help from a real person?  Email support@sendhub.com or send a text to 650.830.5662.  We\'d love to help!In 1.4:\xe2\x98\x85 Free Business Phone Line with VoIP Calls & Group Texting\xe2\x98\x85 Bug fixes, reliability, & speed improvements\xe2\x98\x85 Groups, calling improvements'
p4
tp5
tp6
.