((S'Title'
p0
S'Shaadi.com Matrimonial App '
p1
tp2
(S'Description:'
p3
S"Official application of Shaadi.com - The World's Largest Matrimonial Service. Access over 20 million matrimonial profiles of potential brides and grooms on your Android phone! Shaadi.com's award-winning Instant Messenger is now available on your Android phone! Download the latest version of this app and:-- Stay online on Shaadi.com IM from your Mobile - Browse Profiles of Online Members and initiate Chats- Receive Notifications whenever you receive a new Chat, even when you are not on the app! Using this FREE application you can also :- Create your Profile and start receiving Matches- Get INSTANT notifications on your Android device when you receive Chats, Interests, Accepts and Messages  - Search and view Profiles- Send Interests to matching Members- Respond to matrimony Interests- Shake your phone to get a Match using the 'Surprise Me' feature Available on devices with OS version 2.2 and aboveMore and more people are using our services to find their life partner. We at Shaadi.com are extremely proud of the numerous marriages where we have played a small role of helping our members find their soul-mate. We are now officially certified as the most visited, trusted and successful matrimonial website by prestigious organisations from India and abroad. We thank our members to have helped us in being honoured with awards such as:- Best Matrimonial Site (Reader's Choice Awards by About.com, USA)- Top 50 Most Innovative Companies (by Fast Company, USA)- Most Trusted Matrimonial Brand (By Brand Equity - Economic Times, India)With over 20 million members and a match being found every 2.4 seconds we are proud to be the world's largest matrimonial website.Download now, register and get started!Search Keywords: Shaadi, Shaadi.com, Shadi, Shadi.com, marriage, match making, perfect match, life partner, search life partner, search bride, search groom, marriage on mobile, mobile matrimonial, mobile matrimony, matrimonial, express interest, matrimonial apps, matrimonial site, matrimonial apps, indian marriage, hindu marriages, hindi matrimonial, bengali matrimonial, gujarati matrimonial, kannada matrimonial, kerala matrimonial, marathi matrimonial, marwadi matrimonial, punjabi matrimonial, tamil matrimonial, telugu matrimonial, urdu matrimonial, assamese matrimonial, sindhi matrimonial, parsi matrimonial, hindi matrimony, bengali matrimony, gujarati matrimony, kannada matrimony, kerala matrimony, marathi matrimony, marwadi matrimony, punjabi matrimony, tamil matrimony, telugu matrimony, urdu matrimony, assamese matrimony, sindhi matrimony, parsi matrimonyRecent changes:Shaadi Instant Messenger - Chat with your Matches from your Android Mobile!Refine your Search using Advanced Search ClustersScrolling issue fixed for ICS & Jelly beanOther bug fixes"
p4
tp5
tp6
.