((S'Title'
p0
S'SHERPA BETA Personal Assistant '
p1
tp2
(S'Description:'
p3
S'Sherpa is the number one personal assistant for your cell phone and tablet. TELL YOUR CELL PHONE WHAT YOU WANT AND TADAA! IT IS DONE.Ask about anything that you want, music, flights, sending messages, using social networks.ON TOP OF THAT, SHERPA IS ABLE TO PREDICT WHAT YOU NEED.Sherpa learns about what you like, knows in any moment where you are, and\xe2\x80\xa6 even though it seems incredible, Sherpa anticipates your needs! \xe2\x98\x85INCREDIBLY INTELLIGENT!With the \xe2\x80\x9cIntelligent Proactive System Shertab\xe2\x80\x9d technology, Sherpa is now more intelligent and learns from your habits to give you information that interests you, before you ask for it!\xe2\x98\x85VERY EASY TO USE!The user interface makes it easier to do or find anything that you want with Sherpa.\xe2\x98\x85SHERPA UNDERSTANDS YOU PERFECTLY AND RESPONDS BETTER!The informational module \xe2\x80\x9cMultiknowledge System,\xe2\x80\x9d which is exclusively in Sherpa, incorporates a state-of-the-art algorithm with a multitude of information sources that is able to offer the most incredibly accurate results. \xe2\x98\x85MARVEL AT EVERYTHING THAT WE KNOW HOW TO DO!With the Sherpa virtual assistant you will have a ton of small Sherpas inside your smartphone specialized in making your life easier with anything that you can think of, including helping you with what you need before you ask for it!Talk with them, ask them questions about anything, ask them to do things!\xe2\x98\x85WHO IS OBAMA?We answer your questions.\xe2\x98\x85PLAY A U2 SONGWe play music without downloading it.\xe2\x98\x85I AM HUNGRY!We find restaurants, pharmacies and many other places close to you.\xe2\x98\x85DID THE LAKERS WIN?We tell you what happened in the NBA, MLB, NFL and many more leagues.\xe2\x98\x85WHAT\xe2\x80\x99S THE WEATHER LIKE IN BOSTON?Ask us about the weather anywhere in the world.\xe2\x98\x85CALL MY DADWe manage your phone and remember your personal relationships.\xe2\x98\x85WRITE DOWN AN APPOINTMENT FOR TOMORROWWe manage your calendar, appointments, alarms\xe2\x80\xa6\xe2\x98\x85TRANSFER $5 ON PAYPALWe perform PayPal transactions for you.\xe2\x98\x85I WANT TO FLY TO LOS ANGELESWe help you find flights.\xe2\x98\x85HOW MUCH ARE GOOGLE\xe2\x80\x99S STOCKS WORTH? We get you information on the stock market.\xe2\x98\x85THE FASTEST!Sherpa Answers questions 10 times faster than other assistants.\xe2\x98\x85WANT MORE?\xe2\x80\xa2\tWe read and send messages for you.\xe2\x80\xa2\tWe send emails for you.\xe2\x80\xa2\tWe search flights for you.\xe2\x80\xa2\tWe give you direction to wherever you want.\xe2\x80\xa2\tWe publish messages on your Facebook wall.\xe2\x80\xa2\tWe read your Tweets.\xe2\x80\xa2\tWant to watch TV? Just ask us.\xe2\x80\xa2\tWe open your applications.\xe2\x80\xa2\tWe do calculations for you.\xe2\x80\xa2\tWe send your WhatsApp messages.\xe2\x80\xa2\tWant to know what is happening in around the world? We get you the news for you.\xe2\x80\xa2\tDo you need a dictionary or translator? We tell you the meaning of words that you ask for and we even translate into other languages. And many more things\xe2\x80\xa6 try us out!IMPORTANT:WE DO NOT RESPOND TO QUESTIONS ON GOOGLE PLAY, contact us at support@sher.pa Sherpa account with language support for:English (USA)You can select the option that you want from the settings \xef\x83\xa0 LanguageHARDWARE REQUIREMENTS SmartphoneBluetoothGPSGPS LocatorWeb LocatorMicrophoneTelephoneTouchscreen WIFIOfficial ROMWe always like to hear from you! If you have any comments, questions or concerns, please send us an email at: support@sher.pa or follow us on Twitter: http://twitter.com/sherpaEN@SherpaESFacebookhttp://www.facebook.com/SherpaVirtualRecent changes:improvements: Twitter, Baseball'
p4
tp5
tp6
.