((S'Title'
p0
S'SIM Card Info '
p1
tp2
(S'Description:'
p3
S'All Info About Your SIM at a Glance.A Simple and very useful app.- SIM card state- SIM card serial number- SIM card country ISO- SIM card operator code- SIM card operator name- Phone number- Phone type- Voice mail text ID- Phone type- Network country ISO- Network operator code- Network operator name- Network typeLess################################################################hotels \tundefined american brass and crystal  morgansbyers proudly powered by wordpress and buddypress name.ly renewable energy \tmy blog my sites about me contact me name.ly \thotmailmaine apni maa ko hotel mein choda itunes fairplayd.n94 \t93421ngewek memek stwpowered by plogger post a comment foto kontol sedang onani hotaru popular upcoming latest best from  hussyfan  itunes absinthed.n94 jailbait powered by piwigo add a comment antarvasnan itunes iaptransportd itunes networkd_privile business mortgage calculator show off your favorite videos to the worlddomain age yahoo indexed pages alexa backlinks \t hot \twhite pages \tfamily \tdrudge report \tweight loss hello is a micro-blogging service based on the free software statusnet tool.Recent changes:First version of the app.'
p4
tp5
tp6
.