((S'Title'
p0
S'Sing! Karaoke '
p1
tp2
(S'Description:'
p3
S"Sing your favorite songs from a huge catalogue of top hits, or perfect a song and then share it with the world. \xe2\x99\xaa \xe2\x99\xab\xe2\x99\xa9\xe2\x99\xaa Now supporting duet mode!!! \xe2\x99\xaa \xe2\x99\xab\xe2\x99\xa9\xe2\x99\xaaSING THE HOTTEST SONGS:Choose from a huge catalog of songs, with the hottest hits by your favorite artists. Sing songs from an array of genres, from Pop to Rock, Hip-Hop to Musicals, Country to Classics. New and free songs are added all the time!Earn free currency to sing premium songs, or buy a subscription for unlimited access!Songbook includes:\xe2\x99\xaa Stay - Rihanna ft. Mikky Ekko \xe2\x99\xaa Gangnam Style - Psy \xe2\x99\xaa Give Your Heart A Break - Demi Lovato \xe2\x99\xaa Grenade, When I Was Your Man, Nothin On You, Count on Me - Bruno Mars\xe2\x99\xaa Say Somethin - Austin Mahone \xe2\x99\xaa Call Me Maybe \xe2\x80\x93 Carly Rae Jepsen  \xe2\x99\xaa Love You Like A Love Song \xe2\x80\x93 Selena Gomez & The Scene \xe2\x99\xaa The Edge of Glory, Bad Romance, Poker Face \xe2\x80\x93 Lady Gaga \xe2\x99\xaa Before He Cheats \xe2\x80\x93 Carrie Underwood \xe2\x99\xaa I Won\xe2\x80\x99t Give Up, I\xe2\x80\x99m Yours \xe2\x80\x93 Jason Mraz \xe2\x99\xaa Home - Phillip Phillips\xe2\x99\xaa Pound The Alarm - Nicki Minaj\xe2\x99\xaa Glad You Came - The Wanted\xe2\x99\xaa Stronger, Dark Side - Kelly Clarkson\xe2\x99\xaa Boyfriend, One Less Lonely Girl, Baby - Justin Bieber\xe2\x99\xaa Umbrella, Disturbia, Cheers - Rihanna\xe2\x99\xaa What Makes You Beautiful, One Thing - One Direction\xe2\x99\xaa Need You Now, Wanted You More - Lady Antebellum\xe2\x99\xaa Apologize - OneRepublic\xe2\x99\xaa Fireflies - Owl CityAnd many more! New songs added all the time!Want a song that's not yet available? Suggest songs here: http://bit.ly/SuggestSongsForSmuleSOUND LIKE A STAR:Sound great every time with Sing!\xe2\x80\x99s voice enhancement technology. Like a little competition? Aim high to get on the Top Performances list with singers from all over the globe.SHARE WITH THE WORLD:Save your performances to your profile and share with friends and family via Facebook, email, SMS, Google Plus, or Twitter. Share your creations with the Sing! community and give and receive Loves!Features:- Sing songs with scrolling lyrics, pitch lines, and backing vocals.- Enhance your voice with Sing! special voice filter.- Share your performances with the community and receive Loves.- Easy sharing to the outside community via Facebook, Google Plus, Twitter, email and SMS.- And much more!Questions? Write support@smule.com, find us on YouTube, Google+, Facebook, or Twitter!www.smule.comwww.gplus.to/smulewww.facebook.com/smulewww.youtube.com/smulewww.twitter.com/smuleRecent changes:- NEW: Duet mode!- Countdown before singing.- Follow your friends.- Updated user profiles.- New ways to sing for free."
p4
tp5
tp6
.