((S'Title'
p0
S'Sky+ '
p1
tp2
(S'Description:'
p3
S'Sky+ is the ultimate way to discover and manage your entertainment so you can enjoy TV your way. KEY FEATURES: \xe2\x80\xa2 TV GUIDE - Full seven day listings for all your Sky TV channels. \xe2\x80\xa2 REMOTE RECORD \xe2\x80\x93 Set your Sky+ box to record your favourite TV programmes on the move. \xe2\x80\xa2 SERIES LINK \xe2\x80\x93Record an entire TV series with a touch of button and don\xe2\x80\x99t miss an episode again (you\xe2\x80\x99ll need a Sky+HD box). \xe2\x80\xa2 SEARCH \xe2\x80\x93 Easily find the show or movies you\xe2\x80\x99re looking for. \xe2\x80\xa2 HIGHLIGHTS \xe2\x80\x93 Our pick of the very best TV programmes available this week. \xe2\x80\xa2 OTHER AIRINGS \xe2\x80\x93 Quickly see when else a show is airing to help you avoid any clashes. \xe2\x80\xa2 RECOMMENDATIONS \xe2\x80\x93 View programmes you may also like. \xe2\x80\xa2 FAVOURITES \xe2\x80\x93 Create your own TV Guide, by saving your favourite channels. And for all Android users (OS 2.2 and above) when connected to their Sky+HD box with the new Sky Guide you also have the enhanced features: \xe2\x80\xa2 REMOTE CONTROL \xe2\x80\x93 Swipe to rewind, & fast forward, tap to pause / play what you\xe2\x80\x99re watching on your TV. Swipe up or down to change channels, or if you know the channel number just type it in. \xe2\x80\xa2 PLANNER MANGEMENT - See and manage all your recordings in your Planner, view them by genre, add a series link or delete a programme you no longer want all without interrupting viewing on the TV. Once you\xe2\x80\x99ve found a show you want, just press Watch and it will start playing on your TV. Requirements - To use the enhanced features you will need a compatible Sky+HD box with the new Sky Guide, and to connect your box to your broadband router either with a Ethernet cable or a Wireless Connector. Then make sure your Android device (OS 2.2 and above) is on the same broadband network. You do not need an HD subscription. Please see the Help section of the app for more details. In order to use Remote Record you will need to register your Sky iD with the service at sky.com/remoterecord and simply follow the instructions. Please note that requests require 30 minutes notice before the start of recording. Series Link is only available to customers with a compatible Sky+HD box. All recordings are FREE, however mobile network and/or Wi-Fi charges may apply. Help - If you\xe2\x80\x99re having issues with Remote Record or connecting the app to your Sky+HD box please visit our dedicated help pages; http://help.sky.com/tv/recording/remote-record-troubleshooting You can also drop us a line if you experience any problems. Our email address is apps@bskyb.com Sky\xe2\x80\x99s privacy notice explains how Sky uses your information. You can view this notice at: http://www.sky.com/privacy/ The terms and conditions have been amended to reflect the recent changes to the app. Please read them carefully before using the app.Recent changes:=== 3.0.2 ===- Fixes a bug where some customers are seeing incorrect airing times in Planner itemsYou can contact us via apps@bskyb.com with your feedback and feature suggestions. We are continuing to focus our efforts on improving connectivity for those customers experiencing issues and are keen to hear more detailed feedback; please also email us at apps@bskyb.com'
p4
tp5
tp6
.