((S'Title'
p0
S'SkyDroid - Golf GPS '
p1
tp2
(S'Description:'
p3
S'Accurate and reliable, SkyDroid - Golf GPS is the perfect Golf GPS Range Finder and Scorecard for your Android phone. Our simple to use design is used world wide helping golfers get their distances and lower their golf scores.#1 Golf GPS Range Finder app in the Sports Category!\xe2\x98\x85\xe2\x98\x85\xe2\x98\x85\xe2\x98\x85Now with Scoring and Statistics.Get Single Player Scoring and Stats in the latest version.\xe2\x98\x85\xe2\x98\x85\xe2\x98\x85\xe2\x98\x85You\'ll get a full-featured Golf GPS rangefinder that shows your distance to the front, center and back of every green of every golf course. Plus distances to many hazards and targets. You can find your distance to any point on the golf course with a finger press. Satellite view of every golf course, plus Scoring and Statistics!!Over 180,000 golfers have installed our Golf GPS app and love its features. No course download charges. No subscription charges.\xe2\x98\x85\xe2\x98\x85\xe2\x98\x85\xe2\x98\x85Over 22,000 Golf Courses Mapped !!\xe2\x98\x85\xe2\x98\x85\xe2\x98\x85\xe2\x98\x85Features\xe2\x98\x85 GPS Distance to every green\xe2\x98\x85 New: Scoring and Statistics\xe2\x98\x85 Distances to water hazards, bunkers, and more\xe2\x98\x85 Satellite view of every course!\xe2\x98\x85 Distance to ANY point on the map!\xe2\x98\x85 Shot Tracking!\xe2\x98\x85 Download unlimited courses\xe2\x98\x85 Map ANY course online!Visit www.skydroid.net to see our Course list, or use our new Course Finder web page to find golf courses near you that are ready for downloading for free to your SkyDroid - Golf GPS app.SkyDroid - Golf GPS gives you your range finder distance to every green on the golf course and more. It\'s easy to use, has a beautiful design, and there are no subscription or course download fees.Get a satellite view of every course and green. Zoom into any location or get a rangefinder distance to any point on the map just by holding your finger on it.GPS Distances to the Front, Center and Back of every green (not just the center location like some apps). \xe2\x98\x85 Starting with version 2.0 we now have scoring and statistics available. Score your round and keep track of stats like putts per round, hit fairway% and more.Distances to course features (water hazards, bunkers, target points) are available for most courses. If you don\'t see a feature you need you can add it to the course mapping using our website.GPS Range Finder Accuracy indicator lets you know exactly how accurate the distances are at any time (GPS accuracy can fluctuate, but SkyDroid keeps you informed).Track the distance of your last shot with our shot tracker.Automatic hole advance will have you clicking less buttons.\xe2\x98\x85\xe2\x98\x85\xe2\x98\x85\xe2\x98\x85Add New Courses\xe2\x98\x85\xe2\x98\x85\xe2\x98\x85\xe2\x98\x85Can\'t find your golf course in the system? No problem, our online Course Mapper web page let\'s you add new courses in as little as 10 minutes.  We get new golf courses added by our users every single day of the year.You can also edit existing courses using the website, to add features or make adjustments (add target points, etc.) as needed. Then just re-download the course to the app to see the changes.\xe2\x98\x85 Works InternationallyChange distance measurement to yards or meters.\xe2\x98\x85 Visit www.skydroid.net to learn more.*** Usage Notes ***Use your Menu button on the Course List screen to access Settings.Long press on the "Score" button to see the full scorecard.Recent changes:\xe2\x98\x85\xe2\x98\x85\xe2\x98\x85\xe2\x98\x85-Fix for Galaxy Note screen layout-Search screen: improved location fix for nearby course search-Bug fixes (crash for lefty golfer full scorecard), and other fixes\xe2\x98\x85\xe2\x98\x85\xe2\x98\x85\xe2\x98\x85'
p4
tp5
tp6
.