((S'Title'
p0
S'Skyfire Web Browser 5.0 '
p1
tp2
(S'Description:'
p3
S"Skyfire Web Browser 5.0 for Android is more than just an app. Skyfire's new web browser offers an arsenal of intelligent browsing features and enhancements built right into the browser \xe2\x80\x93 making Skyfire the smartest app on your smartphone. And it's free!Skyfire is the next generation of mobile browsing \xe2\x80\x93 come see why over 20 million users have downloaded Skyfire.Skyfire 5.0 for Android is\xc2\xa0loaded\xc2\xa0with features that make browsing the mobile web more social & more useful than ever before. Extensions like Facebook, Twitter, Amazon, Yelp, Related Apps, Offers, Readability and many more allow users to stay connected, find deals, browse apps and save browsed content for later \xe2\x80\x93 all without leaving the page they're currently on. Users can add, remove and even\xc2\xa0create\xc2\xa0their own extensions.\xc2\xa0Nearly 20 mobile browser extensions have been added to Skyfire's web browser for the very first time.\xc2\xa0We've also redesigned the look and feel of the application to make it more simple and streamlined than ever before.Skyfire Web Browser comes out-of-the-box with the ability to turn on or off the following recommended toolbar extensions. You can easily create and add your OWN extensions with the touch of the \xe2\x80\x98+Add\xe2\x80\x99 button:\xc2\xa0\xe2\x9c\x94Facebook \xe2\x9c\x94Twitter \xe2\x9c\x94Popular\xc2\xa0\xe2\x9c\x94Related Apps  \xe2\x9c\x94Amazon \xe2\x9c\x94Wikipedia\xc2\xa0\xe2\x9c\x94Yelp \xe2\x9c\x94IMDB \xe2\x9c\x94ESPN \xe2\x9c\x94Offers\xe2\x9c\x94Readability\xe2\x9c\x94Discover via Twitter\xe2\x9c\x94Linkedin \xe2\x9c\x94Groupon\xe2\x9c\x94Yahoo! Finance\xe2\x9c\x94Google Reader\xc2\xa0\xe2\x9c\x94Like Tailor-made Browsing - Skyfire Web Browser offers users a unique way to personalize and modify your own unique browsing experience. Add your own favorite content to the toolbar \xe2\x80\x93 Simply click the \xe2\x80\x9cAdd\xe2\x80\x9d button in the Horizon toolbar, and you can pin your favorite web app or shortcut to take your browsing to the next level.Note: Skyfire Web Browser 5.0 does not support tablet devices due to screen size. This new version of Skyfire also does not support an in-app upgrade to Flash video capabilities. We have decided to move away from support of Flash, a format that is in decreasing use, in favor of making the best browser and browser extensions in the world. Read more here if you have any questions:http://www.skyfire.com/en/news/blog/164-the-new-skyfire-for-android-featuring-skyfire-horizon-extensions-improved-browsing-a-moreRecent changes:Skyfire is focused on making mobile browsing more social, contextual & app-like in the wake of the decline of Flash. Skyfire users know that Adobe dropped Flash support on Android last year, & that videos are decreasingly encoded in Flash, w/ mobile video predominantly being encoded as MP4. Skyfire is focusing its attention on building an innovative, world-class, free browser; not on rendering Flash video for devices that don't support it, nor on making Android users pay for that privilege."
p4
tp5
tp6
.