((S'Title'
p0
S'Smart Office Lite '
p1
tp2
(S'Description:'
p3
S'View, print and share Microsoft Office documents on your phone or tablet.Smart Office Lite makes viewing Microsoft Office and other documents on the move even easier through a contextual interface. Experience the viewing, editing and printing of Smart Office 2, register for news and updates, and offers you an easy route to upgrade.PRINTING! See the market leading Smart Office 2 Print Room in action! You can print one page to thousands of wireless printers from 34 manufacturers including HP, Epson, Canon and Samsung. Smart Office 2 allows you to print an unlimited number of pages!NEW USER INTERFACE! The Smart Office Dashboard is your new hub for mobile office activity. It allows quick access to Printing, Presenting, Explorer Views and a News Feed.CLOUD FILE ACCESS! Download and view your files directly from Dropbox and Google Docs. Buy Smart Office 2 to edit and upload too!Manage files using Picsel\xe2\x80\x99s Visual Explorer file manager. See up to 10 thumbnails of your documents in the Lite Timeline view (unlimited in Smart Office 2!) and helpful information in Document Info View. Our benchmark viewing technology means you can view Adobe PDF, image files, plain text and other standard applications.Smart Office Lite allows you to experience all of the great features of Smart Office 2 before upgrading. --- Features ---\xe2\x98\x85 View major office documents (limited number of pages).\xe2\x98\x85 Try out the editing features of Smart Office 2.\xe2\x98\x85 Export to PDF (limited number of pages).\xe2\x98\x85 Print to thousands of wireless printers (limited number of pages).\xe2\x98\x85 Unique Document Info View.\xe2\x98\x85 Visually appealing Timeline View.\xe2\x98\x85 Send and receive email attachments.\xe2\x98\x85 Recalculate spreadsheets and update charts with new formulae.\xe2\x98\x85 Zoom to any size from multiple-pages-on-screen, to huge.\xe2\x98\x85 Slide show presentation (limited number of slides)\xe2\x98\x85 Cut and paste selections to the special scrap book and system clipboard.\xe2\x98\x85 Undo mistakes easily. \xe2\x98\x85 Reflow pages to fit screen or use full page layout.\xe2\x98\x85 Tablet user interface with easy dialogues.\xe2\x98\x85 Phone UI, with multi-touch or single touch gestures.\xe2\x98\x85 World\xe2\x80\x99s first stereo 3D document viewing. \xe2\x98\x85 High performance loading and zooming.\xe2\x98\x85 Android 1.5 and later compatibility.\xe2\x98\x85 Search for text, and follow hypertext links.\xe2\x98\x85 Navigate easily to any page with convenient gestures. \xe2\x98\x85 Dropbox file sharing to cloud storage.\xe2\x98\x85 Google Docs file sharing for some files, beta\xe2\x98\x85 Email, SD card file access. \xe2\x98\x85 File browsing is convenient and fast. \xe2\x98\x85 Register for news, and upgrade to Smart Office 2.--- File formats ---\xe2\x98\x85 Microsoft Office: all versions since 1997:\xe2\x98\x85 Word, PowerPoint and Excel 97, 2000, XP, 2003, 2007, 2010, doc, docx, xls, xlsx, ppt, pptx; \xe2\x98\x85 Adobe Acrobat PDF Viewer, PDF Reader, Save as PDF; \xe2\x98\x85 JPEG, PNG, GIF, BMP images; Vector WMF and EMF diagrams; plain text (viewing); \xe2\x98\x85 Print to Epson, HP, Xerox, Ricoh, Lexmark, Canon, Konica, Sharp, Oki, IBM, Toshiba, Samsung, Brother, Dell and many other wireless printers supporting HP PCL3GUI, PCL6, PCL5, Epson ESC/P-R, Samsung SPL.--- Languages ---Application localised for: Chinese (Simplified), Chinese (Traditional), Japanese, French, German, Italian, Korean, Polish, Portuguese, Russian, Spanish and Turkish. View documents in the following languages: Chinese (Simplified), Chinese (Traditional), Czech, Danish, Dutch, Finnish, French, German, Greek, Indonesian, Italian, Japanese, Korean, Norwegian, Polish, Portuguese, Russian, Slovak, Spanish Swedish, Turkish and Ukrainian. --- Connect ---For up to date product news, sneak peaks and announcements find us on Facebook and Twitter:Facebook.com/picselukTwitter.com/picselukYou can also register for email updates at: www.picselsmartoffice.comFor our excellent support, please email: support-android@picsel.comBy downloading you agree to Terms of use at www.picsel.com/legal/pso-eula'
p4
tp5
tp6
.