((S'Title'
p0
S'SMS Text Messaging \xc3\xa2\xe2\x80\xa0\xe2\x80\x9dPC Texting '
p1
tp2
(S'Description:'
p3
S'\xe2\x98\x85 Text from your Computer or Tablet, using your current Android phone number\xe2\x98\x85 Instant Notifications on computer/tablet when SMS hits phone.\xe2\x98\x85 30 Seconds Setup Time\xe2\x98\x85 100% Free  (no additional charge from what your Carrier charges - text free)\xe2\x98\x85 See who\'s calling -- on your computer or tablet!\xe2\x98\x85 See your phone\'s battery level - on your computer/tablet.\xe2\x98\x85 NEW! Sync/backup your photos & videos from your phone, securely and easily \xe2\x98\x85 Picture Messages (MMS Messaging) on your computer. Backup MMS as well. \xe2\x98\x85 Messages stay fully synced with your phone\'s SMS\xe2\x98\x85 SMS Backup & Restore Automatically: Backup MMS & SMS to MightyText and view from any device*This is the app to install on your Android Phone (not Tablet) *2 Easy Steps:(1) Install this Android App on your phone(2) On your Computer go to https://mightytext.net/appTo start texting from tablet, first install this app on your phone.  Then install our MightyText Tablet App on your Android tablet:https://play.google.com/store/apps/details?id=com.mightytext.tablet*NOTE* - MightyText sends msgs via your phone, so your carrier will charge you as if you sent SMS from your phone. MightyText charges no additional fee (free SMS sync & Secure SMS backup).  Save text messages & save picture messages (MMS) to your MightyText account securely.Save Battery Life:  Our app helps save battery - because you can send SMS & send MMS from tablet or computer, device, so your phone\'s display stays off (this saves phone battery!). Saving your screen is the ultimate battery saver. See a live battery indicator and battery widget on the computer.Phone Calls:  See who is calling you, in real-time, on your computer/tablet. Call Logs are also stored to show history of missed calls and incoming calls and outgoing calls.Dialer on Computer/Tablet:  Live dialer from computer app so you can dial your contacts from the computer (dialer tells your phone to initiate the call)SMS Tracker: Track your SMS from any computer or tablet. No need to be near your phone since our SMS tracker technology routes texts remotely.Backup SMS and MMS: We are a super backup alternative since we save sms and mms to your own account. Think of it like Dropbox for your SMS.Video / Photo Sync: You can now see photos and videos you take on your phone in your MightyText account on your computer (coming soon for MightyText tablet app)Use your Phone\'s Contacts: Contacts from your Phone are used on the computer app so you can see contact names and contact photos.Text free if you have unlimited texting.MightyText is different from other texting apps such as KakaoTalk and WhatsApp because we integrate directly with your phone\'s SMS inbox.keywords: sms backup and restore, mms backup, backup mms messaging, texting apps, texting from computer, text free, texting free, text message from tablet, remote desktop, sms tracking, remote sms, backup sms, contacts, text message apps, call logs, save call logs, textgram, save text messages, save sms messages, save sms messages to cloud, save text messages to cloud, low battery alerts, save battery , battery alerts on computer, battery saver, sms tracker agent, sms apps, colornoteBy clicking "Install" you agree to these Terms of Service: http://mightytext.net/tosAndroid and Chrome are trademarks of Google Inc. Use of these trademarks is subject to Google Permissions.Recent changes:3.55 release---\xe2\x98\x85 All users now have access to Photos/Videos sync feature\xe2\x98\x85 Optimized photo synching3.50 release---\xe2\x98\x85 Added menu options to "Rate MightyText" and "Share MightyText"\xe2\x98\x85 Added more logging information to detect errors'
p4
tp5
tp6
.