((S'Title'
p0
S'Snafu '
p1
tp2
(S'Description:'
p3
S'Consumer VIN ScannerIMPORTANT NOTE: This application is NOT FULLYFUNCTIONAL without a monthly subscription.Bad news. Good news. The bad news is, when you Google \xe2\x80\x9cleast trustedprofessions\xe2\x80\x9d used car dealers are second only to politicians. The goodnews is you know have a nuclear weapon in your arsenal when itcomes to purchasing a used vehicle from a \xe2\x80\x9cless than honest\xe2\x80\x9d dealer.Introducing\xe2\x80\xa6 S.N.A.F.U. (Situation Normal All Fouled Up)\xe2\x80\x94the AppStore\xe2\x80\x99s only application that shows you what the dealer actually hasinvested in the vehicle from the auction. Armed with S.N.A.F.U. you canno longer fall victim to unscrupulous used car dealers!Everyone knows the \xe2\x80\x9csticker or asking price\xe2\x80\x9d is merely a starting point.In order for you to know a fair price to offer the dealer, you need toknow how much the dealer has invested in the vehicle to begin with.This important piece of information has been carefully concealed fromyou. All dealer auctions have police standing watch to keep consumersout, and from seeing the dealer\xe2\x80\x99s wholesale costs.Most dealer\xe2\x80\x99s when pressed will show you an \xe2\x80\x9cauction invoice\xe2\x80\x9d of what\xe2\x80\x9cthey say\xe2\x80\x9d they have in the vehicle. If their invoice says $10,500 andS.N.A.F.U. says the current cost of that vehicle is $6,500\xe2\x80\x94then they areeither lying to you, or they have to be the city\xe2\x80\x99s worst car buyer. Onlywith S.N.A.F.U. will you\xe2\x80\x99ll be able to see what the dealer could buy thevehicle for\xe2\x80\x94in real time\xe2\x80\x94at their heavily guarded dealer auctions.Using S.N.A.F.U. is a snap. Locate the vehicle\xe2\x80\x99s identification number(VIN), open the app, enter the selling price, current odometer, and pressSCAN. Your smartphone takes a picture of the VIN and in seconds you\xe2\x80\x99llsee:- The current price of the vehicle at the dealer auction- The number of factory recalls with detailed information- Current status of the vehicle\xe2\x80\x99s title: clean, salvaged, or rebuilt*- The number of accidents the vehicle has been in*- The number of previous owners*- If the odometer has been tampered with*- How many thousands of dollars the dealer is trying to make- S.N.A.F.U.\xe2\x80\x99s fair price offer which includes a $1,000 dealer profitS.N.A.F.U. is a client application that works in conjunction withour subscription based web service. You can download the app forfree, but in order to get the current vehicle values you need to be asubscriber. If you find a used car within the subscription period youneed to pay nothing else. Use S.N.A.F.U. month-to-month. We do nothave any long-term contracts for you to worry about.If you are in the market for a pre-owned vehicle\xe2\x80\x94you need S.N.A.F.U.\xe2\x80\x9cBecause buying a used car is like going to war.\xe2\x80\x9d It can literally saveyou thousands of dollars on your next vehicle purchase. Also, youcan make hundreds of offers from the War Room online! No scanningneeded. Pick a dealership. Choose a vehicle. Make a S.N.A.F.U. offer.Don\xe2\x80\x99t be taken for a ride. Strike back with S.N.A.F.U. and know thedealer\xe2\x80\x99s cost. Remember\xe2\x80\xa6 \xe2\x80\x9cKnowledge is power.\xe2\x80\x9d \xe2\x80\x93Sir FrancisBacon.*(Additional unlimited consumer Autocheck account needed)'
p4
tp5
tp6
.