((S'Title'
p0
S'Snapseed '
p1
tp2
(S'Description:'
p3
S'Snapseed is the only photo app you\xe2\x80\x99ll want to use every day. It makes any photograph extraordinary with a fun, high-quality photo experience right at your fingertips.Anyone can enhance, transform, and share their photos with ease using incredibly advanced features from the leader in digital photography software. Built-in Google+ capabilities make it even more powerful to share your images with your friends and family. PRAISE FOR SNAPSEED:\xe2\x80\x9cSnapseed\xe2\x80\xa6first-class photo-editing software.\xe2\x80\x9d ~~Roy Furchgott, New York Times\xe2\x80\x9cSnapseed...offers an incredible level of control over its effects and filters.\xe2\x80\x9d ~~Jaymar Cabebe, CNET BENEFITS:\xe2\x80\xa2 Easily adjust your photos with a single tap using Auto Correct\xe2\x80\xa2 Tweak your photo to perfection with Tune Image\xe2\x80\xa2 Use Selective Adjust to enhance specific objects or areas in your photos\xe2\x80\xa2 Experiment with fun & innovative filters like Drama, Vintage, Grunge, and Tilt-Shift\xe2\x80\xa2 Add Image Borders for a finishing touch\xe2\x80\xa2 Share your creations via Google+, email, and any other service you have installed.  SUPPORTS:\xe2\x80\xa2 Android OS 4.0 (Ice Cream Sandwich) or later\xe2\x80\xa2 Phone or Tablet\xe2\x80\xa2 JPEG photos\xe2\x80\xa2 Language support: English, German, French, Spanish, Italian, Brazilian Portuguese, Japanese, Chinese (Traditional and Simplified), and Arabic GET IN TOUCH:google.com/+Snapseed FEATURES:== Basic Adjustments ==\xe2\x80\xa2 Auto Correct - Automatically analyzes your photo and adjusts color and exposure to perfection.\xe2\x80\xa2 Selective Adjust - Make precise selections and enhancements to specific areas of your photos in seconds with Nik Software\xe2\x80\x99s revolutionary U Point technology.\xe2\x80\xa2 Tune Image - Use Ambience to create depth and vibrancy that uniquely adapts to colors and textures. Adjust White Balance, Saturation, Contrast, more.\xe2\x80\xa2 Straighten & Rotate - Rotate 90\xc2\xb0 and/or straighten photos with simple gesture controls.\xe2\x80\xa2 Crop - Easily crop images to remove distracting parts of your photo with standard aspect ratios, or a free crop. == Creative Enhancements ==\xe2\x80\xa2 Black & White - Get that classic Black and White look with this darkroom-inspired filter.\xe2\x80\xa2 Vintage Films - Make any photo look like a vintage color film photo from the 50\xe2\x80\x99s, 60\xe2\x80\x99s or 70\xe2\x80\x99s.\xe2\x80\xa2 Drama - Add style with a custom effect specifically tailored to your photos, ranging from subtle textures to wildly artistic effects.\xe2\x80\xa2 Grunge - Give your photos a totally unique, hip, and dingy look.\xe2\x80\xa2 Tilt-Shift - Create a narrow in-focus area designed to simulate depth of field, common in a Miniature Scene look.\xe2\x80\xa2 Details - Enhance details with traditional sharpening or the unique Structure control found in the Nik Software professional products.\xe2\x80\xa2 Center Focus - Draw attention to the subject of your photo by blurring and adjusting the brightness of the surrounding background.\xe2\x80\xa2 Frames - Add stylized borders to photos for the perfect finishing touch.\xe2\x80\xa2 Retrolux - Make your photos look truly retro with light leaks, scratches, film styles, and more.Recent changes:\xe2\x80\xa2 New Retrolux filter! Use one of the newly created film styles, combined with a range of different scratches and textures as well as light leaks to create a truly retro look for your photos.\xe2\x80\xa2 Updated Frames filter! Now includes a wide range of new, high quality photographic frames.\xe2\x80\xa2 Resolved an issue that could cause Snapseed to not respond after loading an image.\xe2\x80\xa2 Improved recovery of image edits after switching between applications.'
p4
tp5
tp6
.