((S'Title'
p0
S'Snooker Fans App '
p1
tp2
(S'Description:'
p3
S"Download this Free Snooker Fans App to get all the news and views for the major tournaments as they happen. The continually updated news feed will give up to date information on all of the Snooker tournaments including:Wuxi ClassicAustralian Goldfields OpenShanghai MastersInternational ChampionshipUK ChampionshipGerman MastersWelsh OpenHaikou World OpenChina OpenWorld Snooker ChampionshipUK Masters and much more\xe2\x80\xa6There are 3 Blog feeds to keep you up to date with all the news not just from the tournaments but from the players themselvesThere's 2 photo albums, Facebook, Twitter feeds and video coaching plus some great vintage videos from the halcyon days of the 1980\xe2\x80\x99sDon't trawl the internet trying to pull all this great information together when you can download this app and have everything in one spot and at your finger tips day or night.Just download the app and start enjoying everything it has to offer today \xe2\x80\x93 never miss another snooker score or result again.There's no email sign up just enjoy the great experience this app can bring to you.As a bonus, this handy app also gives you access to all the local news and events in your area."
p4
tp5
tp6
.