((S'Title'
p0
S'Software Data Cable '
p1
tp2
(S'Description:'
p3
S'TRANSFER DATA WITH PC AND OTHER PHONES WITHOUT CABLE (WITHOUT MOBILE NETWORK)WHAT PEOPLE ARE SAYING:\xe2\x98\x85\xe2\x98\x85\xe2\x98\x85\xe2\x98\x85\xe2\x98\x85 "Power of Android. This is simply one of the best software in Google Play"\xe2\x98\x85\xe2\x98\x85\xe2\x98\x85\xe2\x98\x85\xe2\x98\x85 "Auto-sync folders is great. No need to worry about photos lost anymore"\xe2\x98\x85\xe2\x98\x85\xe2\x98\x85\xe2\x98\x85\xe2\x98\x85 "Truly an excellent app. It does exactly what it claims to - and it does it really well"Lets the files get synchronized between your phone, your computer and other phones (or tablets) without cable.Family cloud storage solution, auto-sync folders on mobile devices with computer. Keep data safety and extend mobile device storage without any cost.It\'s fast, free, secure and NO impact to mobile data plan!\xe2\x80\xa8\xe2\x80\xa8Key features:\xe2\x80\xa8  \xe2\x98\x86 Syncronize data with computer without data cable  \xe2\x98\x86 Syncronize data with other Android devices (direct push)  \xe2\x98\x86 Auto sync folders on phone (tablet) to computer on your choice (daily, weekly basis) to backup data  \xe2\x98\x86 Data transfer happens in private (local) WIFI network (easy, secure, fast and no data plan impact)  \xe2\x98\x86 Integrate powerful and easy to use File Manager  \xe2\x98\x86 Data transfer speed up to 54Mb/s  \xe2\x98\x86 Free and no ADSo what are the benefits?   1. The fewer cables to carry the better  2. The computer doesn\'t need to have drivers it does need installed  3. Push photos, music, videos, Apps etc. to other phones/tablets/TV anytime, anywhere  4. Free family cloud storage solution. Auto-sync photos and other important files to your computer (on a daily, weekly basis as you wish)  5. Extend mobile storage space without any costKeywords: wireless transfer,sync pc,sync phone,wifi transfer,wifi ftp,ftp,data cable,android transfer,auto sync,sync folder,usb cable,file manager,file transfer,data transfer without cable,direct pushRecent changes:\xe2\x80\xa2 Display transfer progress when sync file/folder with other phones (send/receive)\xe2\x80\xa2 When sync file/folder with other phones, now you can cancel the file transfer at anytime\xe2\x80\xa2 Display transfer progress when sync file/folder with computer (send/receive)\xe2\x80\xa2 Fixed several force close issues (failed to start the App, failed to open App Settings etc.) happened on some devices (Such as LG P920)\xe2\x80\xa2 Fixed the unable to install issue on a few devices'
p4
tp5
tp6
.