((S'Title'
p0
S'SoundHound \xc3\xa2\xcb\x86\xc5\xbe '
p1
tp2
(S'Description:'
p3
S'Now Tablet Optimized!Features:\xe2\x97\xa6 Blazing fast music recognition\xe2\x97\xa6 The world\'s only singing and humming recognition\xe2\x97\xa6 LiveLyrics: see lyrics move in time with the music\xe2\x97\xa6 Home screen widget allows you to identify music without launching the app\xe2\x97\xa6 No banner advertisements\xe2\x97\xa6 SoundHound Headlines: brings you free song streams, new artists, and more\xe2\x97\xa6 Real-time Facebook and Twitter updates from your favorite artists\xe2\x97\xa6 Facebook and Twitter sharing, listen-on-startup, and geotagging\xe2\x97\xa6 Buy links, YouTube videos, artist biographies, and much more\xe2\x9c\xa7 Thank you to our 100 million+ fans and loyal users for making SoundHound a must-have App! \xe2\x9c\xa7\xe2\x98\x85 Reviews and Honors for SoundHound \xe2\x98\x85Top 10 Must-Have Android Apps - Bob Tedeschi, NY TimesBest Music Engagement App - BILLBOARD Music App AwardsYour top 10 Android Apps - "I love this app... unique in its class." - Jessica Dolcourt, CNETThe Best Android Apps - "There\'s no limit." - John Herrman, Gizmodo"Genius, isn\'t it?" - B.B.C. World Radio "This is amazing... insane, right?" - David Pogue of the NY TimesNote: Location is used to store where songs were discovered.  It can be disabled from the Options menu.Explanation of requested permissions:RECORD AUDIOUsed to record audio for both music and voice search.CHANGE YOUR AUDIO SETTINGSUsed to ensure optimal audio recording settings.FINE (GPS) LOCATIONCOARSE (NETWORK-BASED) LOCATIONUsed to enhance search results and remember where a search took place, which is displayed through History.  This can be disabled in app settings.FULL INTERNET ACCESSUsed to communicate with servers for search results and other content.READ PHONE STATE AND IDENTITYUsed to mute SoundHound audio when receiving phone calls.MODIFY/DELETE USB STORAGE CONTENTS MODIFY/DELETE SD CARD CONTENTSUsed to cache data.CONTROL VIBRATORUsed to notify when search results are ready.VIEW WI-FI STATEUsed to allow usage through WI-FI.VIEW NETWORK STATEUsed to detect when internet access is available.Tags: Sound Hound Music Sing Song ID TagRecent changes:New in 5.3.2:\xe2\x80\xa2 Improved Facebook sharing\xe2\x80\xa2 Bug fixesNew in 5.3:Improved Tablet Application! \xe2\x80\xa2 Optimized for medium and large tablets\xe2\x80\xa2 Visually stunning music discovery\xe2\x80\xa2 See LiveLyrics, the newest way to experience lyrics as they magically move in sync with the song\xe2\x80\xa2 Explore charts, albums and artists with graphic imagery \xe2\x80\xa2 Streamlined sharing to Facebook, Twitter, and more\xe2\x80\xa2 Easily purchase the songs you love'
p4
tp5
tp6
.