((S'Title'
p0
S'Space GO Locker '
p1
tp2
(S'Description:'
p3
S'An amazing goscreenlock theme with stars\xef\xbc\x8cnebula and UFO. Make you feel how fantastic the space is! hope you guys like it :-DSpecially designed for GO Launcher EX. Want an extreme makeover for your phones?Try it now!Notice1. Please make sure you have installed GO Launcher EX V2.58 and GO Locker V1.12 or above. 2. Click Menu>Plugins>GO Locker, choose a theme you like and apply it to your phone.Thank you for your continued support. Any advice or suggestion is appreciated. Feel free to contact us if you have any problems or suggestions.'
p4
tp5
tp6
.