((S'Title'
p0
S'SPORTSCHAU '
p1
tp2
(S'Description:'
p3
S'Mit der App von sportschau.de sind Sie jederzeit aktuell informiert.Neben Nachrichten, Live-Tickern, Ergebnissen und Tabellen z\xc3\xa4hlen auch zahlreiche Audios und Videos zum Angebot.Im Einzelnen:- Nachrichten und Hintergr\xc3\xbcnde zu vielen Sportarten- Informationen zu Behinderten- und Breitensport sowie Doping- Live-Ticker mit Toralarm und Audio-Livestreams der ARD-Bundesligakonferenz- Audios on demand- Videos on demand (je nach Rechtelage ggf. nur aus Deutschland zu erreichen)- Video-Livestreaming (je nach Rechtelage ggf. nur aus Deutschland zu erreichen)- Bildergalerien- Tabellen und Ergebnisse- Hinweise auf Sportsendungen in H\xc3\xb6rfunk und FernsehenBeschreibung einzelner Bereiche:Startseite:Die wichtigsten Sportnachrichten des Tages auf einen Blick: Auf der Startseite der Sportschau-App finden Sie aktuelle Nachrichten und Hintergr\xc3\xbcnde.\xc3\x9cber das Men\xc3\xbc k\xc3\xb6nnen Sie zwischen weiteren Nachrichten aus einzelnen Sportarten, Live-Ticker, Tabellen und Ergebnissen sowie Hinweisen auf Sportsendungen in H\xc3\xb6rfunk und Fernsehen w\xc3\xa4hlen.  Unter "Mehr" k\xc3\xb6nnen Fans ihren Lieblingsverein ausw\xc3\xa4hlen. "Mein Verein" wird dann in Tabellen und Ergebnis-\xc3\x9cbersichten optisch hervorgehoben.Meldungen:Ein Touch auf Bild oder Schlagzeile auf der Startseite \xc3\xb6ffnet die jeweilige Meldung mit gro\xc3\x9fem Bild und Text.  Audios und Bildergalerien von der Sportschau-Webseite gibt es auch in der App. Sie werden durch entsprechende Symbole auf den Bildern gekennzeichnet.Sportarten:Ob, Fu\xc3\x9fball, Formel 1, Handball oder Wintersport: Im Bereich Sportarten l\xc3\xa4sst sich die Liste \xc3\xbcber den Button "bearbeiten" beliebig gestalten.  Wer sich zum Beispiel nur f\xc3\xbcr Handball und Breitensport interessiert, kann die anderen Sportarten hier ausblenden. Dies hat allerdings keine Auswirkungen auf andere Bereiche wie etwa die Startseite.        Die App bietet auch Schwerpunkte zum Breiten- und Behindertensport sowie Doping.Ticker:Der Ticker liefert bei den wichtigsten Events live einen \xc3\x9cberblick. Ob Formel-1-Rennen oder Bundesliga-Spieltag: Der Live-Ticker ist ganz nah dran. Laufen wie zum Beispiel am Bundesliga-Samstag zeitgleich mehrere Spiele, kann man zwischen Konferenz- und Einzelspiel-Modus w\xc3\xa4hlen. Weitere Optionen beim Fu\xc3\x9fball-Ticker: Stenogramme und Blitztabelle.Im Fu\xc3\x9fball-Ticker kann man f\xc3\xbcr beliebig viele Spiele einen Tor-Alarm aktivieren und wird durch "push notification" \xc3\xbcber das Tor, den Torsch\xc3\xbctzen, die Spielminute und das Spielende informiert. Im Bundesliga-Ticker kann man unter anderem die Livestreams der ARD-Radiosender verfolgen.Bilder:Durch Bildergalerien bl\xc3\xa4ttern Sie sich in der App ganz einfach. Auf den \xc3\x9cbersichtsseiten sind Bildergalerien mit einem Symbol gekennzeichnet. Eine \xc3\x9cbersicht \xc3\xbcber alle Bildergalerien finden Sie unter "Mehr".Audios und Videos:Alle Audios und Videos, die bei sportschau.de angeboten werden, sind auch in der App verf\xc3\xbcgbar. Das gilt auch f\xc3\xbcr Livestreams. Sie sind durch ein Symbol gekennzeichnet.\xc3\x9cbersichten \xc3\xbcber alle Audios und alle Videos, die bei sportschau.de angeboten werden, erhalten Sie unter "Mehr".Recent changes:Abspielen von Livestreams gefixt und notwendige Berechtigungen reduziert'
p4
tp5
tp6
.