((S'Title'
p0
S'SportMediaset '
p1
tp2
(S'Description:'
p3
S'Scarica gratuitamente l\xe2\x80\x99applicazione Sport Mediaset per Android. Puoi navigare in mobilit\xc3\xa0 tra news sportive, fotogallery, video e sondaggi con un semplice touch. Le utilissime sezioni Live e La mia squadra ti terranno sempre informato sulle partite del momento e sulla tua squadra preferita, e la grafica in alta qualit\xc3\xa0 migliorer\xc3\xa0 la tua navigazione! Vuoi coinvolgere i tuoi amici? Condividi le notizie, le foto e i video con i tuoi contatti tramite Facebook, E-mail e Twitter. NOTIZIE: segui le news sul Calcio, la Formula 1, la MotoGP e tutte le altre notizie dell\xe2\x80\x99intero panorama sportivo. Se sei interessato alle competizioni internazionali le nuove sezioni Champions League, Calcio Estero e Europa League fanno proprio al caso tuo, con nuovi e continui aggiornamenti! Entra nel mondo del Mercato Non Stop e scopri le evoluzioni del calciomercato. Aggiornati con le news sulle principali squadre italiane: con le Big Ora Per Ora potrai seguire in mobilit\xc3\xa0 le ultimissime di Inter, Juve, Milan, Napoli e Roma. LIVE: potrai seguire in tempo reale tutte le partite che ti interessano. Serie A, Serie B, Champions League e Europa League sempre a portata di mano! Puoi visualizzare non solo i risultati e il calendario ma anche formazioni e cronaca minuto per minuto! LA MIA SQUADRA: segui la tua squadra del cuore: visualizza le news e le informazioni della squadra che tifi selezionandola tra tutte quelle della Serie A! VIDEO: guarda i video in alta qualit\xc3\xa0: ti aspettano ogni giorno clip imperdibili e costanti novit\xc3\xa0! Potrai divertirti scegliendo tra i migliori video di Calcio, MotoGP e Altri Sport! FOTO: visualizza in modalit\xc3\xa0 presentazione le fotogallery di SportMediaset e sfoglia tutte le foto per seguire in ogni momento il meglio del mondo sportivo! Soddisfa le tue curiosit\xc3\xa0 sulla stampa sportiva con le immagini di tutte le prime pagine dei quotidiani di settore italiani ed esteri, aggiornati di giorno in giorno! DITE LA VOSTRA: partecipa ai sondaggi e fotosondaggi della redazione di SportMediaset e visualizza i risultati in tempo reale! SportMediaset ti da la libert\xc3\xa0 di scegliere l\xe2\x80\x99articolo che desideri, di entrare nella sezione che pi\xc3\xb9 ti interessa , di ingrandire e ridimensionare i contenuti come preferisci! Hai infatti la possibilit\xc3\xa0 di utilizzare i tasti specifici di zoom in maniera rapida e intuitiva! SportMediaset, lo sport non ti abbandona mai!Recent changes:In questo aggiornamento:- Sezione "LIVE" aggiornata e migliorata.- Bug Fixing'
p4
tp5
tp6
.