((S'Title'
p0
S'Stitcher Radio - News & Talk '
p1
tp2
(S'Description:'
p3
S'Listen to your favorite news, comedy, sports and talk radio shows on your Android phone or tablet.  Discover the best of NPR, CNN, Fox, BBC, Freakonomics, Adam Carolla, TedTalks, SModcast, Joe Rogan, Rush Limbaugh, Radiolab and over 15,000 shows, podcasts and live radio.  Change the way you listen to radio.WHAT PEOPLE ARE SAYINGCNET \xe2\x80\x9cStitcher is to news and information what Pandora is to music\xe2\x80\x9dBUSINESS WEEK \xe2\x80\x9cMakes Sirius look overpriced and stodgy\xe2\x80\x9d GIZMODO \xe2\x80\x9cStitcher collects and stitches together spoken word radio content. Think of it as your local public radio station, times 400\xe2\x80\x9d KEY FEATURES:* CREATE CUSTOM STATIONS: \xe2\x80\x9cStitch\xe2\x80\x9d together your favorite shows to create customized stations.* DISCOVER NEW SHOWS: Stitcher helps you find new shows you\xe2\x80\x99ll love by recommending shows other listeners of the same show also like.* LISTEN ON DEMAND: Get the latest episodes of your favorite shows as soon as they are released, without the hassle of downloading and syncing podcasts. * GET BREAKING NEWS: Keep up with the day\xe2\x80\x99s biggest stories on the front page and via breaking news audio alerts sent to your phone. * SHARE WITH FRIENDS: Share your favorite shows on Twitter, Facebook and email.Stitcher is the best way to stay connected with the information that\xe2\x80\x99s important to you. Stitcher Radio is a smarter way to listen to the radio.AWARDS & PRAISE- 20 Best Apps of 2012 - TechCrunch - 25 Top Android Apps - Time 2012 - 12 Best Entertainment Apps of 2012 - PC World - Essential Driving App - Wired 2012 - Best News App - Best App Ever Awards- Best Mobile News App - Webby\'s People\'s Voice Award- Top 75 Android Apps - PC Magazine- Top 5 Podcast Apps - Mashable "Best Podcast app ever" Eric"Great, an easy way to keep up on current news" Jake\xe2\x80\x9cI Love NPR and CNBC on the go\xe2\x80\x9d Sam\xe2\x80\x9cUnbeatable, and I\xe2\x80\x99ve tried a few. Like having a real radio in your hand\xe2\x80\x9d Cyril \xe2\x80\x9cThe best thing about it is having different playlists; one for my morning commute, another for my lunch hour (Joe Rogan!) and another for heading home (This American Life)\xe2\x80\x9d JerryRecent changes:3.0.6+ Enhanced support for HTC Media Link3.0.5+ Fixes buffering issue with some live streams+ Major Playback Improvements- Fixed difficulties buffering content- Fixed problems with skipping and resuming episodes3.0.0An all-new experience rebuilt from the ground up. More intuitive navigation, browsing and discovery features!Rich Notifications.  Exclusive to Jelly Bean users, listeners can control playback,  pausing and tracking without unlocking their phones.'
p4
tp5
tp6
.