((S'Title'
p0
S'Stumbler: Tumblr Image Viewer '
p1
tp2
(S'Description:'
p3
S'Stumbler is an easy way to browse photos from Tumblr blogs on your phone. You can bookmark your favorite blog discoveries and download or share individual photos.Features\xe2\x9c\x93 Search for blogs\xe2\x9c\x93 Save images\xe2\x9c\x93 Share images\xe2\x9c\x93 Reblog images (see notes)\xe2\x9c\x93 Like images\xe2\x9c\x93 View Tumblr dashboard\xe2\x9c\x93 View Tumblr followers\xe2\x9c\x93 View Tumblr following\xe2\x9c\x93 Follow/Unfollow blogs\xe2\x9c\x93 Backup/Sync browsing history\xe2\x9c\x93 GIF Support\xe2\x9c\x93 Post image to Tumblr\xe2\x9c\x93 Live Wallpaper (Beta, not recommended for tablets)Manage your Stumblr Cloud account at http://stumblr.hostj2me.comIn the free version, "Reblogged via Stumblr" is appended to reblog comments.Like Us on Facebookhttps://www.facebook.com/stumblr*Stumbler is powered by the Tumblr API.Recent changes:The release notes are included in the application.'
p4
tp5
tp6
.