((S'Title'
p0
S'Super Video, Floating & Popup '
p1
tp2
(S'Description:'
p3
S'Super Video, Floating!\xe2\x96\x88\xc2\xa0Special Feature (v1.6)\xe2\x98\x86 "Group Media Sharing" feature, you can share the media with your friends in a high speed wireless channel without any configuration\xe2\x98\x86 "Privacy List" feature, you can mark the selected media with a lock icon, it only shows in the privacy list\xe2\x96\x88\xc2\xa0The Best Popup Video Player.Full Popup Floating Video with re-size, move window, multi-windows play-back with Group Media Sharing feature. Better operation experience, support subtitle and FREE in the popup video technique.\xe2\x96\x88\xc2\xa0DEMO VIDEOhttp://www.youtube.com/watch?v=3cenFDf72aI\xe2\x96\x88 IntroductionThe "Super Video, Floating!" is an innovation video playback software for Android OS. It has a pop-up floating window system that can show the video on the top of your screen. In other words, you can watch your video content in any application. You can watch the video and do something else at the same time!\xe2\x96\x88 Features\xe2\x98\x86 Popup Video Player.\xe2\x98\x86 Simple Widget\xe2\x98\x86 Multi-Window Video Player.\xe2\x98\x86 Full Subtitle Support for Video Playback.\xe2\x98\x86 Friendly and Simply User Inferface with Grid, List and 3D Gallery.\xe2\x98\x86 100% NO AD\xe2\x98\x86 Group Media Sharing, WiFi Media Sharing service\xe2\x98\x86 Support Vitamio Software Decoder to view the more format (like MPG, RM, RMVB, FLV, MKV ... etc) video file with floating player. (Android 2.3 later)\xe2\x96\x88 DescriptionThe floating system make you can move the video window position and resize the window boundary according to your personal favor. You can also play with full screen or minimize the playing video to the system notification tray . If your device is strong enough, you can also play the video with "Multi-Window"(Maxium is 6). It means you can watch up to six video files at the same time.The "Super Video, Floating!" is not just a popup video player or sticky video player, it has a friendly and simply user interface with List style, Grid style and 3D Gallery Flow style. It can record the playback position of the file and set the favorite files. Moreover, it supports the subtitle (.srt, .ass, and .smi file formats) when you play a video file. it also can play the  audio files (mp3, wav...etc).Group Media Sharing allows the devices with the same network mask to share the media files. In other words, you can share the media contents with your friends in the same WiFi environment (WiFi Access Ponit). All you have to do is turn on the WiFi and select the available device, you can browser the documents that your friends want to share with you.The "Super Video, Floating!" supports from Android 1.5 ~ 4.0.4 with any screen size and resolution. It will integrate the build-in media Gallery for media source, you can input the video streaming URL or launch the "Super Video, Floating!" from others File Explorer.No matter what the screen size of your device, even it has a small-size screen, the "Super Video, Floating" is still working terrific and for the video playback.\xe2\x96\x88 How to operate with the popup video ?1.Press the right-bottom corner of the video and drag to resize the video frame.2.Press the center of the video and drag to move the window.3.Fling the right side to change to volume.4.Fling the bottom side to  Forwrd or Rewind.5.Fling the left right to change the brightness\xe2\x96\x88 Free EditionThe software is a free edition, some features are only available in Professional edition like the more favorite files...etc. If you like the software, you can buy the Professional edition license via Google Play in-app purchase.Just try it for free!\xe2\x96\x88 THANKS TOKorea translation, thanks and credit to \xec\x8b\xa0\xec\x9c\xa4\xeb\xb9\x88,HyeongMin Woo.Hebrew translation, thanks and credit to DorS.Russian translation, thanks and credit to \xd0\xa1\xd0\xb5\xd1\x80\xd0\xb3\xd0\xb5\xd0\xb9 \xd0\x9a\xd0\xbe\xd0\xbd\xd1\x81\xd1\x82\xd0\xb0\xd0\xbd\xd1\x82\xd0\xb8\xd0\xbd\xd0\xbe\xd0\xb2\xd0\xb8\xd1\x87.\xe2\x96\x88 KeywordVideo Player, Popup Video, Stick, Floating, Stick it, Subtitle, Vitamio, Group Media Sharing, WiFi Media Sharing, UPnPRecent changes:2013-MAY-02 v1.6.7Add: new option, "Use Large Font", "Mark Favor Files in this Directory","Wallpaper Background"Add: you can mark the directory with Favorite or Privacy flag now.Modify: bug fix'
p4
tp5
tp6
.