((S'Title'
p0
S'Superscommesse e pronostici '
p1
tp2
(S'Description:'
p3
S"Ti servono Pronostici, Quote, Risultati in diretta, Probabili formazioni, Dritte e consigli sulle scommesse? Ecco l'app che ti serveSuperscommesse.it, aumenta le tue vincite alle scommesse del +30%! su calcio, basket e altri sport.Superscommesse.it confronta le quote fino a 30 bookmaker in tempo reale con il tuo telefono indicandoti sempre la quota pi\xc3\xb9 vantaggiosa e i pronostici vincenti su cui scommettereSuperscommesse.it \xc3\xa8 la app che offre un confronto quote di scommesse sportive per oltre 20.000 eventi sportivi al mese. Sull\xe2\x80\x99applicazione troverai per eventi di Calcio, Tennis, Basket e altri sport anche i Pronostici degli esperti e le ultime notizie.L\xe2\x80\x99app di Superscommesse \xc3\xa8 ideale per vincere nel mondo delle scommesse sportive perch\xc3\xa9 contiene:- Pronostici: ogni giorno i nostri esperti pubblicano pronostici per aiutarti a vincere le scommesse- Notizie: in tempo reale aggiornamenti sul calciomercato, probabili formazioni, risultati- Scommesse pi\xc3\xb9 giocate: le migliori quote sui 20 eventi pi\xc3\xb9 giocati da chi scommette- Guida alle scommesse: 10 rubriche con pratici consigli per i principianti e strategie per gli esperti- Bonus Bookmaker: recensione dei migliori bonus di ingresso per le scommesse o per il poker- Risultati in tempo reale: puoi seguire in diretta i risultati calcio, risultati basket, i risultati del volley e degli altri sport in programma. Il livescore di superscommesse ti manda gli aggiornamenti necessari per gestire al meglio anche le scommesse live.Ti piace scommettere? Allora usa l\xe2\x80\x99App Gratis di Superscommesse, aumenterai le tue vincite del 30%! visita la nostra community http://www.superscommesse.it/tifosi/ per avere una reale testimonianza Descrizione dettagliata dell'applicazione Superscommesse.it per pronostici, risultati sportivi, quote scommesse, notizie sportive. - Oltre 10 sport presenti come Calcio, Tennis, Volley, Rugby, Motori, Basket- Oltre 2000 tornei presenti come Serie A, Serie B, Lega Pro, Premier League, Liga, Ligue 1, Bundesliga nel calcio, ma anche tutti i tornei ATP e WTA di Tennis oltre a quelli classici Wimbledon, Roland Garros, Australian Open- Oltre 20.000 eventi sportivi che coinvolgono tutte le squadre e non solo le big come Juventus, Milan, Napoli, Roma, Inter, Manchester, Barcellona"
p4
tp5
tp6
.