((S'Title'
p0
S'SwiftKey Keyboard '
p1
tp2
(S'Description:'
p3
S'SwiftKey \xe2\x80\x93 the best-selling keyboard on Android#1 selling app in 38 countries, over 100,000 \xe2\x9c\xae\xe2\x9c\xae\xe2\x9c\xae\xe2\x9c\xae\xe2\x9c\xae reviewsWinner of Webby Award & Global Mobile Award for InnovationA Fast Company Top 10 Most Innovative Mobile BusinessThe only true multi-lingual keyboard - type in up to three languages simultaneously\xe2\x80\x9cShockingly accurate, making for a creepy-fast typing experience.\xe2\x80\x9d - TIME Magazine\xe2\x80\x9cI can\xe2\x80\x99t recommend SwiftKey highly enough.\xe2\x80\x9d - CNETSwiftKey replaces the touchscreen keyboard on your phone with one that understands how words work together, giving the world\xe2\x80\x99s most accurate autocorrect - and predicting your next word before you press a key.The keyboard learns as you use it to make corrections and predictions based on the way that you write. It can learn from your Gmail, Facebook, Twitter or blog to make its insights even more personalized. You can also enable up to three languages simultaneously, for true multi-lingual typing.Switch seamlessly between tapping and gesture typing with our new SwiftKey Flow feature. It combines the mind-reading capabilities of SwiftKey with the speed of gliding your fingers across the screen. With \xe2\x80\x98Flow Through Space\xe2\x80\x99, you can also enter entire phrases without lifting your finger from the screen, simply by sliding to the space bar between words.For video tips and support, visit http://www.swiftkey.net/Language support (enable up to three at once):English (US)English (UK)English (AU)AfrikaansAlbanianArabicArmenianAzerbaijaniBasqueBosnianBulgarianCatalanCroatianCzechDanishDutchEstonianFinnishFrench (CA)French (FR)GalicianGeorgianGermanGreekHebrewHindiHinglishHungarianIcelandicIndonesianIrishItalianJavaneseKazakhKoreanLatvianLithuanianMacedonianMalayNorwegianPersian (Farsi)PolishPortuguese (BR)Portuguese (PT)RomanianRussianSerbianSlovakSlovenianSpanish (ES)Spanish (US)Spanish (LA)SundaneseSwedishTagalogThaiTurkishUkrainianUrduVietnamese###We take your privacy very seriously. This keyboard does not learn from password fields and all language data learned on your device is stored on your device\xe2\x80\x99s internal memory or SD card and never transferred.Internet connection permission is required to install this app, so that language module files and cloud personalization data can be downloaded.Use of this app is subject to our robust privacy policy, which is there to protect your rights and privacy. Read it in full at http://www.swiftkey.net/privacyRecent changes:SwiftKey Flow: World\xe2\x80\x99s most accurate gesture input, with next word predictionFlow Through Space: Gesture multiple words without lifting a fingerPersonalization: More thorough learning of your language and typing styleBetter predictions: Enhanced language engine, predictions in more text fieldsEasier corrections: Tap anywhere on a word to choose an alternative60 languages: Now including Albanian, Bosnian, Javanese, Sundanese, Thai, Vietnamese'
p4
tp5
tp6
.