((S'Title'
p0
S'TagsForLikes - Instagram Tags '
p1
tp2
(S'Description:'
p3
S"Copy & Paste Instagram Hashtags Fast!\xe2\x98\x85\xe2\x98\x85\xe2\x98\x85\xe2\x98\x85\xe2\x98\x85\xe2\x98\x85\xe2\x98\x85\xe2\x98\x85\xe2\x98\x85\xe2\x98\x85\xe2\x98\x85\xe2\x98\x85\xe2\x98\x85\xe2\x98\x85\xe2\x98\x85\xe2\x98\x85\xe2\x98\x85\xe2\x98\x85\xe2\x98\x85\xe2\x98\x85\xe2\x98\x85\xe2\x98\x85\xe2\x98\x85TagsForLikes helps you add hashtags to your Instagram pictures faster. You MAY get more likes/followers as a result of this.Want to tag your pics FAST?TagsForLikes curates the \xe2\x98\x85hottest\xe2\x98\x85 Instagram hashtags to help you possibly get more likes and tag your pictures fast!Simply choose a category, tap 'Copy', and Paste into your Instagram pictures!NEW: Now create CUSTOM tag categories!!Tag Categories include:\xe2\x9c\x93 Popular\xe2\x9c\x93 Nature\xe2\x9c\x93 Animals\xe2\x9c\x93 Celebs (One Direction / Bieber)\xe2\x9c\x93 Follow / Shoutout / Likes\xe2\x9c\x93 Food\xe2\x9c\x93 Fashion... and many more!Don't miss out on this Instagram secret.Download FREE for a limited time!Follow us on Instagram: @TagsForLikesUse our hashtag to enter our daily shoutout contests: #TagsForLikesDownload NOW become a #TFLerGUARANTEED LIKES!!\xe2\x98\x85\xe2\x98\x85\xe2\x98\x85\xe2\x98\x85\xe2\x98\x85\xe2\x98\x85\xe2\x98\x85\xe2\x98\x85\xe2\x98\x85\xe2\x98\x85\xe2\x98\x85\xe2\x98\x85\xe2\x98\x85\xe2\x98\x85\xe2\x98\x85\xe2\x98\x85\xe2\x98\x85\xe2\x98\x85\xe2\x98\x85\xe2\x98\x85\xe2\x98\x85\xe2\x98\x85\xe2\x98\x85FAQ:1. Can I request a new category?\xe2\x80\x94 Yup, just email me at: Z@TagsForLikes.com2. How do I paste tags into my pics?\xe2\x80\x94 In your caption while uploading tap and hold the box where you type, tap 'Paste'. You can also comment on the picture and paste tags in the comment.3. I get a 'too many tags' error?\xe2\x80\x94 Instagram allows max 30 tags per picture. All of our tags blocks are 30 tags or under. Delete all other tags on your picture before pasting our tags.4. How can I ensure I have the latest tags?\xe2\x80\x94 Make sure to tap 'Allow Automatic Updating' to always have the latest categories. You can enable that setting if you go into the Google Play market > Select 'Downloads' > Select the 'TagsForLikes' app > Tap 'Allow Automatic Updating'.Keywords: Instagram hashtags hashtag tags for likes tagsforlikes.com www.tagsforlikes.com instagram followers popular likes like copy and paste instagram TFLers tagstagram tags instatag instag copy & paste hashtagsRecent changes:- New Categories!- Now categories are downloaded from our site straight into your app so you always have the latest categories!!- Bug Fixes- Fixed problem for locations outside of U.S. not updatingMake sure to tap 'Allow Automatic Updating' to always have the latest categories. You can enable that setting if you go into the Google Play market > Select 'Downloads' > Select the 'TagsForLikes' app > Tap 'Allow Automatic Updating'.As always, request categories you want to see made!"
p4
tp5
tp6
.