((S'Title'
p0
S'Talkatone free calls + texting '
p1
tp2
(S'Description:'
p3
S"Free Calling and Texting to any phone in US and Canada. Make your Android device a true free Internet phone. No strings attached! Unlimited FREE calling, texting and picture sharing to Facebook and Google friends, or any phone number in US and Canada (requires free Google Voice\xe2\x84\xa0 account). Login with Facebook or Google account to make free calls and chat with friends anywhere in the world, even when you are on a plane. Configure your Google Voice\xe2\x84\xa0 to have absolutely FREE calls and SMS to regular phone numbers in North America. Share pictures with friends who also use Talkatone app. You don't have to earn calling credits with Talkatone app to make free calls to anyone in US and Canada - you just make free calls without worrying about your minutes. And yes, there is no limits on free calls to US and Canada.*** TOP FEATURES *** \xe2\x80\xa2 Free calling and texting over WiFi or 3G/4G* \xe2\x80\xa2 Free incoming calls and texts** \xe2\x80\xa2 Calls and texts with Facebook friends without phone numbers worldwide \xe2\x80\xa2 Universal Address Book\xe2\x80\xa2 High quality audio with voice compression for calls.\xe2\x80\xa2 Highest-rated free phone calling app \xe2\x80\xa2 Unbeatable FREE support within 24 hours. (*Internet provider data charges may apply) (** free Google Voice number to receive incoming calls is available for US users only)*** IMPORTANT *** \xe2\x80\xa2 To minimize data and battery usage during the calls and while app is idle, you'll be connected to Google through Talkatone's servers. Contact Talkatone Support for more details. \xe2\x80\xa2 Free phone calls to regular phones in US and Canada requires an existing Google Voice\xe2\x84\xa0 account. \xe2\x80\xa2 Free SMS texting is available for US users only. *** FINE PRINT *** To cover the cost of development and providing the service Talkatone app displays banner ads.For calls initiated through main dialer and completed by Talkatone app, a pre-roll ad may be shown once in a while.Upon first login to your Google account you will receive welcome email with activation/setup instruction for calling and/or texting and initial calling activation needs to be completed on your computer.Facebook\xe2\x84\xa0 graph and chat are provided by Facebook Platform. Talkatone, Inc is NOT affiliated with Facebook. Google Talk\xe2\x84\xa0 and Google Voice\xe2\x84\xa0 services are provided by Google, Inc. Talkatone, Inc is NOT affiliated with Google, Inc. Google Voice\xe2\x84\xa0 is a call enhancement service which may not route emergency (911) calls. Please lookup non-911 number for emergency services in your area and add it to your contacts to initiate calls in case of emergency.Google Voice\xe2\x84\xa0 free calling is available for US and Canada users only.For International calls (outside of US and Canada), please review Google Voice\xe2\x84\xa0 calling rates.Free SMS texting with Google Voice\xe2\x84\xa0 is available for US users only.Google Voice\xe2\x84\xa0 does not support international SMS.*** WEB PRESENCE *** http://www.talkatone.com/ http://facebook.com/talkatone http://twitter.com/talkatoneRecent changes:\xe2\x80\xa2 Option to rotate call screen\xe2\x80\xa2 Fix deletion of texting history\xe2\x80\xa2 Fix crash while searching contacts on tablets."
p4
tp5
tp6
.