((S'Title'
p0
S'Talking Tom & Ben News Free '
p1
tp2
(S'Description:'
p3
S'Talking Tom & Ben have become famous TV news personalities! Talk to them and they will repeat what you say in turns. Create & record funny conversations between them.PLEASE NOTE: When running the app for the first time you will be required to download additional 4-15 MB to get the best graphics quality for your device.You can also customize the app by uploading your personal videos! Just press the TV button in the app to record a video with the camera or choose one of your existing videos from your Photos gallery.  Once your personal video is in the app, make Tom & Ben comment on the video. And of course you can record the conversation and send the video to all of your friends to see.You can express your creativity with Talking Tom & Ben or ... you can just poke or swipe the screen and watch them tease each other in hilarious ways.\xe2\x98\x85\xe2\x98\x85\xe2\x98\x85 HOW TO PLAY \xe2\x98\x85\xe2\x98\x85\xe2\x98\x85\xe2\x9c\x94 Talk to Tom & Ben and they will repeat in turns.\xe2\x9c\x94 Poke Tom & Ben to make them fall of their chairs.\xe2\x9c\x94 Swipe Tom & Ben to make them swivel around in their chairs.\xe2\x9c\x94 Press the dog paw button and Ben will annoy Tom with a boxing glove gun or a toy dart gun.\xe2\x9c\x94 Press the cat paw button and Tom will annoy Ben with a water pistol, air horn or a toy blow gun. You have to upgrade the app to get these animations.\xe2\x9c\x94 Press the crossed swords button to make Tom & Ben wrestle.\xe2\x9c\x94 Press the TV button to customize the videos that are being played on the TV. Record the videos yourself with the camera or choose one of your existing videos in your Photos gallery.\xe2\x9c\x94 Record videos and share them on YouTube, Facebook or send them by email or MMS.\xe2\x98\x85\xe2\x98\x85\xe2\x98\x85 IMPORTANT \xe2\x98\x85\xe2\x98\x85\xe2\x98\x85\xe2\x9c\x94 If you want to see all the animations, you have to buy the full version or complete an offer.\xe2\x9c\x94 If you want to remove banner ads from the app, you have to buy the full version.\xe2\x98\x85\xe2\x98\x85\xe2\x98\x85 EXTRA FEATURE IN PAID APP \xe2\x98\x85\xe2\x98\x85\xe2\x98\x85\xe2\x9c\x94 Switch Child Friendly Mode ON in the settings and remove all the places your toddler can get lost in (video recording, info screen etc.).Recent changes:1.0.2: Removed the camera autofocus requirement so more devices can get the app and various other bug fixes'
p4
tp5
tp6
.