((S'Title'
p0
S'Talking 3 Friends Cats & Bunny '
p1
tp2
(S'Description:'
p3
S'Talk to the 3 Friends Cats & Bunny. They answer with her funny voices and react to what you say or your touch. With 4 exciting inside games with many levels to play! Spend some time with these three little friends and their great play activities.\xe2\x98\x85\xe2\x98\x85\xe2\x98\x85 Features: \xe2\x98\x85\xe2\x98\x85\xe2\x98\x85\xe2\x9c\x94 High quality 3D graphics\xe2\x9c\x94 Voice interaction/animations\xe2\x9c\x94 Exciting touch game with 20 levels inside. Help our friends in catching some of the spinning objects. Do not touch the red objects! \xe2\x9c\x94 Great numbers game - check now the IQ and your brains memory\xe2\x9c\x94 1to60 game incl. 1 to 60, A to Z, 2 4 6\xe2\x80\xa6, 1 3 5 \xe2\x80\xa6, hex, roman numerals, periodic table, octal, etc.\xe2\x9c\x94 House game. Try to pop as quickly as possible on the cat and avoid touching all the other figures appearing on the screen, such as a lion, a child, an alien, an ogre etc. Check your high score!\xe2\x9c\x94 Cat, dog, baby, donkey and bunny animations\xe2\x9c\x94 Special sound effectsExtra Content:\xe2\x98\x85 Comics & Cartoons: We have comics involving different subjects as for example: holidays, accidents, family, fish, bears and many more.\xe2\x98\x85 Jokes Collection: Funny jokes divided in different categories. You will find funny jokes about: weather, jobs, man and woman, teachers, military, etc.\xe2\x98\x85 General knowledge: Do you know all the things about history, machines, geology, geography, biology, environment, science etc.?\xe2\x98\x85 Photo Fun Functionality: Create funny and fake images/pictures and send per mail, share pictures with Whatsapp, Twitter, Skype, another Messenger Tool or upload them to Facebook, Flickr, Dropbox etc. Upload your pics and turn yourself or your friend into a penguin, a dancing smiley, a sweet baby, a donkey, a giraffe, an ostrich, a mouse, etc.\xe2\x98\x85 Great and wonderful images out of the space. You will see the space shuttle, the moon, burning rockets, turning satellites, astronauts on a spacewalk, the first men walking on the moon, and many more...\xe2\x98\x85 Online shop with toys, electronic gadgets, stylish fashion, etc.\xe2\x98\x85 Video Trailers: Video section with different trailers of hot apps.\xe2\x98\x85 StickersGive your pictures a personal touch. Select either a photo from your gallery or an image which is already faked. Take the selected pic and start personalizing by choosing between numerous stickers. You will be spoiled for choice in selecting the coolest sticker. It contains stickers with various subjects like, hats, wigs (hairstyles), skulls, sunglasses, mouth expressions like kisses, scary objects with blood, etc. Let your pictures communicate something or create some comics by writing some fun stuff into bubbles.\xe2\x98\x85 Kids paint: Super entertaining tool to try and draw a picture with your fingertip. There are also a lot of predefined cartoon pictures that can be colored such as a mighty tiger, a panda bear, a long snake, a rabbit, a smart fox, cars, tracks, a space shuttle, fast rockets and many more. Discover the artist in you!\xe2\x98\x85 Pairs: Find the same looking images on the board and train your memory with this cool match-2 game. Enjoy hours of fun and laughter with this funny app! It is especially fun for children of all ages.This is a free app - enjoy it!Recent changes:- New game added (pairs/match-2)- Performance improvement- Faster loading- New images added to the photo functionality- Better supporting for lower devices'
p4
tp5
tp6
.