((S'Title'
p0
S'Talking Angela '
p1
tp2
(S'Description:'
p3
S'Join Talking Angela in Paris, the city of love and style! Wow her and treat her like a princess because let\xe2\x80\x99s face it, she IS a princess. Chat with her, buy her presents and choose her wardrobe. You can even smile at her or show her your tongue (but that\xe2\x80\x99s no way to treat a lady)! She is not alone in the city though, you may see a familiar face pop up here and there but in a completely different role! \xe2\x98\x85\xe2\x98\x85\xe2\x98\x85 HOW TO PLAY \xe2\x98\x85\xe2\x98\x85\xe2\x98\x85 \xe2\x9c\x94 Pet Angela and she will be happy, poke her and she will get angry. \xe2\x9c\x94 Use the "Gift" button to buy her drinks, accessories, clothes, makeup etc. \xe2\x9c\x94 Use the "Heart" button and make Angela read you a fortune cookie. \xe2\x9c\x94 Use the "Coat hanger" button to access Angela\'s wardrobe and change her appearance. \xe2\x9c\x94 Use the "Face" button to open the front camera and communicate with Angela through face gestures (nod or shake your head, smile, yawn or show your tongue). \xe2\x98\x85\xe2\x98\x85\xe2\x98\x85 IMPORTANT \xe2\x98\x85\xe2\x98\x85\xe2\x98\x85 \xe2\x9c\x94 The "Face" button doesn\'t exist on low-end devices (single core CPU) and on devices without a front facing camera.\xe2\x98\x85\xe2\x98\x85\xe2\x98\x85 HOW TO CHAT \xe2\x98\x85\xe2\x98\x85\xe2\x98\x85 \xe2\x9c\x94 You can chat with Angela only in ENGLISH. \xe2\x9c\x94 Press into the text field to start a conversation. \xe2\x9c\x94 Use the keyboard to type OR use dictation. \xe2\x9c\x94 Angela will answer with text and voice in English. \xe2\x9c\x94 You can talk to Angela about a variety of subjects: love, dating, friends, school, fashion, celebrities, movies, music, TV, books, hobbies, food, travel, pets etc. \xe2\x9c\x94 Use commands like: sing to me, tell me a joke, buy drink. Enjoy hours of fun with Angela! LEGAL NOTICE: We are collecting anonymized data log files containing details on the usage of the app. More details: http://outfit7.com/privacy/Recent changes:1.0.3: We ran Talking Angela\'s app through the crash test course and fixed various crashes. No kittens were hurt in the process.'
p4
tp5
tp6
.