((S'Title'
p0
S'Taptu - DJ your News '
p1
tp2
(S'Description:'
p3
S'After Google Reader shuts down on 1 July 2013, you will still be able to read all of your feeds on Taptu. Taptu does not rely on Google Reader to allow you to access your favorite feeds.Taptu is a social news reader that puts all your favorite stuff in one app.Add your favorite web sites, blogs, and social networks like Facebook orTwitter, and see them transformed into gorgeous visual streams.Create highly personalised streams in the StreamStudio: Merge several news feeds into one stream, and rename and color-codethat stream. Turn on Taptu Magic to let Taptu learn what you like and tailor yourstreams to your interests. Create customized keyword searches to keep you up to date on aspecific topic.Read and reply to what your friends write on Facebook and Twitter.Save articles to read them later using Instapaper, Pocket or Taptu\'s bookmarks.Sync your streams across devices, platforms, and your browser at taptu.com. ReviewsTechCrunch: "The design itself is sleek and clean, allowing you to separate each stream...If you are a power reader or a news junkie, Taptu\'s app is the way to go. Not only does it allow you to access a large number of news sources (thousands), in an easy to read interface, but it allows you to personalize and customize your feeds"Wired.com: "Taptu\'s secret sauce lets you mash up mixed streams...I didn\'t give up on it after some initial enthusiasm. I kept going back not only to read up on things but also to try things out that occurred to me randomly and to tinker with feeds"Widgets\xe2\x80\xa2 A number of highly customizable widgets including scrollable Lists and Stacks, with custom update times and multiple backgrounds.Find and add streams\xe2\x80\xa2 Add streams: Choose from a huge variety of featured topical streams in our StreamStore. It\'s all free.\xe2\x80\xa2 Find even more content using the search box and Bing RSS Search\xe2\x80\xa2 Import RSS feeds from Google Reader StreamStudio\xe2\x80\xa2 DJ your News: Mix & merge streams and color-code them to your liking. Add and remove sources from Taptu\'s topical streams or create custom Search Streams by filtering your streams with a keyword.Taptu Magic\xe2\x80\xa2 Make your streams more interesting: Let Taptu learn what you\'re into from your reading habits so we can make your streams more relevant to you.\xe2\x80\xa2 Suppose you\'re into football but not tennis and you\'ve added Taptu\'s sports stream. Taptu Magic will learn what articles you read and show you more football and less tennis.\xe2\x80\xa2 You can still add and remove sources from your streams, and you can always switch off Taptu Magic, so you\'re in control.Social networks\xe2\x80\xa2 Read your favorite social streams - Facebook, Twitter, LinkedIn.\xe2\x80\xa2 Share: Post articles and share streams to your friends.\xe2\x80\xa2 Post to, like, comment or re-tweet from your Facebook, Twitter, and LinkedIn streamsFeedbackFound a bug, got stuck, have a suggestion? Drop us an email at mytaptu-androidmarket@taptu.comFollow us on:Facebook - http://www.facebook.com/MyTaptuTwitter - http://twitter.com/taptuWeb - https://www.taptu.comRecent changes:- bug fixes- improved support for Sina Weibo'
p4
tp5
tp6
.