((S'Title'
p0
S'TecnoNutri '
p1
tp2
(S'Description:'
p3
S'TecnoNutri \xc3\xa9 um assistente pessoal de dieta para o seu Android, a tecnologia a servi\xc3\xa7o da nutri\xc3\xa7\xc3\xa3o.Defina sua dieta de maneira pr\xc3\xa1tica e intuitiva e deixe que o TecnoNutri te avise quando e o que comer na medida certa da sua sa\xc3\xbade.Monte o seu perfil e descubra seu \xc3\x8dndice de Massa Corporal e  quantas calorias deve consumir diariamente para se manter dentro da dieta atrav\xc3\xa9s de f\xc3\xb3rmulas bastante atuais.Registre o seu consumo di\xc3\xa1rio e acompanhe ao longo do dia suas metas de cada nutriente.Consulte, em poucos segundos, os valores nutricionais de 2000 alimentos.Acompanhe diariamente seu progresso registrando novas pesagens e analisando o gr\xc3\xa1fico de desempenho para ficar na medida certa.Aten\xc3\xa7\xc3\xa3o: o TecnoNutri n\xc3\xa3o substitui o profissional nutricionista, muito pelo contr\xc3\xa1rio, sua proposta \xc3\xa9 ser uma ferramenta de apoio para o profissional da nutri\xc3\xa7\xc3\xa3o!Destaques:- Planejamento de Refei\xc3\xa7\xc3\xb5es com alarmes.- Proje\xc3\xa7\xc3\xa3o da dieta na pir\xc3\xa2mide alimentar para indicar qualidade da dieta.- Perfil com IMC (\xc3\x8dndice de Massa Coporal).- C\xc3\xa1lculo da EER (Estimativa de recomenda\xc3\xa7\xc3\xa3o energ\xc3\xa9tica) usando as f\xc3\xb3rmulas mais atuais da organiza\xc3\xa7\xc3\xa3o mundial de sa\xc3\xbade.- Meta de ganho ou perda de peso (considerando 7.700 kcal por quilograma de tecido adiposo).- Acompanhamento de peso com gr\xc3\xa1fico de desempenho.- Di\xc3\xa1rio de consumo com listagem de 2000 alimentos presentes nas tabelas do IBGE.- Acompanhamento das metas de nutrientes ao longo do dia enquanto os alimentos s\xc3\xa3o registrados.- Recomenda\xc3\xa7\xc3\xb5es nutricionais baseadas no Guia alimentar para a popula\xc3\xa7\xc3\xa3o brasileira do Minist\xc3\xa9rio da Sa\xc3\xbade e nas DRIs da organiza\xc3\xa7\xc3\xa3o mundial de sa\xc3\xbade.Participe de nossa comunidade no facebook curtindo nossa p\xc3\xa1gina e receba dicas e informa\xc3\xa7\xc3\xb5es ou nos d\xc3\xaa suas sugest\xc3\xb5es.http://facebook.com/tecnonutriRecent changes:Vers\xc3\xa3o 2.0.4- Corre\xc3\xa7\xc3\xa3o da quantidade de alimentos at\xc3\xa9 1000- Tela inicial sem a barra de rolagem.- Corre\xc3\xa7\xc3\xa3o de alimentos que n\xc3\xa3o tinham unidade de medida (ex. Gergelim)- Alterado o nome do toque de alerta para Tecnonutri, isso corrige o problema de alguns usu\xc3\xa1rios com o alerta na nova vers\xc3\xa3o.Deixe seu feedback em http://tecnonutri.uservoice.com'
p4
tp5
tp6
.