((S'Title'
p0
S'Textfree: Text Free, Free SMS '
p1
tp2
(S'Description:'
p3
S'Textfree is the USA\xe2\x80\x99s #1 free texting app!FREE UNLIMITED TEXT (SMS) AND PICTURE MESSAGING (MMS)!We make text and picture messaging free. Free this year, next year--free any year, for all your SMS messages to over 35 countries.  Your friends don\xe2\x80\x99t need Textfree to receive--they don\xe2\x80\x99t even need to have a smartphone.  No carrier contract or texting plan required.  Text free with Textfree!NO HIDDEN COSTS--EVERSome \xe2\x80\x9cfree\xe2\x80\x9d apps charge you after a while. Not us. Nope, never.WANT CALLING?  TRY PINGER!\xe2\x80\xa2 Same texting features, now with calling\xe2\x80\xa2 Even faster, more powerful than Textfree\xe2\x80\xa2 Download the new app called Pinger, it\xe2\x80\x99s FREE!BETTER THAN THOSE MESSENGER APPSWith Textfree you get your own real phone number that you can use to SMS any number, even if they don\xe2\x80\x99t have Textfree and even if they don\xe2\x80\x99t have a smartphone!  Send real SMS to over 35 countries, free!GREAT WHEN YOU\xe2\x80\x99RE TRAVELING ABROADDownload Textfree and send free texts from anywhere in the world as long as you have a data connection. Find free WiFi at your hotel, a restaurant, even on a train.  Why pay for expensive roaming charges when you can SMS free!TEXT TO OVER 35 COUNTRIESFor a list of countries you can text to, visit: http://pinger.zendesk.com/entries/21778606-international-texting .OUTSIDE THE US?For download instructions, visit: http://pinger.zendesk.com/entries/22202356-download-textfree-android-outside-the-us .PACKED WITH ADDITIONAL FEATURES \xe2\x80\xa2 Get a free second line for your phone\xe2\x80\xa2 Send unlimited free SMS to more than 35 countries\xe2\x80\xa2 Facebook Chat keeps you in touch with friends who don\xe2\x80\x99t text\xe2\x80\xa2 Send text via your regular number or send free text with your Pinger number.\xe2\x80\xa2 Get notifications when you receive a text while outside of the app. \xe2\x80\xa2 Your free texts are stored in the cloud when offline and delivered to you when you are back. Never miss a text!OTHER IMPORTANT INFO \xe2\x80\xa2 Your friends not on Textfree pay regular charges for texts and pics--nothing extra\xe2\x80\xa2 Pic msgs work with AT&T, Boost, Nextel, Sprint, T-mobile, Verizon and Virgin\xe2\x80\xa2 Picture messages come from your @textfree.us username--have your friends send pics to that address \xe2\x80\xa2 Textfree is ad-supported, so you will see ads from time to time\xe2\x80\xa2 Tablet support coming soon \xe2\x80\xa2 Requires OS 2.1+\xe2\x80\xa2 Read our terms of service:http://www.pinger.com/content/textfree/eula/android.htmlTEXT FROM THE WEB\xe2\x80\xa2 pinger.com/tfwCONNECT WITH US \xe2\x80\xa2 facebook.com/pinger\xe2\x80\xa2 twitter.com/pingerRecent changes:Bug fixes.'
p4
tp5
tp6
.