((S'Title'
p0
S'Titanium Backup \xc3\xa2\xcb\x9c\xe2\x80\xa6 root '
p1
tp2
(S'Description:'
p3
S'\xe2\x98\x86Needs ROOT, Android 1.5-4.2+ (ARM,x86,MIPS)\xe2\x98\x86Over 9.4 million users, 30+ languages.\xe2\x98\x86PRO Key is available on Play Store!\xe2\x98\x86Voted #1 TOP ROOT APP on Twitter.\xe2\x98\x86Problem? See titaniumtrack.com/kb\xe2\x98\x86Scroll down for more info & DEMO VIDEOS ;-)\xe2\x98\x86 \xe2\x98\x86 \xe2\x98\x86Titanium Backup is the most powerful backup tool on Android, and then some.You can backup, restore, freeze (with Pro) your apps + data + Market links. This includes all protected apps & system apps, plus external data on your SD card. You can do 0-click batch & scheduled backups. Backups will operate without closing any apps (with Pro). You can move any app (or app data) to/from the SD card. You can browse any app\'s data and even query the Market to see detailed information about the app.Also see the paid PRO key which adds EVEN MORE awesome features such as:[\xe2\x9c\x94] 0-click batch restores[\xe2\x9c\x94] Keep multiple backups per app[\xe2\x9c\x94] Backup/restore SMS,MMS,calls,bookmarks,Wi-Fi AP as XML[\xe2\x9c\x94] Multi-user app data[\xe2\x9c\x94] Apps freezer[\xe2\x9c\x94] Sync to/from Dropbox (manual/scheduled)[\xe2\x9c\x94] Sync to/from Box (manual/scheduled)[\xe2\x9c\x94] Sync to/from Google Drive (manual/scheduled)[\xe2\x9c\x94] TB Web Server: download/upload your backups as a single ZIP on your computer[\xe2\x9c\x94] Convert user apps  system apps[\xe2\x9c\x94] Integrate system app updates into ROM[\xe2\x9c\x94] Encryption[\xe2\x9c\x94] Market Doctor (relink apps to Market)[\xe2\x9c\x94] "Destroy all Market links" feature[\xe2\x9c\x94] Hypershell speed[\xe2\x9c\x94] Backup apps without closing them![\xe2\x9c\x94] Create your own update.zip containing apps+data![\xe2\x9c\x94] Restore individual apps+data from non-root ADB backups![\xe2\x9c\x94] Restore individual apps+data from CWM backups![\xe2\x9c\x94] Restore individual apps+data from TWRP backups![\xe2\x9c\x94] Market "auto updating" manager[\xe2\x9c\x94] Dalvik cache cleaner[\xe2\x9c\x94] Integrate Dalvik cache system elements into ROM[\xe2\x9c\x94] Unlimited schedules[\xe2\x9c\x94] Load/Save a Filter and use it in Widgets/Schedules[\xe2\x9c\x94] Change the device\'s Android ID, restore it from a backup or after a factory reset[\xe2\x9c\x94] Protect backup against deletion[\xe2\x9c\x94] Send backup (to e-mail/cloud) and import it in 1 click[\xe2\x9c\x94] Backup\xe2\x86\x92Verify\xe2\x86\x92Un-install an app in one shot[\xe2\x9c\x94] Freeze/defrost/launch apps in a single click[\xe2\x9c\x94] CSV export any app DB (e-mail or Google Docs)[\xe2\x9c\x94] Convert app data to/from fast WAL format[\xe2\x9c\x94] WAY MORE!Check out this in-depth review of TB PRO:http://youtube.com/watch?v=vuvDTS9RDrM&hd=1And check out the new TB PRO demo video:http://youtube.com/watch?v=YU33zabluSY&hd=1More info on permissions:\xe2\x80\xa2 "Internet" is used to access Market,Dropbox,ChangeLog.\xe2\x80\xa2 "Accounts" is used to access Market.Some advice:\xe2\x80\xa2 We recommend to avoid "modified" TB versions because they can cause various problems down the road.Recent changes:\xe2\x80\xa2 Added ACCESS_SUPERUSER permission, originally proposed by Koush and considered as good practice by several developers.\xe2\x80\xa2 [PRO] Fixed inability to restore apps/data from some ADB backups. Big thanks to Derek Teay (viperboy) for trusting us with his private data while testing!\xe2\x80\xa2 Updated translations.'
p4
tp5
tp6
.