((S'Title'
p0
S"Today's Free App "
p1
tp2
(S'Description:'
p3
S"Today's Free App provides one free app everyday, JUST FOR YOU! Get the best free app of the day service on your Android, FINALLY!We find amazing, beautiful apps and negotiate a special deal to make the apps free or give you special bonuses!Bored with same old apps? Find the next big hit with Today's Free App! We help you discover great new apps through:1. Exclusive Deal of the Day2. Staff Choices3. Top New HitsToday's Free App provides apps in every category, from games to music to cooking to driving, so you will always have something new to fall in love with! Discover the next Angry Birds, WhatsApp, Pandora, or Subway Surfers before all of your friends!Find your friends on Facebook or let them know on Twitter about the amazing new apps you've found through Today's Free App!Enjoy the best free app of the day service and download Today's Free App today!Recent changes:We're finding amazing new FREE apps to show you the best one every day!"
p4
tp5
tp6
.