((S'Title'
p0
S'Top Music Videos '
p1
tp2
(S'Description:'
p3
S'Thanks for your enormous support, the app crossed 500K installs.****New********- 1970\'s top 100 songs added- 1980\'s top 100 songs added- Move app to SD cardWATCH TOP MUSIC VIDEOS ON YOUR MOBILE FOR FREE, presented in a super cool coverflow display for your selection! Discover New Music through Billboard Charts, Itunes Top 100 of 33 countries, Top Hit songs of Top Artists, Top 100 songs of every year since 1990, Top Eurovision final songs since 2000.Now you can also play the songs in Spotify, Rdio or Last.fmDOWNLOAD NOW, I\'m sure you\'ll LOVE IT !!A Zillion thanks, your encouragement is making us roll out more and more new features for FREEPlease upgrade to the latest version of the app (V5.2) to enjoy all the featuresAgain thanks for your tremendous support, within weeks of the App being Live (150K + downloads, 425+ 5* ratings)Listed as one of the TOP 20 FREE APPS in Music and Audio Category in Play StoreListed as one of the 60 TOP NEW FREE APPS in Play StoreListed as one of the HOT 10 Apps in AppBrain (12-Jul-2012)You can now watch the Videos songs of your favourite Eurovision finals since 2000.You can now track and watch videos of Itunes top 100 songs of 32 countries (Australia, Austria, Belgium, Brazil, Canada, Cyprus, Czech Republic, Denmark, Finland, France, Germany, Greece, Ireland, Italy, Japan, Latvia, Lithuania, Luxembourg, Malta, Mexico, Netherlands, New Zealand, Norway,  Portugal, Romania, Slovakia, Slovenia, Spain, Sweden, Switzerland, UK and USA using your favourite app "TOP MUSIC VIDEOS". Features-1. Billboard Music charts2. Itunes top 100 songs of 33 countries3. More than 2000+ Top Songs by 40+ TOP artists including Justin Bieber, Rihanna, Eminem, Adele, Michael Jackson, Bon Jovi, Katy Perry, Lady Gaga, Akon and many more.4. Top 100 songs of every year since 19905. Video songs of Eurovision finals since 2000.6. Search for more Music from YouTube7. Bookmark your favorite Music videos.8. Stunningly presented coverflow displays for super cool experience.9. You can also play in Spotify, Rdio or Last fmMore features to be added...Watch out for updatesDISCLAIMER: The content provided in this app is hosted by YouTube and is available in public domain. We do not upload any videos to YouTube. This app is just an organised way to browse and view the discovered YouTube Music Videos.App requires 3G/WiFi connection to Watch Music Videos.To play in Spotify, Rdio or Last fm, you need to register to those services as per their guidelines All the images used in this app are under creative commons license and sourced from public sources.The attribution for the images are provided in the credits page of the app.If there are any concerns with any of the images used in the app, please email us and we will take necessary action immediately.IMPORTANT: 3G data tariff will apply as the video content is streamed from YouTube.Recent changes:Thanks for your enormous support, the app crossed 500K installs.****New********- 1970\'s top 100 songs added- 1980\'s top 100 songs added- Move app to SD cardNow you can also play the songs in Spotify, Rdio or Last.fm'
p4
tp5
tp6
.