((S'Title'
p0
S'TorqueScan (Torque OBD Plugin) '
p1
tp2
(S'Description:'
p3
S'This is a plugin for the Torque pro OBD2 application that shows all the data that Torque has access to as well as some other features that some may find useful for OBD debugging.* Quick and easy display of available ECU sensors* OBD PID scanner to quickly map and locate extended PIDs* Simple Telnet server that allows direct connection to the adapter to allow far easier debugging (aimed at developers)The main application - Torque - allows you to connect your android device to your cars engine management, and read various sensors, even retrieve fault codes (DTC) and clear them once fixed. It can post to Twitter, log data, supports themes, and so much more!If you are interested in developing your own plugin then you can find an example app here(which uses AIDL):    http://ian-hawkins.com/torquescan.zipJoin the Torque forums (click the developer link below) for more information or to ask questions!Note: This plugin needs the full version of TorqueRecent changes:* AIDL api update to support multiple sensors on the same PID'
p4
tp5
tp6
.