((S'Title'
p0
S'\xc3\x82\xc2\xb5Torrent\xc3\x82\xc2\xae  Beta - Torrent App '
p1
tp2
(S'Description:'
p3
S'Find torrents and download them directly to your phone or tablet, with the official \xc2\xb5Torrent\xc2\xae  App (uTorrent App) for Android (Beta).  Brought to you by the team that invented the BitTorrent protocol, this handy Android torrent app lets you torrent media wherever you are.Discover torrents and download them to your smartphone or tablet, subscribe to RSS feeds, play content, and more. The first generation of this powerful new Android torrent download app is made to be simple, fast, and free. That means no speed limits, and no size limits on mobile downloads.To get the best performance and avoid running up your data charges on mobile downloads, we recommend taking advantage of Wifi-only mode whenever possible.Features:Simple content search and discoveryFor Android phones and tabletsFast, easy and free mobile downloadsNo speed or size limits on mobile downloadsWifi-only mode now availableDownload torrentsPlay mediaManage torrent downloadsAccess exclusive content from featured artistsSubscribe to RSS feedsMake your Android devices so much more funLooking for answers to frequently asked questions (FAQ) or a guide to get started? Visit this page: http://bit.ly/ZoImSBSupport and feedback? utandroid@utorrent.com, or visit the uTorrent mobile forum at http://bit.ly/11I26UTLike us on Facebook: http://www.facebook.com/utorrentFollow us on Twitter: http://twitter.com/utorrentBy clicking "Install," I agree to the End User License Agreement terms at http://www.bittorrent.com/legal/eulaHere\xe2\x80\x99s what the press are saying:\xe2\x98\x85  TheNextWeb \xe2\x80\x9c...Android users have it pretty good.\xe2\x80\x9d \xe2\x98\x85  Android Community \xe2\x80\x9cThis [wifi-only feature] is definitely a great feature for users of the app, and let\xe2\x80\x99s be honest, the app was pretty awesome as it was.\xe2\x80\x9d User reviews:\xe2\x98\x85  \xe2\x80\x9cFinally an original torrent engine for Android. Great job guys great app too.\xe2\x80\x9d\xe2\x98\x85  \xe2\x80\x9cWell done application! Works like its supposed to. Thank you for a great experience!\xe2\x80\x9d \xe2\x98\x85  \xe2\x80\x9cAbsolute awesomeness..\xe2\x80\x9d\xe2\x98\x85  \xe2\x80\x9cUpdated and my torrents are downloading ridiculously fast. Great so far. :D\xe2\x80\x9d\xe2\x98\x85  \xe2\x80\x9cThe best day of my LIFE!\xe2\x80\x9d Thanks, Mom ;)Brought to you by the uTorrent Mobile team--Light. Limitless.  \xc2\xb5Torrent\xc2\xae  for Android.Because this is an early beta torrent downloader app, your feedback is very important to us. Please email us directly if you have any problems or requests. Thank you in advance.Looking for a remote control for your uTorrent client on your home computer? Check out uTorrent Remote for Android: http://bit.ly/TZrpvgKeywords: mobile downloads, android torrent, torrent android, torrent for android, mobile torrent, bittorrent, mTorrent, tTorrent, aTorrent, utorrent, torrent movies rights free, public domain mp4 mobile movies, m torrent, t torrent, u torrent, bit torrent, a torrent, adownloader, a  downloader, bitorrent, utorent, torent, \xce\xbcTorrent, \xd0\xbf\xd0\xbe\xd1\x82\xd0\xbe\xd0\xba, \xd0\xbf\xd0\xb5\xd1\x80\xd0\xb5\xd0\xbd, \xd1\x81\xd0\xba\xd0\xb0\xd1\x87\xd0\xb0\xd1\x82\xd1\x8c \xd1\x82\xd0\xbe\xd1\x80\xd1\x80\xd0\xb5\xd0\xbd\xd1\x82, download music clearbits, download torrents, download mobile movies, find torrents, microtorrent, micro torrent, utorrent mobile, youtorrent, you torrent, limitless torrent, uptorrent, up torrentRecent changes:v1.15:1. Fixed crashes on Android 2.1 and 2.2v1.14:1. Fixed top bugs/crashesv1.131. WiFi-only option - provides ability to opt to download while on WiFi networks only2. Fixed stability issues'
p4
tp5
tp6
.