((S'Title'
p0
S'Toshl Finance Budget & Expense '
p1
tp2
(S'Description:'
p3
S'\xe2\x98\x85\xe2\x98\x85\xe2\x98\x85\xe2\x98\x85\xe2\x98\x85 "Of all the apps for monitoring spending, one of the hardest to beat is Toshl Finance.\xe2\x80\x9d - New York Times\xe2\x98\x85\xe2\x98\x85\xe2\x98\x85\xe2\x98\x85\xe2\x98\x85 "Now I know where my money is disappearing to, thanks to Toshl...\xe2\x80\x9d \xe2\x80\x94 BBC\xe2\x98\x85\xe2\x98\x85\xe2\x98\x85\xe2\x98\x85\xe2\x98\x85 \xe2\x80\x9c Toshl is simple to use and organizes expenses in a streamlined manner. If you use multiple smartphones running on a variety of platforms, you will really love Toshl. \xe2\x80\x9d \xe2\x80\x94 The Next Web\xe2\x98\x85\xe2\x98\x85\xe2\x98\x85\xe2\x98\x85\xe2\x98\x85 Winner of The Europa award 2013 for Best Commerce, Finance or Payments StartupToshl Finance is a personal finance manager made fun. Find out where your money is going, keep on top of bills and spending, set up budgets and live easy with a financial peace of mind.It\'s intuitive, safe, private, designed with character and attention to detail. Toshl is like your personal financial advisor that\'s with you all the time. Except it\'s less awkward in bed. ;)\xe2\x98\x85 Expense tracker- track expenses and incomes with ease- incredibly quick & intuitive expense entry- set up repeating expenses and incomes to organize your bills- export your expense reports into PDF, Excel, Google Docs and CSV  \xe2\x98\x85 Budget keeper- easy and versatile budgeting- track spending and make budgets for specific tags- compare the rate of your spending with the time of the month- one-time budget, daily budget, weekly budget, bi-weekly budget, monthly budget, yearly budget- move remaining funds to the next budget- learn from your budget history\xe2\x98\x85 Bill organizer- reminder for your bills as they become due- plan family bills for upcoming months and know how much your family can spend- note when you need to repay your loans\xe2\x98\x85 Travel companion and currency converter- works with any currency- track your spending and budget your travel- convert foreign currencies- daily updated exchange rates for top 160 currencies- enter custom exchange rates\xe2\x98\x85 Finances on multiple devices- automatically syncs with multiple devices and toshl.com- access your personal finances from anywhere, just log in- track family finances with other family members in the same account\xe2\x98\x85 More graphs & backup on toshl.com- manage your finances on the big screen - visualize your finances with infographics- your data is automatically backed up and saved\xe2\x98\x85 Keep it safe and private - use a passcode to lock the app\xe2\x98\x85 Toshl ProThe Toshl Finance app is free to use, but there are more features and capabilities available with Toshl Pro that can be purchased within the app. Toshl Pro - $1.99 monthly subscriptionToshl Pro - $19.99 yearly subscriptionYou get:- multiple budgets- multiple monthly incomes & repeating incomes- more export options (PDF, Excel, Google Docs & monthly email reports)- more cool graphs on the web- search on the webNot to mention all the positive karma points you get for supporting the development of Toshl Finance. ;)\xe2\x98\x85 Ahead of Mint, Pageonce, EasyMoney, Expense Manager\xe2\x80\xa8Use Toshl, track your money spending and save money with ease. Compare it with other finance managers and budget apps like Expense Manager, My Budget Book, EasyMoney, Mint, Pageonce, Mint.com, Daily Money, Spendroid, You Need a Budget, Money Manager and enjoy the ease of use and security in Toshl Finance Expense Tracker.Why is Toshl Finance better than Mint, Expense Manager, Pageonce or EasyMoney?\xe2\x80\xa8- Mint.com only works in the US and Canada, Lemon.com, Pageonce only in the US,\xe2\x80\xa8- less cluttered, prettier and easier to understand than Mint.com, EasyMoney or Expense Manager\xe2\x80\xa8- Mint.com is only available on Android and iOS, EasyMoney and Expense Tracker on Android, but Toshl Finance is available on Android, Windows Phone, iOS, MeeGo, Symbian with cross-platform sync\xe2\x80\xa8- friendly Toshl Monsters to make finance fun and quirky!Recent changes:- updated app\'s main user interface with improved navigation, performance and added search- added overview of expenses included in a budget- improved date picker- improved subscription purchase stability- fixed app freeze when changing currency- updated reminder notification (RECEIVE_BOOT_COMPLETED permission is required to restore reminder after device restart)- other bug fixes- re-add the 1x1 widget/shortcut to improve its performance- 1.7.6 - 1.7.8  are stability updates to 1.7.5'
p4
tp5
tp6
.