((S'Title'
p0
S'TouchRetouch Free '
p1
tp2
(S'Description:'
p3
S'TouchRetouch Free is an award-winning photo editor that allows you to remove unwanted content or objects from any photo, using just your finger and your phone. Mark the items you want taken out of the snapshot and hit \xe2\x80\x98Go\xe2\x80\x99. That\xe2\x80\x99s all there is to it. Photo editing has never been so quick, easy and convenient.You recently got married on a beautiful Caribbean beach. Everything was so perfect. Luckily, you have a lot of memorable snapshots of the crystalline water and white sand backdrop of the ceremony, you and your new spouse silhouetted in the sunset, your guests under a palm tree, that nude sunbather that somehow got included in a shot taken during the exchanging of vows. Yikes! Before showing your mom those photos, take a minute to remove that accidental guest from an otherwise great picture. Open your TouchRetouch app. Using your finger, select the Brush or Lasso tool to mark what you don\xe2\x80\x99t want in the shot, then hit the \xe2\x80\x98Go\xe2\x80\x99 button. Okay, you\xe2\x80\x99re done and it\xe2\x80\x99s now safe to share your picture-perfect memories with everybody.TouchRetouch Free isn\xe2\x80\x99t just for exotic or wedding photo touch-ups, of course. Use this easy yet ingenious application on any photo, newly snapped on your phone or taken from your gallery. Remove those wires that are in the way of an otherwise wonderful view, take banners off of buildings, get rid of people, eliminate spots and other imperfections. All without distorting the final image.You can even have a little fun with TouchRetouch Free. Take away the bicycle from under your brother and it looks like he\xe2\x80\x99s cycling in mid-air. You can make it look like people are flying, jumping or posed oddly, by removing whatever was supporting them.Do everything mentioned here and more, in mere seconds without any special equipment.Features:* In-app video tutorials* Unlimited Undo/Redo actions* Smart image background recovery techniques* No distortions in final image* Easy to use interface* Finger move hintDownload TouchRetouch Free now and start creating amazing or funny photos. It\xe2\x80\x99s easy, fun and always ready to edit your images in a tap or two - no matter when, no matter where. Enjoy your new snapshots!Recent changes:- Small UI fixes and improvements- Open from Dropbox fixed'
p4
tp5
tp6
.