((S'Title'
p0
S'TrackChecker '
p1
tp2
(S'Description:'
p3
S"TrackChecker is the application aimed to help you to track your parcels delivery status by tracking number. The program supports 250+ postal services over the world. The features include:- Automatic and/or manual checking on several postal services at once. - Has home screen widget.- Supports notifications.- Calculates and highlights days on delivery.- Includes various sorting modes and filters.- Track can be added or marked as delivered by scanning its bar-code (3rd-party bar-code scanning application is required).If a particular service is not in the list below or does not work for you, please send me a email with URL and tracking number to check. I'll do my best to make it work.Desktop version for Windows - http://www.trackchecker.netSupported postal services:- 4px International- Air Canada Cargo- Air21- airBaltic- Airfex- Airfrance Cargo- Aramex- Australia post- Australian air Express- Austria post- BH PO\xc5\xa0TA (Bosnia and Herzegovina)- Bangladesh Post Office- BaoShip E-Commerce- Belarus post- British Airways Cargo- Brokers Worldwide- Bulgarian Posts- CTT Portugal- Cambodia Post- Canada post- China post- Chronopost (France)- Chronopost (Maro\xd1\x81)- City Link- Colissimo- Continental Airlines- Compania Na\xc5\xa3ional\xc4\x83 Po\xc5\x9fta Rom\xc3\xa2n\xc4\x83 (Romania)- Correios BR (Brazil)- Correo Argentino (Argentina)- Correos Bolivia- Correos Chile- Correos de M\xc3\xa9xico- Correos (Spain)- Courex (Singapore)- Crossflight- Cyprus Postal Services- City Express- Deltec- Despatch Bay- Deutsche Post- DHL- DPD- DirectLink (Sweden Post)- DTDC- EC-Firstclass- Eesti Post (Estonia)- Emirates Post (EMS)- Emirates Post (from HK)- Emirates Skycargo- EMS Uzbekistan- Ethiopia Postal Service- Exapaq- ExpressAuto- Fastway Couriers- Fedex- Finn post (Finland)- Flyt Express- FYD Express- GarantPost- GDex- GLS- Haypost (Armenia)- HDNL- Hermes PrivatPaketService- HKR post- Hong Kong Post- Honkong Outward Insured Parcel- Honkong speedpost- Hrvatska po\xc5\xa1ta (Croatia)- I.R. Iran Post Company- i-Parcel- Iceland Post- Iloxx- India Post- Indonesian Post- inTime- Ireland Post- Israel post- Japan- Jordan Post- Kazpost (Kazakhstan)- Kiala- KLM Cargo- Korea- Korean Air Cargo- La Poste (France)- La red postal de Colombia- Latvijas Pasts (Latvia)- Liban Post- LBC Express- Lietuvos pastas (Lithuania)- Lufthansa Cargo- Magyar Posta (Hungary)- MailExpress- Major Express- Makedonska Posta (Macedonia)- Malaysia post- Malta post- Meest USA- Metrowide Courier Express- MRW- New Zeland Post- Nigerian Postal Service- Norway Post- OnTrac.com- Opek- P&T Luxemburg- PTT Turkish Post (Turkey)- Pakistan Post- ParcelForce- PEC- Po\xc5\x9fta Moldovei (Moldova)- Poczta Polska (Poland)- Polar Express- Pony Express- Post Danmark- Post Serbia- Posta Shqiptare (Albania)- Postal Corporation of Kenya- Po\xc5\xa1ta Slovenije (Slovenia)- Po\xc5\xa1ta Crne Gore- Poste italiane (Italy EMS)- Poste Italiane - Paccocelere Internazionale- Posten.se- PostNL- Purolator- Qatar Airlines Cargo- Rosan- Royal Mail- Russian Post- Schenker Privpak- SendFromChina- Sharp Century (China)- Singapore post- Siodemka- SkyTeam Cargo- Slovensk\xc3\xa1 po\xc5\xa1ta- Speedpost Singapore post- Sri Lanka Post- Star Track Express- Streamlite- Swiss post (Switzerland)- TNT- TNT NL- Taiwan post- Thailand post- The South African Post Office- Turkish Cargo- UPS- UPS Mail Innovations- USPS (USA)- Ukr EMS (Ukraine)- Ukraine-Express- UkrPost (Ukrpochta)- United Airlines Cargo- Uzbekistan Post- Xend (Philippines)- Yodel- Bpost (Belgium)- ESpeedPost- \xc4\x8cesk\xc3\xa1 po\xc5\xa1ta (Czech Republic)- \xce\xa4\xce\xb1\xcf\x87\xcf\x85\xce\xbc\xce\xb5\xcf\x84\xce\xb1\xcf\x86\xce\xbf\xcf\x81\xce\xad\xcf\x82 \xce\x95\xce\x9b\xce\xa4\xce\x91 (Greece)- \xd0\x90\xd0\xb2\xd1\x82\xd0\xbe\xd1\x82\xd1\x80\xd0\xb5\xd0\xb9\xd0\xb4\xd0\xb8\xd0\xbd\xd0\xb3- \xd0\x90\xd0\xb7\xd0\xb5\xd1\x80\xd1\x8d\xd0\xba\xd1\x81\xd0\xbf\xd1\x80\xd0\xb5\xd1\x81\xd1\x81\xd0\xbf\xd0\xbe\xd1\x87\xd1\x82- \xd0\x93\xd1\x80\xd1\x83\xd0\xb7\xd0\xbe\xd0\xb2\xd0\xbe\xd0\xb7\xd0\xbe\xd1\x84\xd1\x84- \xd0\x94\xd0\xb5\xd0\xbb\xd0\xbe\xd0\xb2\xd1\x8b\xd0\xb5 \xd0\xbb\xd0\xb8\xd0\xbd\xd0\xb8\xd0\xb8- \xd0\x9a\xd0\xa1\xd0\xad- \xd0\x9d\xd0\xbe\xd0\xb2\xd0\xb0 \xd0\xbf\xd0\xbe\xd1\x88\xd1\x82\xd0\xb0 (Ukraine)- \xd0\xa1\xd0\x9f\xd0\xa1\xd0\xa0 \xd0\xad\xd0\xba\xd1\x81\xd0\xbf\xd1\x80\xd0\xb5\xd1\x81\xd1\x81- \xd0\xa2\xd0\x9a \xd0\x9a\xd0\xb8\xd1\x82- \xd0\xa2\xd0\x9a \xd0\xad\xd0\xbd\xd0\xb5\xd1\x80\xd0\xb3\xd0\xb8\xd1\x8f- \xd0\xad\xd0\xba\xd1\x81\xd0\xbf\xd1\x80\xd0\xb5\xd1\x81\xd1\x81 \xd0\xa2\xd0\xbe\xd1\x87\xd0\xba\xd0\xb0 \xd0\xa0\xd1\x83 (express.ru)- \xd0\xad\xd0\xba\xd1\x81\xd0\xbf\xd1\x80\xd0\xb5\xd1\x81\xd1\x81-\xd0\xba\xd1\x83\xd1\x80\xd1\x8c\xd0\xb5\xd1\x80 (edostavka)Keywords: tracking number, parcel, postal services, package, delivery, monitoring.Recent changes:Added services: Russian Post (SOAP), Egypt Post.Updated services: 4px, Meest, Makedonska Posta, Russian Post Service, Royal mail, Boxberry (ru), Honkong post, SAO (cn), Po\xc5\xa1ta Slovenije (Slovenia)."
p4
tp5
tp6
.