((S'Title'
p0
S'TrackID\xc3\xa2\xe2\x80\x9e\xc2\xa2 '
p1
tp2
(S'Description:'
p3
S'What am I listening to? TrackID\xe2\x84\xa2 knows. And makes it look good.This gorgeous music recognition app identifies the music you are listening to. It is fast, it is easy and it looks great. Navigate with ease via the beautiful, intuitive user interface. With TrackID\xe2\x84\xa2, music recognition becomes a truly magical experience!And TrackID\xe2\x84\xa2 can do the sharing for you. Just press \xe2\x80\x9cLike\xe2\x80\x9d to make it instantly visible on your Facebook wall for all your friends to see \xe2\x80\x93 and, of course, hear.With TrackID\xe2\x84\xa2 you can access artist biographies, view music videos on YouTube and listen to any song.Recent changes:A few important fixes. As always thanks for the feedback from all of you.We are constantly trying to improve TrackID, enjoy!'
p4
tp5
tp6
.