((S'Title'
p0
S'TripLog - GPS Mileage Tracker '
p1
tp2
(S'Description:'
p3
S"\xe2\x98\x85\xe2\x98\x85\xe2\x98\x85 The ONLY app that has Auto Start feature\xe2\x98\x85\xe2\x98\x85\xe2\x98\x85 Most comprehensive reports designed for IRS tax returns\xe2\x98\x85\xe2\x98\x85\xe2\x98\x85 Featured in PC World http://www.pcworld.com/article/2020727/app-spotlight-automatically-track-your-mileage-with-triplog.html\xe2\x98\x85\xe2\x98\x85\xe2\x98\x85 Featured in Seattle King5 TV news http://www.king5.com/news/business/Cash-saving-apps-for-your-new-smartphone-or-tablet-184943151.html\xe2\x80\xa2 Track vehicle mileage and locations using GPS.\xe2\x80\xa2 Auto start when plugged in and drive more than 5 mph.  Auto stop when vehicle stops and unplugged.\xe2\x80\xa2 Three home screen widgets.  One-click start, stop, or pause GPS tracking.\xe2\x80\xa2 Commercial truck support (scale, lumpers, per diem allowance, state-by-state mileage for IFTA fuel tax report, and track DEF fuel purchase and gas mileage).\xe2\x80\xa2 IRS compliant tax return HTML and CSV reports and built-in mileage rates.\xe2\x80\xa2 Take expense receipt photos and upload to the Cloud.\xe2\x80\xa2 Turn regular expenses into scheduled reminders with time and mileage intervals.\xe2\x80\xa2 Calculate fuel economy (MPG, L/100km, or KM/L).\xe2\x80\xa2 Back up to SD card or cloud (powered by Amazon S3, not associated to your personal Amazon account).\xe2\x80\xa2 Backup data can be transferred to iOS devices. Transfer through the cloud gives you seamless experience, which requires only a few clicks.\xe2\x80\xa2 Import locations from phone Contacts and Google Maps via \xe2\x80\x9cShare\xe2\x80\x9d option\xe2\x80\xa2 Support multiple vehicles, multiple tax categories (business, medical, charity, etc.) and multiple business entities.\xe2\x80\xa2 Support units of measure, date format, and currencies in USA, Canada, UK, Australia, South Africa, India, Albania, Czech Republic, Denmark, Iceland, Indonesia, Israel, Malaysia, Mexico, New Zealand, Norway, Poland, Philippines, Russia, Saudi Arabia, Singapore, South Korea, Sweden, Thailand, Turkey, and other EU countries.\xe2\x80\xa2 Reply to all customer emails within 24 hours[New] TripLog for iOS has been released. Data can be easily transferred to iOS devices. https://itunes.apple.com/us/app/triplog-gps-mileage-tracker/id585918522?ls=1&mt=8\xe2\x80\xa2 USER GUIDE http://BizLogApp.com/userGuide.htmlExcellent customer support.  If you have any questions, please send us email.  We cannot reach you if you only leave review comments.\xe2\x80\xa2 PRICING http://BizLogApp.com/pricing.htmlPurchased inside of the app and turns on certain features.\xe2\x80\xa2 PRIVACY NOTICEWe treat your privacy very seriously.  We will never share or sell your personal information to any 3rd party.  Your information belongs to you and stays with you.Recent changes:\xe2\x98\x85 2013 Tax Month Special \xe2\x98\x85 (limited-time offers)For the month of April 2013, we'd like to offer you 20% Off on Bundled Package, including upgradesv4.9.7[New] Cancel Auto Start by tapping the notification message.[Fixed] Wrong mileage business use percentage on the reports."
p4
tp5
tp6
.