((S'Title'
p0
S'Tropical Traditions Mobile App '
p1
tp2
(S'Description:'
p3
S"Tropical Traditions is America's Source for Coconut Oil! Tropical Traditions provides organic foods grown on family farms, non-toxic household products, and organic based skin care products. Products:Organic Coconut Oils, Organic Foods, Non-toxic Household Products, Organic Skin Care Products, Grass-fed Meats and Dairy"
p4
tp5
tp6
.