((S'Title'
p0
S'Truecaller : Free Caller ID '
p1
tp2
(S'Description:'
p3
S'Truecaller is the global phone directory to search and find people worldwide by entering a name or phone number.Truecaller also shows you who the caller is instantly, blocks unwanted calls and so much more.15 million users can\xc2\xb4t be wrong, jump on the bandwagon!What other says:\xe2\x98\x85\xe2\x98\x85\xe2\x98\x85\xe2\x98\x85\xe2\x98\x85 "Mobile Magazine recommends Truecaller three years in a row!"\xe2\x98\x85\xe2\x98\x85\xe2\x98\x85\xe2\x98\x85\xe2\x98\x85 "Amazing app! Does what it says and now I am protect against spam-callers"\xe2\x98\x85Top App in US, Sweden, Norway, Denmark, Lebanon, Kuwait, Jordan, India and many more\xe2\x98\x85Enjoy the most accurate name and phone number lookup app globally with Caller ID, and it\xc2\xb4s FREE!Truecaller enables you to search half a billion phone numbers worldwide, keeps your phone book beautiful and up-to-date by adding your friend\xe2\x80\x99s latest Facebook and LinkedIn-pictures and birthdays and protects you from spam calls.New countries and numbers are added continuously to Truecaller at no extra cost and we will not stop adding.Features:\xe2\x80\xa2 Lookup mobile and landline numbers from all over the world.\xe2\x80\xa2 Caller ID - See who the unknown caller is before answering (Requires 3G or Wifi).\xe2\x80\xa2 Call Blocker - Block calls from your personal blacklist and block common spam callers thanks to the community blacklist.\xe2\x80\xa2 Social connected - Connect to your Facebook or LinkedIn account to get your friends latest social status information immediately when they call you.\xe2\x80\xa2 Update Phonebook - Keep your phonebook up-to-date with your friends latest address info, pictures and much more.Said about Truecaller:GigaOm \xe2\x80\x93 \xe2\x80\x9cTruecaller is an international phone directory of sorts that covers both fixed-line and mobile phones\xe2\x80\x9dWall Street Journal \xe2\x80\x93 \xe2\x80\x9cTruecaller is in the process of creating a global telephone directory\xe2\x80\x9dCNET - \xe2\x80\x9cSee who\'s calling you with the Truecaller app for your Android\xe2\x80\x9dTechCrunch \xe2\x80\x93 \xe2\x80\x9cThe advantage of using crowdsourcing as a directory data source is that it can offer better phone number look ups in countries where there are no reliable directory services\xe2\x80\x9d     For more information, visit the Truecaller FAQ page: www.truecaller.com/faq Note: 3G or WIFI is required for Truecaller Caller ID to work.*Operator charges may applyFollow us on:Twitter: http://twitter.com/truecallerFacebook: http://facebook.com/truecallerGoogle+: http://google.com/+truecallerPermissions:DIRECTLY CALL PHONE NUMBERS: Required to perform calls directly from Truecaller.RECEIVE AND READ TEXT MESSAGES (SMS): Required to perform reverse number lookup of the SMS senders.FULL NETWORK ACCESS: Required to communicate with Truecaller servers and perform name and number searches.MODIFY YOUR CONTACTS: Required to save contacts in the phonebook.READ YOUR CONTACTS: Required to check if a number exists in the phonebook.READ PHONE STATUS AND IDENTITY: Required for CALLER ID. To detect events like incoming calls, answering calls and ending calls.REROUTE OUTGOING CALLS: Required to perform number tracking during outgoing calls.MODIFY OR DELETE THE CONTENTS OF YOUR USB STORAGE MODIFY OR DELETE THE CONTENTS OF YOUR SD CARD: Required to save your picture and to cache images for search resultsDISABLE YOUR SCREEN LOCK/PREVENT FROM SLEEPING: Required to display the Caller Id window on locked phones during incoming calls.FIND ACCOUNTS ON THE DEVICE: Required for push notification.VIEW NETWORK CONNECTIONS: Required to check if the device has an active connection.RECEIVE DATA FROM INTERNET: Required for push notification.MODIFY PHONE STATE: Required to block calls and SMS/Texts from unwanted callers.READ/WRITE CALL LOG: Required to fetch and clear the call log.CONTROL VIBRATION: Required for alerting when a new Truecaller notification has arrivedRecent changes:- New Wizard- You can now search among over 950 million phone numbers worldwide- Introducing Profile completion indicator- CallerID improvements- Instant loading of Call Filters- Minor Bug fixes'
p4
tp5
tp6
.