((S'Title'
p0
S'TVGOO Live Tv '
p1
tp2
(S'Description:'
p3
S'You can watch free online tv channels all over the world with tvgoo application. Updating countries and channels automaticaly.Tags: online tv, live tv, tv list, free, watch, stream, mobile tvAvailable Countries: turkey, france, germany, russia, greece, italia, italy, spain, ukraine, brazil, azerbaijan, albania, armenia, egypt, estonia, bulgaria, finland, uk, usa, belgium, india, netherlands, egypt, hungary, japan, china, macedonia, kosovo, norway, romania, usa'
p4
tp5
tp6
.