((S'Title'
p0
S'TV Indonesia Streaming '
p1
tp2
(S'Description:'
p3
S'IMPROVED. Now We Better, with more TV Channel. Low qualtiy TV channel is for slower internet connection.If you have problem when upgrade, please uninstall first and then install again.No Need Other Plugin/Other software, just Install, select one TV channel and please wait a moment, Yes  you can watch  your favorite TV channel with free.Sometime some channels may not available due to lot of network traffic. You can try again later. Watch live free Indonesian TV channels in your mobile phone with this free application on your device. Enjoy watching Online Indonesian TV for free.Requirements:This application uses your internet connection. This app is able to work with 3G, 4G or WiFi networks.  Sometime some channels may not available due to lot of network traffic. You can try again later. Disclaimer:This app doesn\'t actually stream the content, instead it combines various sources to present the content in a likable way. All the logos, trademarks and other symbols are the properties of their respective owners. We do not endorse or support any channel or any company. This app is distributed "as is" without warranty of any kind and the user may use it on his/her own risk. This app\'s users and third parties, agree to indemnify and hold harmless this app\'s creators and it\'s agents, from any damages claimed as a result of information, resources, products or services, or third party links obtained from this app. This app doesn\'t stream the content itself, so the creators can\'t be held responsible for any damages. If anybody still finds this app harmful in any way, they must send a request/notice to the creators first to remove the discrepancy. All the rstp (Real-Time Streaming Protocol) links are gathered from various sources available open in the internet. So the app owner or developer or creator can\'t be held responsible for any damages.Indonesian TV Stations in this app:- Global Tv- Indosiar- Metro TV - MNC TV- RCTI - SCTV - TRANS 7 - TRANS TV - TV One- TVRI Jakarta- Bali TV- DAAI TV- KOMPAS TV- LBS TV- MIVO TV- TVRI NASIONAL- TVRI Jakarta Budaya- TVRI Jakarta Edukasi- TVRI Jakarta Olahraga- Bonus beberapa  TV Luar Tags:Android tv, tv broadcast Indonesia, Indonesia tv , Indonesia mobile tv, Online tv, live tv, tv list, free, watch, stream, mobile tv, live Indonesia tv, live Indonesia tv, Indonesia tv live, Indonesia tv, Indonesia tv pro, online tv, web tv, free tv, live tv, mobile tvRecent changes:Version 1.0.9-  Fixing bug when run in TabletVersion 1.0.6- Have menu to update TV channel, after update, better close app then open again.- More TV ChannelVersion 1.0.3- Fixing wrong channelVersion 1.0.1- Adding icon for each Indonesia TV Channel- Adding confirmation window when exitVersion 1.0.0- Adding new  TV Channel like Shindo TV,Trans 7, Kompas TV, MNC Muslim and other'
p4
tp5
tp6
.