((S'Title'
p0
S'Twonky Beam '
p1
tp2
(S'Description:'
p3
S'Twonky Beam provides you with a simple and familiar way to discover and enjoy Internet videos with your tablet or phone and beam them to your TV or other home media players.  Twonky Beam also allows you to beam media stored on your mobile device or home media server.When you visit your favorite websites, or discover new ones, Twonky Beam will display a Twonky Beam button over the beamable media items on the page. The Twonky Beam home page contains links to popular websites with great content you can beam. You can browse many pages at once and create and manage bookmarks of your favorite sites.A simple tap of the screen will beam the chosen media to your selected player, such as your Airplay-enabled or UPnP-/ DLNA-certified device.  Twonky Beam is compatible with popular devices such as Apple TV, Roku, and Xbox 360. You can also enjoy media directly on your tablet or phone.One of the best ways to use Twonky Beam is with Internet video, but it also works with music and photos. You can also create playlists with a queue of multiple selections that will play continuously in the order you added them, or you can change the order and delete items from your queue. It is always possible to continue browsing, either on the current site or on another site, while your media is playing.In-app purchase of the Premium DTCP-IP Compatibility feature allows you to access DTCP-IP protected media with Twonky Beam (Requires Android 4.0 or higher, valid content license and a compatible player for beaming).\xe2\x80\xa2 Enjoy a familiar browser experience for discovering and enjoying Internet video, music, and photos\xe2\x80\xa2 Open multiple sites at once with tabbed browsing\xe2\x80\xa2 Play the videos directly on the mobile device or beam them to your home media player\xe2\x80\xa2 Seeing the Twonky Beam Button lets you quickly know when you can beam something\xe2\x80\xa2 Create and manage bookmarks of your favorite websites\xe2\x80\xa2 Quickly access recommended links to websites that contain content you can beam\xe2\x80\xa2 Play selected content to remote devices, while continuing to browse\xe2\x80\xa2 Download media from the Internet or your home media server and play it on your tablet or phone offline\xe2\x80\xa2 Create and manage a Beam queue\xe2\x80\xa2 Browse, beam, or play media stored on your tablet, phone, or home media server \xe2\x80\xa2 Share media on your tablet or phone with other devices\xe2\x80\xa2 Play or beam PlayReady protected media (Requires Android 4.0 or higher, valid content license and a compatible player for beaming).\xe2\x80\xa2 Play, beam, or download DTCP-IP protected media.(Requires Android 4.0 or higher, valid content license and a compatible player for beaming.  Requires premium DTCP Compatibility feature enabled.)\xe2\x80\xa2 Browse and beam media contained in RSS feeds*Please note that the beaming functionality relies on the capabilities of the devices on your home network, as well as the media support provided by specific websites. Beaming does not work with Flash content.Recent changes:\xe2\x80\xa2 Fixed a bug where on some devices, media files were not found in the sd card partition\xe2\x80\xa2 Improved reliability of playback of downloaded DTCP-IP protected media \xe2\x80\xa2 Pause/Resume playback when interrupted by incoming phone call\xe2\x80\xa2 Improve application stability and playback reliability after WiFi network change \xe2\x80\xa2 Various additional bug fixes and improvements'
p4
tp5
tp6
.