((S'Title'
p0
S'UC Browser for Android '
p1
tp2
(S'Description:'
p3
S'\xe2\x98\x85Fastest-->smooth Web surfing experience & ultimate download speed;\xe2\x98\x85Smartest-->Voice Control, Smart Gestures and Auto Fill make it intelligent;\xe2\x98\x85Most Popular-->Choice of 400 million users worldwide;\xe3\x80\x80\xe3\x80\x80\xe3\x80\x80\xe3\x80\x80\xe3\x80\x80\xe3\x80\x80\xe3\x80\x80-->Best Mobile Browser Awards 2012&2011 \xe2\x80\x93 About.com;\xe3\x80\x80\xe3\x80\x80\xe3\x80\x80\xe3\x80\x80\xe3\x80\x80\xe3\x80\x80\xe3\x80\x80-->No.1 Downloaded Android Browser on Google Play in India;\xe2\x98\x85Most Secure-->Incognito Browsing protects your privacy;\xe2\x98\x85Save Money-->reduce data costs with advanced compression technology;    UC Browser is your ideal web browser!    Download and try the best android browser today!    You may have noticed we\xe2\x80\x99ve changed our logo to the classic UC orange! We want to be orange just like our squirrel mascot to show we have the characteristic of a squirrel: fast, smart and enthusiastic! New Features:1.UI Enhancement: Multiple start screens with the ability to organize your Web apps into folders. 2.Watch Offline: Keep your favorite videos from webpages in your phone.3.Customized Themes and Wallpapers: You can change the way your UC Browser looks by downloading themes and wallpapers from the UC Theme Center. 4.Incognito Browsing: For your convenience and privacy, when you activate Incognito Browsing your browsing history will not be recorded.5.Ad Blocking: Intelligent blocking of advertisements in WWW sites without breaking the layout of the webpages. 6.Screen Shot: Take screen shots of any webpages and scribble what you want to mark on the shots.Reviews from users:"Best browser I\'ve used in a while. I\'ve tried dolphin, chrome, Firefox, boat browser, opera mini and many others and I could never find one that satisfied like dolphin used before its incredible performance slowdown. But now this browser is even better than dolphin was, currently loving it on HTC Rezound""Excellent! Finally a browser that actually works! I\'ve downloaded so many other browsers that had so many different issues and they all don\'t measure up dolphin, opera, chrome, Firefox, to name a few. This I\'d the complete package and it\'s so fast, look you don\'t have to take my word for it just download and see for yourself, it\'s extremely effective absolutely love it.... "You may be using Chrome or Firefox as your PC browser. However, for your Android devices, UC Browser is the best choice. Download for free and try the best Android browser now.Know more about UC Browser: http://www.ucweb.comAlso check out our mini version for phones: http://goo.gl/RnPYBFollow us on :Facebook: https://www.facebook.com/ucmobTwitter: https://twitter.com/#!/UCBrowserSubscribe on YouTube: http://www.youtube.com/ucwebvideoContact us: help@ucweb.comRecent changes:1.UI Enhancement: Multiple start screens with the ability to organize your Web apps into folders. 2.Watch Offline: Keep your favorite videos from webpages in your phone.3.Customized Themes and Wallpapers:Change the way your UC Browser looks by downloading themes and wallpapers. 4.Incognito Browsing: Activate Incognito Browsing your browsing history will not be recorded.5.Ad Blocking: Intelligent blocking of advertisements in WWW sites. 6.Screen Shot: Take screen shots of any webpages.'
p4
tp5
tp6
.