((S'Title'
p0
S'Ulster Bank ROI '
p1
tp2
(S'Description:'
p3
S'With this updated version of Ulster Bank Mobile Banking, managing your money on the move is even easier \xe2\x80\x93 now you can view and manage your business accounts on the move too..NEW FEATUREManage your business accounts direct from your Android Smartphone! If you are a personal Anytime Internet Banking customer who also has business accounts visible on your personal Anytime Internet Banking profile then you can now manage these business accounts on your Android smartphone \xe2\x80\x93 just as you do with your personal accounts..FEATURES- Check your balance and available funds for all your personal Ulster Bank Republic of Ireland accounts and most of your Ulster Bank Republic of Ireland business accounts- View recent transactions on your accounts - Transfer money between your accounts- Make payments- Find your nearest cash machine or local branch Thank you for all your feedback on previous versions of the app. It helps us keep improving, so please keep it coming. HOW TO REGISTERYou need to be a personal Ulster Bank RI Anytime Internet Banking customer to use the Ulster Bank RI app.  Once you\xe2\x80\x99ve downloaded the app, registering is simple. All you need to hand is your Anytime Internet Banking customer number, debit card and a couple of personal details. Your details will be verified within 24 hours and we\xe2\x80\x99ll send you a text message when you\xe2\x80\x99re all set to go.If you already have the app and wish to view and manage your business accounts on the app, you just need to delete the app from your phone and re-download it.Not got a customer number? Get a reminder or sign up for Anytime Internet banking at www.ulsterbank.ie/anytimeIf you\xe2\x80\x99re having trouble with your app please call the helpdesk on 1800 937 900 (Mon-Fri 08:00 to 21:00 and Sat-Sun 08:00 to 20:00). Calls may be recorded.When banking with Ulster Bank online or through your mobile phone you have the added security of our online and mobile banking promise.Ulster Bank, Help for What Matters.IMPORTANT INFORMATIONYou need to be over age 11 and have a Republic of Ireland mobile number starting 08 to use this service. Only personal Anytime Internet Banking customers who also have their business accounts visible on their [personal] Anytime Internet Banking profile can manage these business accounts on this service.  If you only have business accounts visible on your [business] Anytime Internet Banking profile then you will not be able to manage these accounts on your Android smartphone at this time.The following business account types are available on the App - Corporate Current Account, Business Current Account, Business Reserve Account, 30 Day Business Reserve, Solicitors Reserve Account, Special Interest Bearing Account, Bonus Access Account, Liquidity Select Account, Liquidity Manager Account, 7 Day Liquidity Manager Account, 30 Day Liquidity Manager Account. The following business account types are not available on the App - Commercial Cards, Business Loans, Treasury Deposit accounts.You can view and read the Terms and Conditions for this service within the app prior to registering, they can also be viewed at www.ulsterbank.ie/mobileterms.  Please save or print a copy of these terms and conditions for your records.  By downloading the app and registering you are accepting the terms and conditions.To allow you to enjoy all of the features listed you will need to accept the following permissions:Network communication for connectivity.Your location to find your nearest cash machine or branch.Ulster Bank Ireland Limited. A private company limited by shares, trading as Ulster Bank, Ulster Bank Group and Banc Uladh. Registered in Republic of Ireland. Registered No 25766. Registered Office: Ulster Bank Group Centre, George\xe2\x80\x99s Quay, Dublin 2. Member of The Royal Bank of Scotland Group. Ulster Bank Ireland Limited is regulated by the Central Bank of Ireland. Calls may be recorded.Recent changes:Ability to manage Business account Near Me functionality updated'
p4
tp5
tp6
.