((S'Title'
p0
S'UltimateToolKit for MCPE '
p1
tp2
(S'Description:'
p3
S'The right app if you want Minecraft PE Mods, Maps, Seeds and Texture Packs! Download now and you\'ll have a new Minecraft Pocket Edition expirienceInternet connection is required for many great features althought the UTK won\'t consume much of your data plan, but that depends on your usage.\xe2\x98\x85\xe2\x98\x85\xe2\x98\x85About:\xe2\x98\x85\xe2\x98\x85\xe2\x98\x85I\'m Christoph, a 13 Year Old Austrian Boy who develops this app in his time between school days. Please honor my work and if something isn\'t working don\'t just give me a 1 Star Rating, just send me an E-Mail. Btw: I have taught everything myself ;)\xe2\x98\x85\xe2\x98\x85\xe2\x98\x85Maps:\xe2\x98\x85\xe2\x98\x85\xe2\x98\x85You can choose between many diffrent maps, Skyblock, The Survival Games and Modern Warfare 3: Seatown are just some of over 70 Maps. You should refresh the maps database daily to not miss any new Maps.\xe2\x98\x85\xe2\x98\x85\xe2\x98\x85Texture Packs:\xe2\x98\x85\xe2\x98\x85\xe2\x98\x85After downloading the UTK for Minecraft PE you\'ll have access to many famous Texture Packs, ported by community members from the PC version of Minecraft to the Pocket Edition\xe2\x98\x85\xe2\x98\x85\xe2\x98\x85Mods:\xe2\x98\x85\xe2\x98\x85\xe2\x98\x85You can find many mods contributed by the minecraftforum.net community. They can be easily accessed on a nice interface which provides screenshots of almost all mods.You need PocketTool to install mods. \xe2\x98\x85\xe2\x98\x85\xe2\x98\x85Seeds:\xe2\x98\x85\xe2\x98\x85\xe2\x98\x85With the 0.4.0 update a new great feature has been added: The Seed-Store. There you can browse through THOUSANDS of Seeds, if you find one you like press the "Like" Button. You can also publish your own seed right thought the app, just by entering a Seed, your Name and a Description of the Seed\xe2\x98\x85\xe2\x98\x85\xe2\x98\x85MAPBackup:\xe2\x98\x85\xe2\x98\x85\xe2\x98\x85After the 0.4.5 update, a new Feature is available: MAPBackupUse it to manage Multiple Backups, One-Click Batch Backup, One-Click Restore. The Titanium Backup for Minecraft PE Maps! \xe2\x98\x85\xe2\x98\x85\xe2\x98\x85Current features:\xe2\x98\x85\xe2\x98\x85\xe2\x98\x85\xe2\x9c\xb0 Browse through many mods!\xe2\x9c\xb0 Browse through many Texture Packs!\xe2\x9c\xb0 Download Maps from this categorys:          \xe2\x80\xa2 Survival          \xe2\x80\xa2 Creative          \xe2\x80\xa2 Superflat          \xe2\x80\xa2 World biomes          \xe2\x80\xa2 PvP\xe2\x9c\xb0 Share your Minecraft PE Maps with your friends all around the world, just one click is needed and you can choose between GMail, Bluetooth and more!\xe2\x98\x85\xe2\x98\x85\xe2\x98\x85Translations:\xe2\x98\x85\xe2\x98\x85\xe2\x98\x85There are already many Translations available, if you want even more you could help translating the UTK here:http://translate.chrismcmine.de/\xe2\x98\x85\xe2\x98\x85\xe2\x98\x85The WeeklyPoll:\xe2\x98\x85\xe2\x98\x85\xe2\x98\x85Join the weekly poll: http://weekly.poll.ChrisMCMine.deEvery week you can vote for an other question, mostly about Minecraft PE and the UTK. The page is also embedded in the App to Rate.\xe2\x98\x85\xe2\x98\x85\xe2\x98\x85Be social:\xe2\x98\x85\xe2\x98\x85\xe2\x98\x85\xe2\x9c\xb0Twitter:http://twitter.ChrisMCMine.de/\xe2\x9c\xb0YouTube:http://YT.ChrisMCMine.de/\xe2\x9c\xb0My Palringo Group:http://Palringo.ChrisMCMine.de [PalMCMine]\xe2\x98\x85\xe2\x98\x85\xe2\x98\x85Permissions:\xe2\x98\x85\xe2\x98\x85\xe2\x98\x85\xe2\x80\xa2 ACCESS_NETWORK_STATE and ACCESS_WIFI_STATECheck for Internet Connection\xe2\x80\xa2 WRITE_EXTERNAL_STORAGE and READ_EXTERNAL_STORAGEDownload maps/files etc.\xe2\x80\xa2 READ_PHONE_STATENeeded due to Restrictions of the Android Framework when checking Connection\xe2\x98\x85\xe2\x98\x85\xe2\x98\x85Disclaimer:\xe2\x98\x85\xe2\x98\x85\xe2\x98\x85This app is a free alternate to: Minecraft Seeds Pro, Seeds PRO for MinecraftThis is not Minecraft or Minecraft Pocket Edition (PE)You can find the official Minecraft PE here: Minecraft Pocket EditionThis app is in no way affiliated with Mojang or any other company!Tags:Minecraft Pocket Edition, MCPE, Minecraft PE, Texture Packs, Mods, Maps, Worlds, SeedsWow, you actually read the whole description of an app which tries to make Minecraft PE more enjoyable ;)Recent changes:0.4.5     * New Texture Packs!     * New Mods!     * New Feature: MAPBackup (MB)     * Partly new Interface     * New Permissions are needed for something that is coming out in one of the next updates/!\\ After every update of the this app tap the "Install needed files" button again /!\\'
p4
tp5
tp6
.