((S'Title'
p0
S'Ultimate Samsung Galaxy S2 App '
p1
tp2
(S'Description:'
p3
S'Drippler makes your Galaxy S2 even more awesome! Get the latest updates, apps, tips and more.Drippler helps you make the most of your Samsung Galaxy S2, making sure you never miss out on the latest updates, rumors and news. Download this app to stay one step ahead and get the latest Galaxy S2 update, Galaxy S2 tips, Galaxy S2 apps and Galaxy S2 Games!\xe2\x98\x85 Features \xe2\x98\x85\xe2\x9c\x93 Latest Android news and updates - stay up-to-date \xe2\x9c\x93 Highlights - browse the most popular updates, games and Galaxy S2 apps\xe2\x9c\x93 Notifications - never miss Galaxy S2 updates or must have apps for your SGS2\xe2\x9c\x93 Desktop widget - get everything straight to your desktop\xe2\x9c\x93 This app supports Galaxy S2, Galaxy S2 Skyrocket and Galaxy S2 Skyrocket HD\xe2\x99\xa5 Media Coverage \xe2\x99\xa5"Drippler just became a new must install app" - GigaOm"A must-have for Android owners" - TheNextWeb"Drippler offers news on Android updates and useful apps" - The New York Times"This is a big deal... people don\'t know all this!" - TechCrunch"Drippler starts being helpful the moment it\'s installed" - CRN\xe2\x99\xa5 User Reviews \xe2\x99\xa5"All the best news and galaxy s 2 apps tailored for my phone. Get Galaxy S2 Jelly Bean updates before everyone else for the latest samsung galaxy s ii updates and news!\xe2\x80\x9d"My one stop for my Galaxy S 2 updates & news. Excellent""Couldn\'t live without this awesome galaxy s2 guide!""Amazing app for galaxy s 2 updates and galaxy s 2 apps! I Check every day to see what new stuff I can have or use with my phone"\xe2\x98\x85 Content \xe2\x98\x85After installing Drippler, you\'ll get the latest:\xe2\x9c\x93 Galaxy S2 apps\xe2\x9c\x93 Galaxy S2 updates\xe2\x9c\x93 Samsung Galaxy S2 widgets\xe2\x9c\x93 Galaxy S2 root tips and tricks\xe2\x9c\x93 Samsung Galaxy S2 themes  \xe2\x9c\x93 Samsung Galaxy S2 wallpapers\xe2\x9c\x93 Galaxy S2 manuals\xe2\x9c\x93 Galaxy S2 guides\xe2\x9c\x93 and more!\xe2\x98\x85 We LOVE connecting with our users, please reach out! \xe2\x98\x85\xe2\x9c\x93 Email - appfeedback@drippler.com\xe2\x9c\x93 Facebook - http://facebook.com/drippler\xe2\x9c\x93 Twitter - http://twitter.com/drippler\xe2\x9c\x93 Web - http://drippler.comKeywords: Samsung Galaxy S2, Samsung Galaxy S 2, samsung galaxy s ii, Samsung Galaxy SII, Samsung S2, Galaxy S2 Apps, Galaxy S2 Games, Galaxy S2 Update, Galaxy S2 Tips, Galaxy S2 News, Galaxy S2 Jelly Bean, Galaxy S2 Software Update, galaxy s2 root, Galaxy S2 ROM, Galaxy S2 Unlock, Galaxy S2 Notifcations, Jelly Bean Galaxy S2, Update for Galaxy S2, Samsung Galaxy S 2 Apps, Galaxy S 2 Updates, Update Galaxy S2, Apps for Samsung Galaxy S2, Apps for Galaxy S2, Samsung Galaxy S 2 ThemesRecent changes:3.82.7* No confirmation on exit* Bug fixes3.82.3* Featured apps tab* Bug fixes3.82.0* Notification bug fix3.81.9* Navigation buttons in drips* Bug fixes3.81.4* Show/hide game drips (under settings menu)* Quick download button for app and game drips* Facebook sharing button bug fix* Bug fixes3.80.6* Bug fixes'
p4
tp5
tp6
.