((S'Title'
p0
S'Ultimate Galaxy Note 2 App '
p1
tp2
(S'Description:'
p3
S'Drippler makes your Galaxy Note 2 even more awesome! Get the latest Galaxy Note 2 updates, apps, tips and more. Drippler helps you make the most of your Galaxy Note II, making sure you never miss out on the latest updates, news and apps for Note 2. Download this Galaxy Note 2 app to stay one step ahead and get the latest Samsung Galaxy Note 2 apps, Galaxy Note 2 updates, Galaxy Note 2 tips, Galaxy Note 2 themes, Galaxy Note 2 widgets and Galaxy Note 2 games!\xe2\x98\x85 Features \xe2\x98\x85\xe2\x9c\x93 Latest Samsung Galaxy Note 2 updates and news - stay up-to-date \xe2\x9c\x93 Highlights - browse the most popular updates and samsung galaxy note 2 apps\xe2\x9c\x93 Notifications - never miss a galaxy note 2 update or hot note 2 apps\xe2\x9c\x93 Desktop widget - get everything straight to your desktop\xe2\x99\xa5 Media Coverage \xe2\x99\xa5\xe2\x9c\x93 "Drippler just became a new must install app" - GigaOm\xe2\x9c\x93 "A must-have for Android owners" - TheNextWeb\xe2\x9c\x93 "Drippler offers news on Android updates and useful apps" - The New York Times\xe2\x9c\x93 "This is a big deal... people don\'t know all this!" - TechCrunch\xe2\x9c\x93 "Drippler starts being helpful the moment it\'s installed" - CRN\xe2\x99\xa5 User Testimonials \xe2\x99\xa5\xe2\x9c\x93 "All the best news and apps for galaxy note 2 tailored for my phone. In other words, it\'s Galaxy Note 2 for dummies!\xe2\x80\x9d\xe2\x9c\x93 "My one stop for my Galaxy note 2 games, updates & news. Excellent galaxy note 2 help and the one-top shop for all you have to know about how to use galaxy note 2"\xe2\x9c\x93 "Amazing app! I Check every day to see what new stuff I can have or use with my samsung galaxy note ii - from galaxy note 2 themes, through apps for note 2 and note 2 widgets to galaxy note 2 wallpapers"\xe2\x9c\x93 "Threw away my Galaxy note 2 user guide! This app is a real time Galaxy note 2 manual with everything you need to know! Best Galaxy note 2 help on Android market!"\xe2\x98\x85 Content \xe2\x98\x85After installing Drippler, you\'ll get the latest:\xe2\x9c\x93 Samsung Galaxy Note 2 updates\xe2\x9c\x93 Samsung Galaxy Note 2 tips and tricks\xe2\x9c\x93 Samsung Galaxy Note 2 apps\xe2\x9c\x93 Samsung Galaxy Note 2 games\xe2\x9c\x93 Samsung Galaxy note 2 widgets\xe2\x9c\x93 Samsung Galaxy Note 2 themes\xe2\x9c\x93 Samsung Galaxy Note 2 wallpapers\xe2\x9c\x93 Samsung Galaxy Note 2 accessories\xe2\x9c\x93 Samsung Galaxy Note 2 user guides \xe2\x9c\x93 Samsung Galaxy Note 2 help\xe2\x9c\x93 Samsung galaxy Note ii instructions\xe2\x98\x85 We LOVE connecting with our users, please reach out! \xe2\x98\x85\xe2\x9c\x93 Email - appfeedback@drippler.com\xe2\x9c\x93 Facebook - http://facebook.com/drippler\xe2\x9c\x93 Twitter - http://twitter.com/drippler\xe2\x9c\x93 Web - http://drippler.comKeywords: Galaxy Note ii Apps, Samsung Note 2 Update, Samsung Note II, Galaxy Note 2 App, Galaxy Note 2 Software, Galaxy Note 2 Root, Galaxy Note 2 Unlock, Galaxy Note 2 Notification, Galaxy Note 2 Guide, Galaxy Note 2 Users Digest, Galaxy Note 2 Tutorial, galaxy Note 2 Help, Apps for Galaxy Note 2, Galaxy Note 2 Themes, Galaxy Note 2 Wallpapers, Best Apps for Galaxy Note 2, Apps for Note 2, Galaxy Note ii Apps, Note 2 User Guide, Samsung Galaxy Note 2 Theme, Samsung Note 2 WallpaperRecent changes:3.82.7* No confirmation on exit* Bug fixes3.82.3* Featured apps tab* Bug fixes3.82.0* Notification bug fix3.81.9* Navigation buttons in drips* Bug fixes3.81.4* Show/hide game drips (under settings menu)* Quick download button for app and game drips* Facebook sharing button bug fix* Bug fixes3.80.6* Bug fixes'
p4
tp5
tp6
.