((S'Title'
p0
S'Ultimate Google Nexus 7 App '
p1
tp2
(S'Description:'
p3
S'\xe2\x98\x85\xe2\x98\x85\xe2\x98\x85\xe2\x98\x85\xe2\x98\x85"A must-have for Android owners" - TheNextWebDrippler makes your Google Nexus 7 even more awesome! Download this app to stay one step ahead and get the latest Google Nexus 7 software updates, rumors, usage tips, apps & games, tech-support, accessories and more."A must-have for Android owners" - TheNextWeb FEATURES \xe2\x9c\x93 Latest updates - stay up-to-date \xe2\x9c\x93 Highlights - browse the most popular Nexus 7 updates\xe2\x9c\x93 Notifications - customize your Nexus 7 news\xe2\x9c\x93 Desktop widget - get the hottest new updates straight to your desktop\xe2\x98\x85 MEDIA "A must-have for Android owners" - TheNextWeb"Drippler offers news on Android updates and useful apps" - The New York Times"This is a big deal... people don\'t know all this" - TechCrunch"Drippler starts being helpful the moment it\'s installed" - CRN\xe2\x98\x85 USER REVIEWS "All the best news and apps tailored for my phone\xe2\x80\x9d"My one stop for my phone updates & news and nexus7 apps. Excellent""Awesome app! everything you need to know from nexus7 wallpapers to games for nexus 7!""Amazing app! I Check every day to see what new stuff I can have or use with my phone"\xe2\x98\x85 Content \xe2\x98\x85After installing Drippler, you\'ll get the latest:\xe2\x9c\x93 Google Nexus7 apps\xe2\x9c\x93 Google Nexus 7 games\xe2\x9c\x93 Google Nexus 7 user guides & Nexus 7 guidebooks \xe2\x9c\x93 Google Nexus 7 updates\xe2\x9c\x93 Google Nexus 7 toolkit\xe2\x9c\x93 Google Nexus 7 guidebook\xe2\x9c\x93 Google Nexus 7 secrets \xe2\x9c\x93 Google Nexus 7 tips\xe2\x9c\x93 Google Nexus 7 wallpapers\xe2\x9c\x93 and more!\xe2\x98\x85 WE\'D LOVE TO HEAR FROM YOU\xe2\x9c\x93 Drippler - http://drippler.com\xe2\x9c\x93 Facebook - http://facebook.com/drippler\xe2\x9c\x93 Twitter - http://twitter.com/drippler\xe2\x9c\x93 Email - appfeedback@drippler.comKeywords: Asus Google Nexus 7, Google Nexus 7 tablet, Asus Nexus 7 tablet, Nexus 7, Nexus 7 Root, Nexus 7  Plus Theme, Nexus 7 Themes, Nexus 7 Unlock, Nexus 7 Update, Google Nexus 7 Apps, Nexus 7 Plus Updates, Nexus 7 Rom, Google Nexus7, Nexus7 Apps, Nexus 7 Guide Book, Apps for Nexus 7, Google Nexus 7 Camera, Nexus7 CameraRecent changes:3.82.7* No confirmation on exit* Bug fixes3.82.3* Featured apps tab* Bug fixes3.82.0* Notification bug fix3.81.9* Navigation buttons in drips* Bug fixes3.81.4* Show/hide game drips (under settings menu)* Quick download button for app and game drips* Facebook sharing button bug fix* Bug fixes3.80.6* Bug fixes'
p4
tp5
tp6
.