((S'Title'
p0
S'UniCredit Mobile Banking '
p1
tp2
(S'Description:'
p3
S'Manage your account, your Genius Card your credit and prepaid cards manage your investments, and make payment MAV,RAV,REP and postal orders, receive messages and notices by the Bank trough new section \xe2\x80\x9cNotifications\xe2\x80\x9d With the UniCredit application, your smartphone is all you need to quickly, easily and securely manage your current account, your Genius Card and your securities account.If you are a UniCredit customer all you need to do is register with the Banca Multicanale Service to use this application, which enables you to:\xe2\x80\xa2 check your balance and recent operations   \xe2\x80\xa2 make bank transfers and bank giro payments and, if necessary, cancel them\xe2\x80\xa2 top up UniCredit prepaid cards and mobile phones   \xe2\x80\xa2 carry out fast and safe operations using UniCredit\xe2\x80\x99s \xe2\x80\x9cOperazioni Veloci\xe2\x80\x9d services   \xe2\x80\xa2 trade securities\xe2\x80\xa2 check the balance of your securities and manage orders issuedcheck the balance and movements of your UnicreditCard and prepaid cards issued by the Bank\xe2\x80\xa2 block (in the event of forgery, theft or loss) your credit cards and/or Genius Card and ask for their re-issue\xe2\x80\xa2\tReceive messages and alerts on your banking operations\xe2\x80\xa2\tmake payment via postal orders (preprinted or blank) as well as MAV RAV and REPThe application includes the new locator facility freely available to all Customers and to all non-customers  which allows them to find the nearest Branch and/or ATM and define the best route to reach it.The application also contains the innovative integrated Mobile Token security device which generates one-time passwords, quickly and easily, so you can confirm the operations you wish to make using Banca Multicanale or via mobile phone. After installing the application, access the Internet Banking (www.unicredit.it) service using your access codes.Activate the service by clicking on the menu \xe2\x80\x9cbanca via cellulare\xe2\x80\x9d on the left.Then proceed with new activation pathway For assistance in installing and activating the application you can call UniCredit Customer Services at toll free number: \xe2\x80\xa2 800.57.57.57 for all customers belonging to any branch marked UniCredit Banca, UniCredit Banca di Roma and Banco di Sicilia \xe2\x80\xa2 800.710.710 for all customers belonging to any branch marked UniCredit Private Banking or visit www.unicredit.it . Not a UniCredit customer? To become a customer call free phone 800.32.32.85 or visit www.unicredit.it .Recent changes:Activaction bug fix (es. HTC One +)Graphic optimization'
p4
tp5
tp6
.