((S'Title'
p0
S'Vanavond.tv - TV Gids '
p1
tp2
(S'Description:'
p3
S'Vanavond.tv is de minimalistische digitale tv-gids voor handset en tablet.Gratis | Visueel | Intu\xc3\xaftief | No nonsense | Eenvoudig Redactie is powered by TVGiDS.tv, dus:- Uitgebreide aanraders en tips- Bij films de IMDb-ratings, posters en trailersVanavond.tv heeft slechts vier - zorgvuldig geselecteerde - categorie\xc3\xabn:- Gids- Films- Tips- Nu & StraksDe tvgids app is toegesneden op de moderne tv-kijker die zonder omweg de juiste info wil zien. De fulltime redactie van de tv gids ziet toe op de constante hoogstaande kwaliteit van de tv gids app. Download de Vanavond.tv tv gids nu gratis en ontdek het zelf!'
p4
tp5
tp6
.