((S'Title'
p0
S'Vault-Hide SMS, Pics & Videos '
p1
tp2
(S'Description:'
p3
S"Get Vault, get your secret box. Hide secret photos,videos and SMS. Download this app to build a secret box to hide your secrets and fancy(crazy) party pics, videos.Hide contacts, pics, videos, SMS, and even Facebook message for free NOW! Keep your private text messages, photos, and videos safely hidden from prying eyes.Use NQ Mobile Vault to create your own password-protected space on your Android where you can encrypt and safely store private contacts, SMS messages, call logs, photos, and videos.Download NOW and keep your data safe!FEATURES:--Dashboard (New)--- Run a quick checkup to examine how secure your private information is on your mobile device and populate the result on an easy-to-read dashboard--Private Facebook message --\xe2\x80\x93 Simply add your friends to your Vault contact list and then privately chat without worrying about your friend\xe2\x80\x99s friends seeing the messages.--Hide pictures, videos, text messages and call history --\xe2\x80\x93 Hide and encrypt almost any kind of file on your phone in a password protected vault.--Hide contacts--\xe2\x80\x93 Calls and text messages from contacts you add to the Vault will no longer appear in your phone's native SMS folder or call logs.--Private SMS Messages--\xe2\x80\x93 Have private SMS conversations with hidden contacts from within the Vault.--Vault Online (Premium) --\xe2\x80\x93 Back up your Vault files on NQ\xe2\x80\x99s private cloud space. Data is securely encrypted and can only be accessed by you.--Stealth Mode (Premium)--\xe2\x80\x93 Make NQ Mobile Vault disappear from your phone. Your Vault can be opened again by entering your password from within the phone dialer.--Break-In Monitor (Premium)--\xe2\x80\x93 Capture anyone who enters the wrong password. Requires an Android 2.3 (or higher) device with a front-facing camera.Recognition for NQ Mobile Vault:\xe2\x80\xa2 Award winner at CTIA 2012\xe2\x80\xa2 More than 5 million downloads\xe2\x80\xa2 Top 10 downloaded apps in Free Business categoryNQ Mobile Vault is available FREE on Google Play. For advanced features, including unlimited text message storage, stealth mode and break in monitoring, users can upgrade to the premium version for $2.99 USD per month.Like Vault? You'll love our other products:\xe2\x80\xa2 Mobile Security (http://bit.ly/JJgBQ4)\xe2\x80\xa2 Android Booster (http://bit.ly/K3VVk1)\xe2\x80\xa2 Call Blocker (http://bit.ly/JujYOk)\xe2\x80\xa2 Super Task Killer (http://bit.ly/Jidewo)\xe2\x80\xa2 NQ Family Guardian (http://bit.ly/NJiDpj)About NQ MobileNQ Mobile Inc. (NYSE: NQ) is a leading global provider of mobile Internet services focusing on security, privacy and productivity. The company was one of the first to recognize the growing security threats targeting smartphone users and is now a leading provider of Freemium subscription services with approximately 283 million registered user accounts in over 150 countries. NQ Mobile's proprietary, cloud-based security solution has been recognized by third-party testing facilities around the world as the most effective solution for detecting and combating mobile threats. To facilitate global expansion, NQ Mobile headquarters are co-located in Beijing, China and Dallas, TX, USA. For more information on NQ Mobile, please visit www.nq.com.Join our social media community for the latest updates on mobile security and productivity. And be sure to tell us why you can't live without Vault.\xe2\x80\xa2 Check out our blog http://www.nq.com/blog/\xe2\x80\xa2 Follow us on Twitter https://twitter.com/#!/nqmobile \xe2\x80\xa2 Join us on Facebook http://www.facebook.com/NQMobileRecent changes:This is a new bug fix & performance enhancement release. Please upgrade it."
p4
tp5
tp6
.