((S'Title'
p0
S'Ver Peliculas Completas 2.0 '
p1
tp2
(S'Description:'
p3
S'Aqui puedes ver peliculas gratis en espa\xc3\xb1ol y peliculas online! Tenemos peliculas hd subtituladas y con audio latino. Sin limite de tiempo. Ver peliculas online gratis ahora!'
p4
tp5
tp6
.