((S'Title'
p0
S'Video Locker - Hide videos '
p1
tp2
(S'Description:'
p3
S"Hide videos securely and conveniently in Video Locker! - The ultimate hidden gallery app for hiding videos on Android.Sensitive videos from your Android video gallery can be kept safely locked away in a secure Video Locker accessible only via a secret PIN code.Key features of Video Locker include:1)Encryption - hidden videos are not only moved to a secret location on your phone but are also encrypted using advanced 128 bit AES encryption. This means that even if someone manage to steal your SD card and copy the hidden video files, they will still be unable to view the locked videos.2)Removed from recent app list - Video Locker App will not appear in 'recent apps' list3)Lock on sleep - If you forgot to exit Video Locker, the app will lockout as soon as your device goes into sleep mode.4)Folder level locking - lock individual hidden video albums. This allows you to show only 1 hidden video album without exposing the others.5)Tablet optimized - Video Locker's UI has been designed with tablets in mind as well so as to provide the ultimate viewing pleasure on both Android smart phones and tablets6)PIN recovery - With the optional PIN recovery feature, you won't lose your precious video files even if you forgot your PIN code. The app will email the PIN to you in the event you forgot Video Locker's PIN code.7)User friendly operation - Easily hide videos via default gallery or from within Video Locker itself.8)Fast bulk hide - Keep safe dozens of videos in seconds!9)Un-hide videos easily - Un-hide videos just as easily as hiding them and you can decide where the un-hidden videos go.Premium features:1)Stealth Mode - Hide the app itself! Video Locker App will disappear from the app drawer as if it never exist on your phone. Access to your private video vault can only be achieved by dialing the secret PIN code or via an innocent looking calculator widget.2)Ad-free viewing experienceDownload Video Locker now!Video Locker is brought to you by Handy Apps. Connect with us on Facebook at:  https://www.facebook.com/HandyAppsIncKw: hide videos, hide gallery, lock videos, video locker, video lock, hide gallery, lock gallery, hidden videos, hidden gallery, gallery lock, private gallery, video hider, video hide, gallery locker, video locker, hide it pro, video vault, video safe, private videos, private video gallery, hide movies, private movies, movie locker, hidden movies, secret movies, hide movie, hide movie clips, hide video clips, movie vaultRecent changes:Changes as follows: 1. Fixed issues that cause videos to be corrupted on some devices."
p4
tp5
tp6
.