((S'Title'
p0
S'Visual Anatomy Free '
p1
tp2
(S'Description:'
p3
S"OVERVIEW: Visual Anatomy Free is an interactive reference, and education tool. Now it include a rotational organ 3D overview model!! It contains 58 high-resolution images and more than 300 feature points which can be interactively selected. Each feature has its own label and short description. The app also has search function which can be used as searching the labels of all feature points. 8 overview images from Gray's anatomy. Full version has all 1247 images.In additional, a quiz with 23 multi-choice questions also is included.USES: This app\xe2\x80\x99s primary use is as a learning tool but can also be used for any professional who needs the occasional reminder. Additionally, this app is ideal for physicians, educators or professionals, allowing them to visually show detailed areas to their patients or students - helping to educate or explain conditions, ailments and injuries. FEATURES: \xe2\x80\xa2muscle description (ORIGIN, INSERTION, NERVE, ACTIONS).\xe2\x80\xa2Tap and Zoom - Pinch zoom into and identify any region, bone or other feature by tapping on the screen. \xe2\x80\xa2Quiz mode - test yourself with an option to switch off the label of the feature point. \xe2\x80\xa2Quick Navigation - jump to a different system or organ by selecting the thumbnail. \xe2\x80\xa2Multi-choice quiz.  \xe2\x80\xa2High-resolution images.\xe2\x80\xa2Free periodic updates.CONTENTS:Organ 3D, Muscular System (anterior, posterior and lateral views), Skeletal System (anterior, posterior and lateral views), Circulation System,Body Region,Heart, Respiratory System, Digestive System, Urinary System, Nervous System, Female and male Reproductive Systems, Ear Structure, Nasal Cavity, Eye.  HOW TO USE:The user is presented with a high-quality anatomy images. The user can zoom in to any area  by tapping on the zoom in button and using the single finger panning function. The feature point (cross) can be selected by tapping on it. Detail button allows you to switch on/off the short description. For muscle section, detail button only show the description. Quiz mode button allows you to switch on/off the label and short description.SEARCH: When you input more than one characters, the search function automatically gives a list of potential key words. You can just select one of them from the list. The result will be the feature point on the anatomy image, label and short description.You also can find more information by pressing the Wiki icon!!For Sony Ericsson xperia users !!!!!!1.Please use menu button on your phone to activate the menu option on your main acitivity windows(20 icons).2. Click the Text Transparent Setting option3. Select the Opaque option.That will solve the description cut-off problem.The setting will be saved so that you do not have to set it everytime you start the program.Recent changes:v1.8 Add Moving to SD card function for Android 2.2 or above. v2.9 Add Wiki Search in the search function!!v3.1-v3.3 Add pinch zoom. Crash bug fixed for Samsung Galaxy S3 and Note series.v3.4 Add a rotational organ 3D overview model!! UI improvement"
p4
tp5
tp6
.