((S'Title'
p0
S'VLC for Android Beta '
p1
tp2
(S'Description:'
p3
S'VLC media player is a free and open source cross-platform multimedia player that plays most multimedia files as well as discs, devices, and network streaming protocols.This is a BETA version of the port of VLC media player to the Android\xe2\x84\xa2 platform. It is intended for power users and hackers. This version is not perfectly stable and is slower than the final version.It might kill your kitten, destroy your house and start the Mayan apocalypse.Use it at your own risk. Have fun! :) NOTA BENE\xe2\x80\x93\xe2\x80\x93\xe2\x80\x93\xe2\x80\x93\xe2\x80\x93\xe2\x80\x93\xe2\x80\x93\xe2\x80\x93\xe2\x80\x93\xe2\x80\x93\xe2\x80\x93This version is for devices with an ARMv7 CPU or a x86 CPU. ARMv6 devices will be supported in a further release. Features\xe2\x80\x93\xe2\x80\x93\xe2\x80\x93\xe2\x80\x93\xe2\x80\x93\xe2\x80\x93\xe2\x80\x93\xe2\x80\x93\xe2\x80\x93\xe2\x80\x93VLC for Android\xe2\x84\xa2 plays most local video and audio files, as well as network streams (including adaptive streaming), like the desktop version of VLC.VLC for Android has a media library for audio and video files, and allows to browse folders directly.VLC has support for multi-track audio and subtitles. It supports auto-rotation, aspect-ratio adjustments and gestures to control volume and brightness.It also includes a widget for audio control, supports audio headsets control, cover art and a complete audio media library. Missing Features\xe2\x80\x93\xe2\x80\x93\xe2\x80\x93\xe2\x80\x93\xe2\x80\x93\xe2\x80\x93\xe2\x80\x93\xe2\x80\x93\xe2\x80\x93\xe2\x80\x93\xe2\x80\x93\xe2\x80\x93\xe2\x80\x93\xe2\x80\x93\xe2\x80\x93\xe2\x80\x93\xe2\x80\x93\xe2\x80\x93As this is an early BETA version, a lot of things are not finished, but will change for the final release: \xe2\x80\xa2 The basic User Interface will change again; \xe2\x80\xa2 Performance improvements are missing; \xe2\x80\xa2 Hardware decoding works only with a limited set of hardware; \xe2\x80\xa2 Other unknown issues. Permissions\xe2\x80\x93\xe2\x80\x93\xe2\x80\x93\xe2\x80\x93\xe2\x80\x93\xe2\x80\x93\xe2\x80\x93\xe2\x80\x93\xe2\x80\x93\xe2\x80\x93\xe2\x80\x93\xe2\x80\x93\xe2\x80\x93 \xe2\x80\xa2 It needs hardware control, in order to change the audio volume; \xe2\x80\xa2 It needs phone calls control, in order to pause the music when someone is calling; \xe2\x80\xa2 It needs full Internet access to open network streams; \xe2\x80\xa2 It needs to be able to read logs, during the beta version, to help understanding the crashes and issues; \xe2\x80\xa2 It needs to get access to the SD card storage, in order to allow deletion of files. \xe2\x80\xa2 It needs to get access to the settings, in order to change your audio ringtone.Recent changes:This is the eleventh beta of VLC for Android.0.0.11 is a fixing release for crashes occurring in 0.0.9.0.0.9 introduced new audio and video output methods, and fixed many bugs.The audio uses OpenSL ES, which should help improve audio sync.A preference setting allows you to use the former method, AudioTrack (Java).For video, you can select YV12 output: it should be faster, if it works :)For older devices, 16-bit output should increase display speed.But remember, this is still a beta ;)'
p4
tp5
tp6
.