((S'Title'
p0
S'vr.de '
p1
tp2
(S'Description:'
p3
S'Ihre Finanzen im Griff \xe2\x80\x93 immer und \xc3\xbcberallMit der VR-Banking App der Volksbank Raiffeisenbank behalten Sie Ihre Finanzen stets schnell und bequem \xc3\xbcberall im Griff.Ob von unterwegs mal eben den Kontostand abrufen, kurz die letzten Ums\xc3\xa4tze der Kreditkarte pr\xc3\xbcfen, schnell eine dringende \xc3\x9cberweisung erledigen oder  B\xc3\xb6rseninformationen einholen und mobil handeln? Kein Problem mit der neuen VR-Banking App.Mit dieser Version haben Sie nun nicht mehr nur Ihre Volks- und Raiffeisenbankkonten und Bankverbindungen in der Tasche, sondern behalten auch ihr Online Depot und Entwicklungen and der B\xc3\xb6rse genau im Blick. Das schnelle Abrufen von Marktdaten und mobiles Handeln vom Smartphone wird dadurch zum einfachen Spiel f\xc3\xbcr Sie.Folgende Funktionen/Services k\xc3\xb6nnen Sie nutzen:- Ihre pers\xc3\xb6nliche Konten\xc3\xbcbersicht- Umsatzanzeige- Umsatzdetails- \xc3\x9cberweisung (Inland und SEPA) - Umbuchung- Termin\xc3\xbcberweisung- Kreditkartenums\xc3\xa4tze- Anzeigen der noch nicht abgerechneten Ums\xc3\xa4tze- Telefonische Weiterleitung zur Sperrhotline (nur iPhone)- Geldautomatensuche- Abrufen von Online Depots- Wertpapiere kaufen und verkaufen- Wertpapier Watchlist- Echtzeitcharts und Echtzeit-Push-Kursen der wichtigsten M\xc3\xa4rkte - Aktuelle Kurs - und Marktinformationen- Ablegen von Notizen zu selektierten Produkten und diese so immer im Auge behaltenMultibankingEin gro\xc3\x9fes St\xc3\xbcck mehr Flexibilit\xc3\xa4t und Kontrolle \xc3\xbcber Ihre Finanzen. Mit der Multibankenf\xc3\xa4higkeit k\xc3\xb6nnen Sie nun all Ihre Bankverbindungen und Konten in der App \xe2\x80\x9evr.de\xe2\x80\x9c b\xc3\xbcndeln und verwalten. Behalten Sie Ihre Ausgaben und Ums\xc3\xa4tze im Blick. F\xc3\xbchren Sie \xc3\x9cberweisungen bequem und auch von unterwegs durch. Von all Ihren Konten, mit nur einer App. Durch die lokale Speicherung der Umsatzdaten, welche in einer verschl\xc3\xbcsselten Datenbank auf dem Endger\xc3\xa4t abgelegt werden, k\xc3\xb6nnen Sie auch ohne Netzzugang (z. B. Ausland, Flugzeug) auf Ihre Kontoums\xc3\xa4tze zugreifen. Selbstverst\xc3\xa4ndlich legen wir unsere maximalen Sicherheitsstandards auch an Ihre hinzugef\xc3\xbcgten Banken an, so dass Sie sich ganz auf das Wesentliche konzentrieren k\xc3\xb6nnen.Filial-/GeldautomatenfinderSie suchen einen Geldautomaten? Der Filialfinder f\xc3\xbchrt Sie zuverl\xc3\xa4ssig zur n\xc3\xa4chstgelegenen Filiale Ihrer Volksbank Raiffeisenbank. Die Bestimmung Ihres Standortes erfolgt \xc3\xbcber GPS. Mitteilung an BankSie sind unterwegs und haben Fragen an Ihren Bankberater? \xc3\x9cber die "Mitteilung an die Bank" k\xc3\xb6nnen Sie diese unabh\xc3\xa4ngig von Zeit und Ort an Ihren Bankberater adressieren.Meine Bank In diesem Bereich k\xc3\xb6nnen Sie sich \xc3\xbcber aktuelle Ver\xc3\xb6ffentlichungen und Veranstaltungen Ihrer Bank informieren. BrokerageUnterwegs Wertpapierkurse und B\xc3\xb6rseninformationen schnell und einfach abrufen und Entwicklungen an den Finanzm\xc3\xa4rkten verfolgen. Top/Flop Listen, Charts und pers\xc3\xb6nliche Watchlist einsehen und jederzeit mobil Handeln, das alles wird zum Kinderspiel mit der Banking- & Brokerage-App der Volksbank Raiffeisenbank. Unterwegs in Ihr Online Depot einsehen, schnell und einfach auf Kursbewegungen reagieren und Wertpapiere kaufen oder verkaufen, mit der Banking- App der Volksbank Raiffeisenbank sind Sie am Puls der Zeit und  k\xc3\xb6nnen in jeder Situation mobile vom Smartphone ordern.SicherheitIhre Daten in der VR-Banking App sind ebenso optimal gesichert wie bei Ihrer browserbasierten eBanking und Online VR Profibroker Anwendung. Sie loggen sich wie gewohnt mit VR-NetKey oder Alias und PIN ein. Falls Sie andere Bankkonten hinzugef\xc3\xbcgt haben, erfolgt der Login mit Ihrem Masterpasswort. Ihre \xc3\x9cberweisungsdaten best\xc3\xa4tigen sie mit einer \xc3\xbcber Sm@rt-TAN plus generierten TAN. Bitte beachten Sie, dass f\xc3\xbcr Ihre VR-Banking App aus Sicherheitsgr\xc3\xbcnden mobileTAN nicht zugelassen ist. Das besondere Sicherheitsmerkmal der mobileTAN besteht darin, dass sie \xc3\xbcber einen zweiten Kanal, das Handy, bereitgestellt wird. Dies w\xc3\xa4re im Falle Ihrer App aktuell nicht gew\xc3\xa4hrleistet.Recent changes:V1.82BugfixV1.80\xc3\x9cber die Kachel \xe2\x80\x9eMeine Bank\xe2\x80\x9c k\xc3\xb6nnen Sie sich \xc3\xbcber aktuelle Ver\xc3\xb6ffentlichungen oder Veranstaltungen Ihrer Bank informieren.'
p4
tp5
tp6
.