((S'Title'
p0
S'VueScan Mobile Free '
p1
tp2
(S'Description:'
p3
S"Scanning documents has never been easier. VueScan Mobile allows you to seamlessly scan documents and photos straight to your Android Device from HP, Canon, Epson, Brother, and Samsung WiFi printer/scanners. You can also you use your phone's camera to automatically detect and crop documents inside of photos.Upgrade to the full version to access additional features including:\xe2\x80\xa2 Multipage PDFs\xe2\x80\xa2 Saving scans to other applications (eg. Dropbox, Evernote)\xe2\x80\xa2 Automatic Document Feeder/Sheet Feeders\xe2\x80\xa2 Printing to any AirPrint compatible printerVueScan includes support for 18 languages: English, French, German, Spanish, Italian, Russian, Japanese, Chinese (Traditional), Chinese (Simplified), Danish, Finnish, Korean, Norwegian, Dutch, Polish, Portuguese (Brazil), Portuguese (Portugal), Swedish.Recent changes:Version 1.1.6 - Minor bug fixesVersion 1.1.5 - Minor bug fixesVersion 1.1.4 - Added support for 53 Samsung scanners. Fixed HP ADF bug.Version 1.1.3 - Fixed a bug with scanners that don't have an ADF. Added additional translations.Version 1.1.2 - Improved corner finding algorithm in camera scanning. Fixed a bug that could cause email attachments to fail.Version 1.1.1 - Improved camera scanning"
p4
tp5
tp6
.