((S'Title'
p0
S'Walgreens '
p1
tp2
(S'Description:'
p3
S'The Walgreens App featuring Refill by Scan and QuickPrints, makes your life easier. Refill prescriptions faster, get photo prints in about an hour and know the deals before you shop.BALANCE\xc2\xae REWARDS FEATURESSave, earn, redeem, in store and onlineGet exclusive pricing as a memberScan your mobile card at checkout to earn points and check your point status wherever you arePHARMACY FEATURESRefill by Scan - Simply scan the barcode on your prescription bottle for instant refillsPoints for Refills* \xe2\x80\x93 Balance\xc2\xae Rewards members get 500 points every time they refill a prescriptionRefill Reminders \xe2\x80\x93 Opt to get push notifications to be alerted when it\xe2\x80\x99s time to refill your prescriptionsRx Info & Updates \xe2\x80\x93 Access your Rx history and statusPill Reminder \xe2\x80\x93 Schedule reminders on your app to take your medicationTransfer Prescription \xe2\x80\x93 Easily transfer your prescriptions to WalgreensHealth Info \xe2\x80\x93 Access a helpful health reference encyclopedia, track your weight loss, BMI, ovulation & so much morePHOTO FEATURES QuickPrints \xe2\x80\x93 Choose pictures from your phone\xe2\x80\x99s albums to print and pick up at your local Walgreens in about an hour\xe2\x80\x94no log-in or account required. Now you can upload up to 100 photos at a time.Print from Facebook \xe2\x80\x93 Select photos from your Facebook albums to print and pick up at your local Walgreens in about an hourPrint from Instagram \xe2\x80\x93 Now you can print your Instagram photos to Walgreens and pick up in about an hourPhoto Editing \xe2\x80\x93 Edit your photos using filters and a variety of editing toolsPoster Prints \xe2\x80\x93 Turn your favorite photos into postersPrintWorthy\xe2\x84\xa2 \xe2\x80\x93 Create and print a PrintWorthy\xe2\x84\xa2 card using a photo from your Facebook albums with likes and commentsSHOPPING FEATURESCoupons & Offers - Access multiple offers with the Mobile Coupons feature and view local weekly offers in our Weekly AdIn Store Maps \xe2\x80\x93 Use your Shopping List to map and find items on a Walgreens store mapLocal Shopping \xe2\x80\x93 Set your preferred store and search your store\xe2\x80\x99s inventory Barcode and QR Code Scanner - Learn more about our products by scanning product barcodes or QR codes from our paper Weekly AdsPERMISSIONSCertain permissions are necessary to access specific app functions and features.Location Permissions: To determine current user location to display nearby stores and provide mapping directions.Screen Permissions: To display the appropriate view when the device is rotated.Telephony Permissions: To enable the user to call a Walgreens store directly from the app.Touchscreen Permissions: To allow user to enable touchscreen activity when using the app.Camera, Vibrate Flashlight and WiFi Permissions: To use the Transfer Prescription by Scan and Refill by Scan features.Store and Receive Boot Completed Permissions: To store certain, non-personal information\xe2\x80\x94such as reminders.There is no charge to download the Walgreens App, but specified rates from your wireless provider and other fees as noted in your Walgreens account agreement(s) still apply.*\xc2\xa0Due to state and federal laws, points cannot be earned on some items. Points will not be awarded to anyone who currently is or was at any time in the 6 months prior to purchasing Pharmacy Items covered by Medicare, Medicaid, Tricare or any other government-funded healthcare program. Pharmacy Items must be purchased at participating Walgreens Drugstore, Rxpress, Duane Reade, or Walgreens Pharmacy locations ("Participating Stores") to earn points. Excludes Pharmacy Items purchased from AR, NJ or NY pharmacies and prescriptions transferred to a Participating Store located in AL, MS, OR or PR. See\xc2\xa0Balance Rewards terms and conditions\xc2\xa0for full details.Recent changes:Print from InstagramPoster PrintsUpload up to 100 photos on QuickPrintsPill Reminder'
p4
tp5
tp6
.