((S'Title'
p0
S'Wallpapers HD '
p1
tp2
(S'Description:'
p3
S'\xe2\x80\x9cWallpapers HD\xe2\x80\x9d is a cool new app that brings all the best HD wallpapers and backgrounds to your Android device. Add the innovative Colors function, and you have the best free wallpaper app for your Android phone! Wallpapers HD is the ideal solution to get free high resolution wallpapers, thanks to its unique features: - All the best HD wallpapers and backgrounds! Free? Yes, that\'s right!- The innovative, unprecedented "Colors" function allows you to sort the beautiful wallpapers based on your favourite color! Get your black wallpaper or pink background, choose from amazing blue, black and white, green, dark wallpapers, get thousands of cool red, yellow, colorful backgrounds. Free on your Android phone!- You can find the best and most popular Android wallpapers in the world, thanks to the advanced wallpaper ranking system. - New cool wallpapers are added every week. - With the "Lucky!" button, you can try your luck fishing your cool free wallpapers in the entire, vast collection of images. - All HD wallpapers can be sorted by category: abstract wallpapers, nature wallpapers, flower wallpapers, sea, sky, animals, beach wallpapers, texture, vintage and many more!Other images include: landscape, tiger, texture, love wallpapers, animals, sky, flowers, heart, graffiti, ocean, horse, sunset, design wallpapers, cars, forest, funny wallpapers.What are you waiting for? Get your cool HD wallpapers on your Android mobile device now, it\'s free!**What our users say - Thank you for your continued support!**This is by far the best wallpaper application! Every wallpaper app that I used look horrible, except these. I would pay $10 for this. Awesome! - by JoeI\'m very hard to please when it comes to wallpapers. This is hands down the best app with the best selections. 5 stars - by DevinExcellent app. Easy to use interface, with tons of beautiful wallpapers. - by MichaelThe best app out in the market - by MohammadThis is the first time I ever write a review, coz I liked this app a lot... Trust me if you are looking for wallpapers I guess this is the best!Amazing! hundreds of incredible wallpapers. Get it right now! - by MarkExcellent app. Crystal clear images. I deleted all my other apps after using this ... - by craigI downloaded 5 different wallpaper apps. Not only does this app have the best pics it is, without a doubt, the most user friendly... Thanx, From Texas - by SherriLooooooveee this app! Awesome awesome backgrounds and one of the few that actually works! - by LaurenWhat\'s not to love? - by JonathanIf you\'re looking for a wallpaper app that works fast, has great wallpapers, and integrates well with the OS. Look no further..Love this app! Especially the feature that allows you to search for wallpaper by a specific color :-) - by JerishaStunning - by Chad & ReneeI love that you can search by color as well, often everything is pink...ICK! Vivid colors and great variety. Really fun and exciting.Love this app...I change my screen all the time. Great pictures - by MechelleGreat app! - by YaelThese wallpapers never run out! If you get tired of one you have around a bazillion more pretty cool ones to choose from! :)It\'s the best one I have found so far. Pretty pictures and fits the screen great. - by LillianRecent changes:- Simplified interface- Improved performance- More and more images!'
p4
tp5
tp6
.