((S'Title'
p0
S'Water Drop Live Wallpaper '
p1
tp2
(S'Description:'
p3
S'Water Drop live wallpaper, simulates water ripple effect.Touch or tap the screen to add water drops on your home screen!Now you can load your own photos! Enable "Custom Photo" option in settings screen.To use: Home -> Menu -> Wallpapers -> Live WallpapersTo develop more free great live wallpapers, we have implemented some ads in settings.Advertisement can support our develop more free great live wallpapers.Our wallpaper contains "NO notification or icon ads"!!This live wallpaper has been tested on latest devices such as Samsung Galaxy S3, Nexus 7, HTC Desire S and Sony Xperia S. Please contact us if your device is not supported.Note: If your wallpaper resets to default after reboot, you will need put the app on phone instead of SD card.Follow us on Twitter: https://twitter.com/androidwasabi" target="_blank">https://twitter.com/androidwasabiRecent changes:- Updated latest Android 4.2.2 SDK- Removed "Download a free game" link'
p4
tp5
tp6
.