((S'Title'
p0
S'WebMD for Android '
p1
tp2
(S'Description:'
p3
S'24/7 access to health information and decision-support tools.WebMD for Android helps you with your decision-making and health improvement efforts by providing mobile access 24/7 to mobile-optimized health information and decision-support tools including WebMD\xe2\x80\x99s Symptom Checker, Drugs & Treatments, First Aid Information and Local Health Listings. WebMD the App also gives you access to first aid information without having to be connected wirelessly \xe2\x80\x93 critical if you don\xe2\x80\x99t have Internet access in the time of need. KEY FEATURES\xe2\x80\xa2 WebMD Symptom Checker \xe2\x80\x93 Select the part of the body that is troubling you, choose your symptoms, & learn about potential conditions or issues.\xe2\x80\xa2 Conditions \xe2\x80\x93 Find medically reviewed information about Conditions relevant to you & learn more about causes, treatments, & related symptoms.\xe2\x80\xa2 Drugs & Treatments \xe2\x80\x93 Search our extensive database for information on Drugs, Supplements, & Vitamins. Access content such as Uses, Side Effects, Warnings, and more.\xe2\x80\xa2 Pill Identification Tool \xe2\x80\x93 Identify your prescription drugs and over the counter medicines by pill shape, color, & imprint.\xe2\x80\xa2 First Aid Essentials \xe2\x80\x93 Your handy guide for medical emergencies. From insect stings to broken bones, helpful treatment tips are always available, even without an Internet connection.\xe2\x80\xa2 Local Health Listings \xe2\x80\x93 Find the closest physician, hospital, & pharmacy based on your current location or search by city, state or zip.Personalization:\xe2\x80\xa2  Create custom lists of Drugs, Conditions, and Articles\xe2\x80\xa2  Save custom lists securely\xe2\x80\xa2  Review your saved information anytime and anywhereADDITIONAL FEATURES\xe2\x80\xa2 Native Voice Search Functionality \xe2\x80\x93 Search WebMD with their voice for a condition, drug, treatment or first aid topic.\xe2\x80\xa2 Maps \xe2\x80\x93 View local health listings & individual Physician, Hospital, & Pharmacy locations in a map view.\xe2\x80\xa2 Get Directions \xe2\x80\x93 Enter your primary address once in app settings and get one click directions.\xe2\x80\xa2 Email Friends \xe2\x80\x93 Send your friends medically reviewed content covering First Aid, Conditions, & Drugs.\xe2\x80\xa2 Email Me \xe2\x80\x93 Quickly send yourself content with one click. Simply save your email address in app settings.\xe2\x80\xa2 Content Updates \xe2\x80\x93 Timely content is updated automatically. \xe2\x80\xa2 Tour \xe2\x80\x93 Swipe through a quick visual tour of key features and navigation.ABOUT WebMDWebMD Health Corp. (Nasdaq: WBMD) is the leading provider of health information services, serving consumers, physicians, healthcare professionals, employers, and health plans through our public and private online portals, mobile platforms and health-focused publications. More than 95 million unique visitors access the WebMD Health Network each month.The WebMD Health Network includes WebMD Health, Medscape, MedicineNet, emedicineHealth, RxList, theheart.org, drugs.com and Medscape Education.SOURCE WebMD Health Corp.WebMD. Better Information. Better Health.WebMD does not provide medical advice, diagnosis or treatment. Always seek the advice of your physician or other qualified health provider with any questions you may have regarding a medical condition. Never disregard professional medical advice or delay in seeking it because of something you have read on the WebMD mobile application.Recent changes:(v 3.4.1)\xe2\x80\xa2 Fixed bug related to the developer setting, \xe2\x80\x98Don\xe2\x80\x99t Keep Activities\xe2\x80\x99 in Ice Cream Sandwich (Android 4.0)\xe2\x80\xa2 Numerous stability and performance improvements(v 3.4)\xe2\x80\xa2 Optimized for Ice Cream Sandwich (Android 4.0)\xe2\x80\xa2 Numerous stability and performance improvements.'
p4
tp5
tp6
.