((S'Title'
p0
S'Wells Fargo Mobile '
p1
tp2
(S'Description:'
p3
S">Wells Fargo Mobile\xc2\xae is a fast, secure, and free* service for Wells Fargo and Wells Fargo Advisors clients. It is available 24/7 using your existing Wells Fargo Online\xc2\xae Username and Password.Your security is our priority \xe2\x80\x94 Mobile data transmissions are safeguarded by 128-bit SSL (Secure Socket Layer) to prevent unauthorized access. Our Online Security Guarantee provides added protection against unauthorized access to your accounts. We will never transmit your account number, and we will not store your username or password on your phone. ACCOUNT ACTIVITY\xe2\x80\xa2 View your account balances and activity \xe2\x80\xa2 Available balance and pending deposits \xe2\x80\x94 learn more about how your available balance is calculated and what\xe2\x80\x99s still pending.  Note, some transaction activities may not be immediately recorded to your account and may not yet be reflected in the available balance \xe2\x80\xa2 Search and Sort \xe2\x80\x94 Find the transaction you're looking for in just a few keystrokes\xe2\x80\xa2 Detailed transactions list \xe2\x80\x94 View the date, location, amount, and more for transactions on one page, just like you see in Online Banking.\xe2\x80\xa2 View your credit card rewards balanceSEND AND RECEIVE MONEY\xe2\x80\xa2 Send money, using a mobile number or email address, to friends and family with eligible accounts at participating financial institutions. TRANSFERS\xe2\x80\xa2 Make transfers between accounts and to other Wells Fargo customers. BILL PAY\xe2\x80\xa2 Schedule payments and pay bills right from your mobile device\xe2\x80\xa2 If you're already a Bill Pay customer, your payees are automatically available for use in Mobile Bill PayTRACK INVESTMENTS\xe2\x80\xa2 Monitor balances, holdings, account activity and open orders for your Wells Fargo Advisors and WellsTrade accounts\xe2\x80\xa2 Get real-time quotes, charts, market data and newsMOBILE DEPOSIT - NEW - Now available nationwide\xe2\x80\xa2 Deposit checks using your Android phone ATM LOCATOR\xe2\x80\xa2 Let us help you find a nearby Wells Fargo ATM. Locate an ATM using your current location/GPS or enter the zip code or address of the area you wish to search. You\xe2\x80\x99ll be provided a list of ATMs with the address and distance from your current location. DEPOSIT PRODUCTS OFFERED BY WELLS FARGO BANK, N.A. MEMBER FDIC.INVESTMENT AND INSURANCE PRODUCTS: NOT INSURED BY FDIC | NO BANK GUARANTEE | MAY LOSE VALUEWells Fargo Advisors is the trade name used by two separate registered broker-dealers: Wells Fargo Advisors, LLC, and Wells Fargo Advisors Financial Network, LLC, Members SIPC, nonbank affiliates of Wells Fargo & CompanyWellsTrade accounts are available through Wells Fargo Advisors, LLC PERMISSIONS\xe2\x80\xa2 Location permissions are necessary to determine your current location to display nearby Wells Fargo locations/ATMs and provide mapping directions\xe2\x80\xa2 Camera permissions are necessary for you to use the Mobile Deposit feature\xe2\x80\xa2 Internet access permissions are necessary for the app to connect with Wells Fargo Mobile*Your mobile carrier's message and data rates may apply.**Minimum system requirements: Android OS v2.1 and higher are supported. All customers must upgrade to version 2.1 or higher of the Wells Fargo Mobile app. If you aren\xe2\x80\x99t able to upgrade, use your browser to sign on to wf.com.Recent changes:\xe2\x80\xa2\tView account activity details for mortgage accounts. \xe2\x80\xa2\tMake transfers to pay mortgage accounts, including payments for principal, escrow, and fees.\xe2\x80\xa2\tActivate Text Banking Transfers between your accounts (via settings).\xe2\x80\xa2\tGain more convenient access to your accounts if you have only investment accounts.\xe2\x80\xa2\tMinor fixes to Mobile Deposit.\xe2\x80\xa2\tMinor fix for ATM Locator."
p4
tp5
tp6
.