((S'Title'
p0
S'Westpac Mobile Banking '
p1
tp2
(S'Description:'
p3
S'With Westpac Mobile Banking you can take your bank with you wherever you go. It\xe2\x80\x99s the safe and easy way to stay in control of your finances. View your balance, see past transactions, transfer money, pay bills, access tools & calculators, find a Westpac ATM/branch and more\xe2\x80\xa6Key Features:\xe2\x80\xa2\tView your account balances and transactions \xe2\x80\xa2\tTransfer funds \xe2\x80\xa2\tPay Anyone \xe2\x80\xa2\tSchedule and pay bills, BPAY\xc2\xae\xe2\x80\xa2\tView and save your eStatements\xe2\x80\xa2\tATM, branch or banker locator\xe2\x80\xa2\tReset password instantly with Westpac Protect\xe2\x84\xa2 SMS code.\xe2\x80\xa2\tOpen a savings or transaction account\xe2\x80\xa2\tHome loan and personal loan borrowing and repayments calculator\xe2\x80\xa2\tWestpac Mobile Banking for business - helps manage accounts on the go  \xe2\x80\xa2\tCurrency converter, handy travel checklist and view global ATM alliance partners to save on fees when accessing cash overseas\xe2\x80\xa2\tCheck out our latest videos, including our weekly economic update\xe2\x80\xa2\tWestpac Online Investing - Purchasing and selling shares is easy and straight forwardThis app is not optimised for tablet however it should work for most tablets.Need Help: Contact us here:Google+   :  http://plus.google.com/+westpacFacebook:  https://www.facebook.com/WestpacWebsite:    http://www.westpac.com.au/personal-banking/westpac-online/mobile-banking/Or call technical support on: 1300 655 505Things you should know:1. This service is only available for Westpac Australia customers. Westpac New Zealand customers should visit https://sec.westpac.co.nz/mobile on their mobile2. Mobile data downloading or internet usage charges may apply. Check with your internet service provider or your mobile phone service provider.3. The research and share trading service is only available to Westpac Online Investing customers. To apply, visit westpac.com.au/OnlineInvesting. Online investing through Westpac Securities Limited ABN 39 087 924 221 AFSL 233723 is a service provided by Australian Investment Exchange Ltd ABN 71 076 515 930 AFSL 241400 ("the Participant"), a Participant of the ASX Group. The Participant is not authorised to carry on business in any jurisdiction other than Australia. Accordingly, this information is directed to and available for Australian residents only. You should read the Financial Services Guide ("FSG"), which is available at westpac.com.au/OnlineInvesting4. Westpac\'s security guarantee is subject to the observance of Westpac\'s Internet Banking Terms and Conditions, including maintaining the security of your access codes, passwords and SecurID tokens. Westpac recommends that you always adhere to manufacturers\xe2\x80\x99 software and support to ensure your computers and mobile devices are covered by the latest software and security updates available from the manufacturer.Recent changes:Updated branch/ATM dataSave ID for login screen on Nexus 4.2.2 amended Auto-rotation feature fixed Minor technical changes'
p4
tp5
tp6
.