((S'Title'
p0
S'WhatsApp Messenger '
p1
tp2
(S'Description:'
p3
S'WhatsApp Messenger is a smartphone messenger available for Android and other smartphones. WhatsApp uses your 3G or WiFi (when available) to message with friends and family. Switch from SMS to WhatsApp to send and receive messages, pictures, audio notes, and video messages. First year FREE! ($0.99 USD/year after)WHY USE WHATSAPP: \xe2\x98\x85 NO HIDDEN COST: Once you and your friends download the application, you can use it to chat as much as you want. Send a million messages a day to your friends for free! WhatsApp uses your Internet connection: 3G/EDGE or Wi-Fi when available. \xe2\x98\x85 MULTIMEDIA: Send Video, Images, and Voice notes to your friends and contacts. \xe2\x98\x85 GROUP CHAT: Enjoy group conversations with your contacts. \xe2\x98\x85 NO INTERNATIONAL CHARGES: Just like there is no added cost to send an international email, there is no cost to send WhatsApp messages internationally. Chat with your friends all over the world as long as they have WhatsApp Messenger installed and avoid those pesky international SMS costs. \xe2\x98\x85 SAY NO TO PINS AND USERNAMES: Why even bother having to remember yet another PIN or username? WhatsApp works with your phone number, just like SMS would, and integrates flawlessly with your existing phone address book. \xe2\x98\x85 NO NEED TO LOG IN/OUT: No more confusion about getting logged off from another computer or device. With push notifications WhatsApp is ALWAYS ON and ALWAYS CONNECTED. \xe2\x98\x85 NO NEED TO ADD BUDDIES: Your Address Book is used to automatically connect you with your contacts. Your contacts who already have WhatsApp Messenger will be automatically displayed.\xe2\x98\x85 OFFLINE MESSAGES: Even if you miss your push notifications or turn off your phone, WhatsApp will save your messages offline until you retrieve them during the next application use. \xe2\x98\x85 AND MUCH MORE: Share location, Exchange contacts, Custom wallpaper, Custom notification sounds, Landscape mode, Precise message time stamps, Email chat history, Broadcast messages and MMS to many contacts at once and much much more! --------------------------------------------------------- We\xe2\x80\x99re always excited to hear from you! If you have any feedback, questions, or concerns, please email us at: android-support@whatsapp.com or follow us on twitter: http://twitter.com/WhatsApp@WhatsApp---------------------------------------------------------When roaming, additional carrier data charges may apply.  Please contact your carrier for details.Recent changes:Version 2.9.5196raise group chat limit to 50 participants per groupVersion 2.9.4750bug and crash fixesVersion 2.9.4207bug and crash fixescolor and layout improvementsenable Croatian languageVersion 2.9.3936update user interface to the latest android look and feelability to purchase 3yr and 5yr service at discountadded support for vietnameseVersion 2.9.1547Fix for unable to send message when there are less than 7 days remaining of service'
p4
tp5
tp6
.