((S'Title'
p0
S'Whatsapp 1 Year Free PROMOTION '
p1
tp2
(S'Description:'
p3
S'I bring you the solution for all those who can not afford Whatsapp is the method to get 1 year free and is valid for users of Android.This is a guide or tutorial on how to renew the license 1 year free for completing the promotion offered Whatsapp.Please note, this is not a scam, not a hack or anything, just a tutorial on a promotion that has whatsapp on their service.Recent changes:- Add Deutsch'
p4
tp5
tp6
.