((S'Title'
p0
S'White Noise Lite '
p1
tp2
(S'Description:'
p3
S'Recommended by Dr. Oz as a miracle for better sleep! Find out why the world is sleeping better with White Noise Lite for FREE. Features ambient sounds of the environment to help you relax during the day and sleep great at night.Do you have trouble going to sleep?  Are you traveling on a plane and need a quick power nap?  Does your newborn baby wake up in the middle of the night?  There are numerous benefits to using White Noise:\xe2\x80\xa2\tHelps you sleep by blocking distractions\xe2\x80\xa2\tRelaxes and reduces stress\xe2\x80\xa2\tPacifies fussy and crying babies\xe2\x80\xa2\tIncreases focus while enhancing privacy\xe2\x80\xa2\tSoothes headaches and migraines\xe2\x80\xa2\tMasks tinnitus (ringing of the ears)Even when you\xe2\x80\x99re asleep, your brain is constantly scanning and listening for sounds. If it\xe2\x80\x99s too quiet, unwanted noises such as faucet drips or police sirens can interrupt your sleep. White Noise generates sounds over a wide range of frequencies, masking those noise interruptions, so you can not only fall asleep, but stay asleep.SOUND CATALOGAirplane Travel, Beach Waves Crashing, Chimes Chiming, Crickets Chirping, Extreme Rain Pouring, Grandfather Clock, Oscillating Fan, Thunder Storm, Train Ride, White NoiseAPPLICATION FEATURES\xe2\x80\xa2\t10+ perfectly looped sounds with additional free sounds from the White Noise Market at http://whitenoisemarket.com/\xe2\x80\xa2\tCreate new soundscapes by mixing multiple noises together like a DJ with support for adjusting volume, balance, and pitch of each individual sound in the mix\xe2\x80\xa2\tFull screen digital clock with multiple colors and brightness controls makes it the perfect companion for any nightstand\xe2\x80\xa2\tAdvanced alarm and timer system that slowly fades audio in and out so you awake naturally feeling more refreshed\xe2\x80\xa2\tOn-screen media player and volume controls with swipe gesture support for navigating sound collection\xe2\x80\xa2\tStar favorite sounds and mixes in the sound catalog for quick access using the Favorite view\xe2\x80\xa2\tDesigned to work on all Android-based phones and tablets\xe2\x80\xa2\tAdvanced Settings let you prevent interruptions such as notifications, tweak buffer size for optimal playback, adjust sound volume, balance, pitch, custom alarm snooze times, and moreDR. OZ SHOW: 13 Miracles of 2013"Revolutionary Sound App! 10 Million People. It\'s Obviously Working."AMAZING ANDROID APPS - Book by Daniel A. Begun"White Noise can instantly transform a chaotic environment into a calm oasis."THE WASHINGTON POST: Smartphone Puts Newborn to Sleep "For the next four months, the infant slept with his father\'s phone in his crib and White Noise tuned to \'air conditioner.\' The monotonous buzz kept the baby sleeping soundly and his parents happy."CNET: Apps that can improve your life\xe2\x80\x9cTrouble falling asleep at night? A little White Noise might do the trick.\xe2\x80\x9dCUSTOMER REVIEWS\xe2\x80\x9cI use it with Bose headphones while traveling on long flights around the country. It helps me forget I\xe2\x80\x99m in coach, catch a few hours\xe2\x80\x99 sleep and arrive feeling better than one could expect.\xe2\x80\x9d"We have an eight week old, and he\xe2\x80\x99s slept with an iPhone and White Noise every night since birth. He\xe2\x80\x99s the happiest kid on the block."\xe2\x80\x9cThe sounds in this app rival those of expensive white noise generators you would find at Brookstone or Sharper Image. Great work!\xe2\x80\x9dANDROID PERMISSIONSREAD_PHONE_STATE: White Noise silences when incoming phone detected.  This permission is not used for any other reason.WAKE_LOCK: Used by alarms to wake device when activatedDISABLE_KEYGUARD: Used by alarms to unlock deviceINTERNET: Used to provide web, news, and adsWRITE_EXTERNAL_STORAGE: Downloaded soundsREAD_NETWORK_STATE: Checks if web availableUPGRADE WHITE NOISEUpgrade to the full version for 40+ sounds, background audio so you can use other apps simultaneously, unlimited importing of new sounds, and no adsCONTACT USPositive reviews and 5 star ratings keep the free updates coming!Like us on Facebook at http://www.facebook.com/tmsoftFollow us on Twitter at http://twitter.com/tmsoftRecent changes:- Improved audio streaming- Fixes to file association for downloaded sounds- Added "None" to snooze time options- Added "Create Mix" button to the + add menu- Fixes for various reported issuesPositive reviews and 5 star ratings keep the free updates coming! Like us on Facebook at http://www.facebook.com/tmsoftFollow us on Twitter at http://twitter.com/tmsoftVisit our Website at http://www.tmsoft.com/Download new sounds at http://whitenoisemarket.com/'
p4
tp5
tp6
.