((S'Title'
p0
S'WhosHere '
p1
tp2
(S'Description:'
p3
S'WhosHere: for love, for friendship, for connections in any and every aspect of your life. WhosHere is the world\xe2\x80\x99s only mobile friend finder with \xe2\x80\x9cTotal Freedom,\xe2\x80\x9d a cost-free, worry-free, label-free approach to location-based dating and networking. With millions of user world wide, WhosHere is ideal for making new friends, dating, networking, or just chatting and swapping pictures with new and interesting people nearby and around the world. Absolutely no need to give out your phone number, email or IM address. That is unless you want to\xe2\x80\xa6and meet that new friend or special someone in person. \xe2\x80\xa2 Check us out on Facebook - WhosHere.net/fb \xe2\x80\xa2 Follow-us on Twitter - twitter.com/WhosHereRecent changes:The following has been added to WhosHere 2.2.3:\xe2\x80\xa2 Bug fix around support tickets.  Users signed in with Facebook can now create support tickets.'
p4
tp5
tp6
.