((S'Title'
p0
S'WhosCall-block calls, texts '
p1
tp2
(S'Description:'
p3
S'Block unwanted calls and texts with WhosCall. Unlimited reverse lookup for FREE! Show the originating location of incoming calls!WhosCall guarantees you a FREE service! 300+ Million phone number cloud database, including the US, Canada, United Kingdom, Australia, India, Japan, Hong Kong, Singapore, Taiwan, Europe, Middle East, and more.\xe2\x98\x85 WhosCall Pro (Offline mode) \xe2\x98\x85 Pro features: Top Spam database (Global), Cloud backup, Privacy Status lookup, Ads free.(WhosCall Pro is currently only available in US, Japan, Saudi Arabia, Kuwait, Taiwan\xe2\x80\xa6we are working hard to make these features available to all regions!)Credits, Special Thanks to,Korean-\xec\x98\xa4\xeb\xa0\x8c\xec\xa7\x80\xeb\xa1\x9c\xec\xa0\x9c, \xeb\xb0\xa9\xec\x9d\x80\xec\x84\xa0Russian-TsydenIf you are interested in translating WhosCall to your native language, please fill out the following form: bit.ly/Yc9Jz4 , we appreciate your great support.\xe2\x98\x85 Google Taiwan \xe2\x98\x852013 Best Innovation Award\xe2\x98\x85 Business Next \xe2\x98\x85 2012 Best Technology Award\xe2\x98\x85 Google Executive Chairman : Eric Schmidt \xe2\x98\x85"WhosCall actually tells you who\'s calling, and it is growing very fast in US, India, China, and Taiwan! "\xe2\x98\x85 Business Week \xe2\x98\x85\xe2\x80\x9cA prime example of Taiwanese software talents seizing their dreams and future "\xe2\x98\x85 2012 Asia Mobile Application Competition \xe2\x98\x85Golden Awards, Best App of 2012WhosCall helps you identify calls in seconds through Intelligent Analysis, Internet Search and Community Tagging. No matter which kind of calls you receive: malevolent phone frauds, annoying telemarketing calls, or random advertisements from stores, you are able to know  \xe2\x80\x9cWho\xe2\x80\x99s Calling\xe2\x80\x9d at a glance. Even when you\xe2\x80\x99ve missed a call, you can check before you call back! Also supports SMS Text blocking!\xe2\x98\x85 3.7.9 New Features \xe2\x98\x85-\xe2\x80\x94\xe2\x80\x94\xe2\x80\x94\xe2\x80\x94\xe2\x80\x94\xe2\x80\x94\xe2\x80\x94\xe2\x80\x94\xe2\x80\x94\xe2\x80\x94\xe2\x9c\x94 Call Dialog Lite\xef\xbc\x88Smaller and less intrusive call dialog\xef\xbc\x89\xe2\x9c\x94 Top Spam database refinement  \xef\xbc\x88Faster and smoother downloads\xef\xbc\x89\xe2\x98\x85 Features \xe2\x98\x85-\xe2\x80\x94\xe2\x80\x94\xe2\x80\x94\xe2\x80\x94\xe2\x80\x94\xe2\x9c\x94 Large Database300+ Million phone number information (rapidly expanding) , including Hong Kong, US, Taiwan, Singapore, Middle East, India, and more.\xe2\x9c\x94 Global Caller IDConnect with 170+ Countries\xe2\x80\x99 Local Phone Number Resources.\xe2\x9c\x94 Plug n Play!No need for complex setups! Once installed, unidentified numbers can be recognized immediately. You have the option of using our cloud database or offline storage.\xe2\x9c\x94 Real-time searchingWith stable Internet access, WhosCall provides real-time phone number lookup.\xe2\x9c\x94 Smart floating Caller IDNo impacts on regular calling/receiving phone calls. Caller ID in floating window allows you to review the caller information even during a phone call.\xe2\x9c\x94 Smart Number taggingQuick and easy tagging of calls and numbers, used for reminder or identification purposes.\xe2\x9c\x94 Block calls/SMSSay goodbye to frauds and telemarketing!\xe2\x9c\x94 Callback WidgetWidgets provides you info on the latest incoming calls and call back.\xe2\x9c\x94 Efficient to useNow optimized for less battery usage.\xe2\x9c\x94\xe3\x80\x80Offline mode\xef\xbc\x88WhosCall Pro\xef\xbc\x89Local storage database for use in offline conditions.\xe2\x9c\x94\xe3\x80\x80Contact backup\xef\xbc\x88WhosCall Pro\xef\xbc\x89Google, phone, and SIM card contacts backup. Also preserves SMS and call logs.\xe2\x9c\x94\xe3\x80\x80Privacy status lookup\xef\xbc\x88WhosCall Pro\xef\xbc\x89Personal privacy status for users. Automatically notifies you when personal information is being shared on the web. Protects you from scamming and frauds!System requirements:(1) Android v2.1 or higher versions(2) Stable Internet access required for real-time lookup.(3) Use of 3rd party SMS apps might cause blocking failure.Facebook Page: facebook.com/WhosCallTwittier Page: twitter.com/WhosCall_APPKeywords\xef\xbc\x9aFree Reverse Number Lookup, WhosCalling, Fraud, Telemarketing, Strange Call, Unknown Call, Private Call, Call filter, Block, Blacklist, harassment, SMS block, keyword block, Who\xe2\x80\x99s Calling, Blacklist, Caller ID, Call Block, SMS Block, CirCall, mr. number, call blocker, caller App name adress city shows the true caller behind a number Callerid Caller see who is calling sehen wer anruft callername gelb WhitePages yellowpages Robocall, FTC, FCC, SMS spam, Unwanted call, Autodial, auto dialing, cold call,Recent changes:\xe2\x9c\x94 Missing call log fixed\xe2\x9c\x94 Block feature fixedIf you have any questions, please contact us through service email or fan page, we will prvide you with fast and immediate service.'
p4
tp5
tp6
.