((S'Title'
p0
S'WikEM - Emergency Medicine '
p1
tp2
(S'Description:'
p3
S"OverviewWikEM is a database of concise emergency medicine notes to assist physicians with their daily practice. Via wiki notes on http://www.wikem.org, WikEM features a continually available updated set of notes and checklists that allow for rapid reference of key information. WikEM is intended for clinicians only and not directly for patients. If there are some issues with downloading from the app market, you can alternatively find a link to the apk at wikem.orgRecent changes:3.3-improved search functionality-several link fixes3.1  -added 'surg' category to main page-several stability bug fixes3.01-now works on phones without SD-card (eg. Galaxy sii)"
p4
tp5
tp6
.