((S'Title'
p0
S'Wikipedia '
p1
tp2
(S'Description:'
p3
S'Official Wikipedia App for Android. Wikipedia is the free encyclopedia containing more than 20 million articles in 280 languages, and is the most comprehensive and widely used reference work humans have ever compiled.Features: Save article to read later or offline, Search articles nearby, Share articles using Android "Share" function, Read article in a different language, Full screen searchSend us your feedback on Twitter @WikimediaMobile.The code is 100% open source and community built. If you are a developer and good at JS/HTML5, then come fork us! https://github.com/wikimedia/WikipediaMobileRecent changes:New in 1.3.4* privacy policy & terms of use links in footerNew in 1.3.3* fix for some Android 2.2 devices (fallback to HTTP on 2.2)New in 1.3* Much faster page loading on slower connections* Styling fixes* Fixes for right-to-left languagesNew in 1.2* New look and feel for sections* Uses the API to load content, is faster* References show up in easy to use overlay* Pinch to zoom in the maps on ICS and Honeycomb* Style fixes for ICS phones* Better support for RTL languages'
p4
tp5
tp6
.