((S'Title'
p0
S'Willys+ '
p1
tp2
(S'Description:'
p3
S'Willys+ \xc3\xa4r appen f\xc3\xb6r dig som \xc3\xa4r Willys+kund! Med Willys+appen f\xc3\xa5r du information om veckans erbjudanden p\xc3\xa5 Willys och Willys Hemma r\xc3\xa4tt ner i fickan. Men inte bara det, Willys+appen \xc3\xa4r mer \xc3\xa4n s\xc3\xa5:ErbjudandenAlla veckans erbjudanden fr\xc3\xa5n din Willys- och Willys Hemma-butik r\xc3\xa4tt ner i fickan. Tydligt, enkelt och milj\xc3\xb6v\xc3\xa4nligt.Ink\xc3\xb6pslistorSkapa smidiga ink\xc3\xb6pslistor som du kan dela inom hush\xc3\xa5llet via pushmeddelanden. L\xc3\xa4gg enkelt till egna varor eller aktuella erbjudanden. Bocka av din lista medan du handlar i butiken. ButikerF\xc3\xa5 v\xc3\xa4gbeskrivning till n\xc3\xa4rmaste butik med hj\xc3\xa4lp av telefonens GPS. L\xc3\xa4gg till din favoritbutik f\xc3\xb6r att alltid vara uppdaterad p\xc3\xa5 vassa erbjudanden n\xc3\xa4ra dig.Mitt Willys+F\xc3\xb6lj upp alla dina k\xc3\xb6p p\xc3\xa5 Willys och Willys Hemma och se hur mycket du sparat med Willys+. L\xc3\xa4gg till meds\xc3\xb6kanden till ditt hush\xc3\xa5ll direkt i Willys+appen.Inte Willys+kund \xc3\xa4nnu?Willys+ \xc3\xa4r Willys med ett plus i kanten. N\xc3\xa4r du ansluter dig till Willys+ f\xc3\xa5r du fler och b\xc3\xa4ttre erbjudanden varje vecka i Willys och Willys Hemmas butiker. Det \xc3\xa4r helt gratis att bli Willys+kund. Anv\xc3\xa4nd Willys+appen f\xc3\xb6r att ansluta dig, d\xc3\xa4refter kan du direkt ta del av veckans Willys+erbjudanden \xe2\x80\x93 ingen v\xc3\xa4ntan p\xc3\xa5 ett klubbkort eller liknande. V\xc3\xa4lkommen!Willys+appen beh\xc3\xb6ver tillg\xc3\xa5ng till f\xc3\xb6ljande beh\xc3\xb6righeter i telefonen:- Din plats: F\xc3\xb6r att hitta n\xc3\xa4rmaste Willys- och Willys Hemma-butikerna.- Skicka SMS: Om du vill dela din ink\xc3\xb6pslista genom att skicka den som ett SMS.- N\xc3\xa4tverks\xc3\xa5tkomst: F\xc3\xb6r att h\xc3\xa4mta information fr\xc3\xa5n Willys ang\xc3\xa5ende allt som visas och hanteras i appen.- Hitta konton p\xc3\xa5 enheten: Delade ink\xc3\xb6pslistor anv\xc3\xa4nder sig av Googles push-notifieringar som i sin tur beh\xc3\xb6ver \xc3\xa5tkomst till ditt Google-konto.- F\xc3\xb6rhindra att telefonen s\xc3\xa4tts i vilol\xc3\xa4ge: F\xc3\xb6rhindrar att telefonen s\xc3\xa4tts i v\xc3\xa4ntel\xc3\xa4ge just n\xc3\xa4r en push-notifering (delade ink\xc3\xb6pslistor) tas emot.Google Analytics anv\xc3\xa4nds i appen f\xc3\xb6r att anonymt samla information om hur den anv\xc3\xa4nds. Ingen personlig information lagras.Recent changes:Willys+ v1.0.2: Detta \xc3\xa4r den f\xc3\xb6rsta versionen av Willys+appen. H\xc3\xa5ll \xc3\xb6gonen p\xc3\xa5 kommande uppdateringar med nya smarta funktioner.'
p4
tp5
tp6
.