((S'Title'
p0
S'WirelessMobileUtility '
p1
tp2
(S'Description:'
p3
S'The Wireless Mobile Utility creates two-way wireless connections between Nikon cameras and smart devices. Pictures taken with the camera can be downloaded to the smart device, and the camera can be controlled remotely, with the smart device displaying the view through the camera lens. The photo sharing feature makes it easy to upload pictures to social networking sites or attach them to e-mail messages.\xe2\x80\xa2OverviewUsing the Wireless Mobile Utility (the \xe2\x80\x9capp\xe2\x80\x9d), smart devices can connect to cameras equipped with built-in wireless or Nikon\xe2\x80\x99s wireless mobile adapter accessory, with no need for a wireless LAN router or access point. The app can be used to download high-quality images from the camera memory card, share pictures using the Android \xe2\x80\x9cShare\xe2\x80\x9d Intent, and take pictures remotely while the view through the lens is displayed on the smart device.\xe2\x80\xa2Principal Features\xe2\x80\x92Connections can easily be established with the smart device and cameras equipped with built-in wireless or a wireless mobile adapter.\xe2\x80\x92The camera clock can be automatically synchronized with the smart device.\xe2\x80\x92Pictures can be downloaded from the camera to smart device.\xe2\x80\x92The smart device can be used to view and download the pictures on the camera memory card.\xe2\x80\x92The Android \xe2\x80\x9cShare\xe2\x80\x9d Intent can be used to pass downloaded pictures to other apps for easy sharing.\xe2\x80\x92The view through the lens can be previewed on, and the shutter released from, the smart device. This feature is not available with Nikon 1 or COOLPIX cameras.\xe2\x80\x92A two-second self-timer is available.\xe2\x80\x92The smart device can control optical zoom on COOLPIX cameras.\xe2\x80\xa2Cautions\xe2\x80\x92The app can only be used with cameras equipped with built-in wireless or a WU-1a/WU-1b wireless mobile adapter (S800c excluded).\xe2\x80\x92Movies can not be recorded remotely.\xe2\x80\x92The app can be used to download movies to the smart device but not to play them back. The app may not display pictures taken with other cameras.\xe2\x80\x92When downloaded to the smart device, the photograph and movie portions of Motion Snapshots recorded with Nikon 1 cameras are treated as separate files.\xe2\x80\x92We recommend installing a memory card in the smart device.\xe2\x80\x92Ad hoc and Wi-Fi Direct wireless LAN modes are not supported.\xe2\x80\x92The app may not function as expected when installed on smart devices that have not been tested and approved for use.\xe2\x80\x92The display must have a resolution of at least 800 \xc3\x97 480 pixels (WVGA).\xe2\x80\x92Depending on the device used and on network and ambient conditions, frame delay and lag may occur during live view.\xe2\x80\x92In accord with wireless regulations, the wireless mobile adapter can be used only at a maximum range of approximately 10 m to 15 m (33 ft to 49 ft). Range may be affected by obstacles and signal conditions.\xe2\x80\xa2Using the AppFor more information, see the app manual, which can be downloaded from the following URL:http://nikonimglib.com/ManDL/WMAU/\xe2\x80\xa2Terms of UseBefore using the app, download and read the End User License Agreement, available at the following URL:http://nikonimglib.com/eula/WMAU/\xe2\x80\xa2Supported Digital Cameras (as of March 2013)D600, D3200, D5200, D7100Nikon 1 V2, J3, S1COOLPIX S6500, P520, S9500, S5200, AW110, AW110s, COOLPIX A, P330\xe2\x80\xa2Supported Devices (as of March 2013)The following smartphones are supported.(Android version):Samsung Galaxy S II LTE (4.0.4)Samsung Galaxy S III (4.0.4)Samsung Galaxy Nexus (4.1.1)Motorola Droid RAZA M (4.0.4)HTC J butterfly (4.1.1)HTC Desire HD (2.3.3)LG Optimus G (4.0.4)Sony Mobile Xperia AX (4.0.4)SHARP AQUOS PHONE ZETA (4.0.4)\xe2\x80\x92The following tablets are supported.(Android version):Samsung Galaxy note II (4.1.1)Samsung Galaxy Tab 10.1 LTE (4.0.4)AUS Nexus 7 (4.2)Acer iconiatab (3.0.1)\xe2\x80\xa2Trademark InformationAndroid, Google Play, and related logos are trademarks or registered trademarks of Google Inc. in the United States and/or other countries. All other trade names mentioned in this document are the trademarks or registered trademarks of their respective holders.Recent changes:- Support for COOLPIX AW110s.'
p4
tp5
tp6
.