((S'Title'
p0
S'WolframAlpha '
p1
tp2
(S'Description:'
p3
S"Remember the Star Trek computer? It's finally happening--with Wolfram|Alpha. Building on 25 years of development led by Stephen Wolfram, Wolfram|Alpha has rapidly become the world's definitive source for instant expert knowledge and computation.Across thousands of domains--with more continually added--Wolfram|Alpha uses its vast collection of algorithms and data to compute answers and generate reports for you.Parts of Wolfram|Alpha are used in the Apple Siri Assistant; this app gives you access to the full power of the Wolfram|Alpha computational knowledge engine. Domains covered by Wolfram|Alpha include:MATHEMATICSElementary MathNumbersPlottingAlgebraMatricesCalculusGeometryTrigonometryDiscrete MathNumber TheoryApplied MathLogic FunctionsDefinitionsSTATISTICS & DATA ANALYSISDescriptive StatisticsRegressionStatistical DistributionsProbabilityPHYSICSMechanicsElectricity & MagnetismOpticsThermodynamicsRelativityNuclear PhysicsQuantum PhysicsParticle PhysicsStatistical PhysicsAstrophysicsPhysical ConstantsCHEMISTRYElementsCompoundsIonsQuantitiesSolutionsReactionsChemical ThermodynamicsProtecting Groups MATERIALSAlloysMineralsCrystallographyPlasticsWoodsBulk MaterialsENGINEERINGAcousticsAeronauticsElectric CircuitsFluid MechanicsSteam TablesPsychrometricsRefrigerationStructuresASTRONOMYStar ChartsAstronomical EventsPlanetsMoonsMinor PlanetsCometsSpace WeatherStarsPulsarsGalaxiesStar ClustersNebulaeAstrophysicsEARTH SCIENCEGeologyGeochronologyGeodesyEarthquakesTide DataAtmosphereClimateLIFE SCIENCESAnimals & PlantsDinosaursDNA Sequence LookupSNPsProteinsHuman, Mouse & Fruit Fly GenomesMetabolic Pathways COMPUTATIONAL SCIENCESCellular AutomataSubstitution SystemsTuring MachinesComputational ComplexityAlgebraic CodesFractalsMathematicaImage Processing UNITS & MEASURESConversionsComparisonsDimensional AnalysisIndustrial MeasuresBatteriesBulk MaterialsPaintDATES & TIMESDate ComputationsTime ZonesCalendarsHolidaysGeological TimeWEATHERCurrent & Historical WeatherForecastsWind ChillHurricanesCloudsClimatePLACES & GEOGRAPHYMapsProjectionsGeodesyNavigationDistancesGeomagnetismGeocodingCountriesCitiesElevation DataOceansLakesRiversIslandsMountainsPEOPLE & HISTORYPeopleGenealogyNamesOccupationsPolitical LeadersHistorical Events, Periods & CountriesHistorical Numerals & MoneyCULTURE & MEDIABooksPeriodicalsMoviesVideo GamesFictional CharactersMythologyTelevision Networks & ProgramsAwardsMUSICMusical NotesIntervalsChordsScalesAudio WaveformsInstrumentsSongsWORDS & LINGUISTICSWord PropertiesDictionary LookupWord PuzzlesAnagramsLanguagesDocument LengthMorse CodeSoundexNumber NamesSPORTS & GAMESFootballBaseballOlympicsStadiumsLotteriesCard Games COLORSColor Names & SystemsColor AdditionTemperaturesWavelengths MONEY & FINANCEStock DataIndicesMutual FundsFuturesMortgagesPresent ValueCurrency ConversionTipsBondsDerivatives ValuationWagesSales Tax SOCIOECONOMIC DATADemographicsCountriesUS StatesUS CountiesCitiesEconomicsAgricultureEnergySalariesUnemploymentCost of LivingHealth CareHousingSocial StatisticsCrimeMilitaryReligion HEALTH & MEDICINEBody Measurements Growth ChartsExerciseDiseasesMortality DataMedical Test DataTeethVisionDrug DataHospitals FOOD & NUTRITIONFoodsDietaryReferencesEDUCATIONInternational EducationUniversitiesSchool DistrictsPublic SchoolsStandardized TestsORGANIZATIONSCompaniesHospitalsFoundationsInternational OrganizationsTRANSPORTATIONAirportsAirlinesAircraftFlight DataRoad TransportGasoline PricesBridgesTunnelsTidesTECHNOLOGICAL WORLDCommunicationsSatellitesSpace ProbesPhotographyBarcodesWEB & COMPUTER SYSTEMSWebsite DataIP LookupNotable ComputersData TransferPort NumberingString ProcessingHashingUnicode LookupRecent changes:- Bug fixes and keyboard update."
p4
tp5
tp6
.