((S'Title'
p0
S'Wunderlist - To-do & Task List '
p1
tp2
(S'Description:'
p3
S'Wunderlist is the easiest way to manage and share your daily to-do lists. Whether you\xe2\x80\x99re planning an overseas adventure, sharing a shopping list with a loved one, or simply keeping track of your daily to-dos, Wunderlist is here to help you get things done. Download now to see why more than 4 million people around the world love Wunderlist and have made it their daily companion. Wunderlist has been named as one of Lifehacker\xe2\x80\x99s \xe2\x80\x9cFive Best To-Do List Managers\xe2\x80\x9d, The Guardian\xe2\x80\x99s \xe2\x80\x9cBest Students Apps\xe2\x80\x9d and The Next Web\xe2\x80\x99s "10 Best Productivity Apps of 2010". AndroidCentral.com also wrote \xe2\x80\x9cWunderlist is a great solution for that ever present to-do list, especially if you use different devices throughout your day\xe2\x80\x9d.Features of Wunderlist \xe2\x80\xa2 Cloud Sync \xe2\x80\x93 All your data is automatically synced across all your devices \xe2\x80\xa2 Lists \xe2\x80\x93 Create and manage as many lists and to-dos as you want in one place \xe2\x80\xa2 Collaborate \xe2\x80\x93 Invite friends and colleagues to get involved \xe2\x80\xa2 Recurring To-Dos & Subtasks \xe2\x80\x93 Add all the important details \xe2\x80\xa2 Reminders \xe2\x80\x93 Never miss a deadline again \xe2\x80\xa2 Notes \xe2\x80\x93 Keep track of all your brilliant ideas \xe2\x80\xa2 Notifications \xe2\x80\x93 Push, email and in-app notifications let you track the progress of your projects \xe2\x80\xa2 Design \xe2\x80\x93 Wunderlist\xe2\x80\x99s beautifully simple design makes it downright easy and fun to use \xe2\x80\xa2 Sharing across apps - Directly add your to-dos to Wunderlist from a text message, or save a link to an article you want to read later.\xe2\x97\xa6 Wunderlist Pro \xe2\x80\x93 Now with brand-new features for teams and businesses \xe2\x97\xa6 Assigning \xe2\x80\x93 Delegate tasks to colleagues, friends and classmates and know who is responsible \xe2\x97\xa6 Unlimited Subtasks \xe2\x80\x93 Add as many subtasks as you need to get the job done fast and efficiently \xe2\x97\xa6 8 new backgrounds \xe2\x80\x93 Choose from eight new wonderful backgrounds to customize your Wunderlist Wunderlist is free to download and use. Wunderlist Pro adds the features mentioned above and is available through an auto-renewing subscription. Wunderlist Pro offers two subscription options: \xe2\x97\xa6 Wunderlist Pro monthly for $4.99 \xe2\x97\xa6 Wunderlist Pro annually for $49.99 Our Terms of Use: http://www.6wunderkinder.com/terms-of-use Our Privacy Policy: http://www.6wunderkinder.com/privacy-policy Here are some ideas on how to use Wunderlist in your daily life: \xe2\x80\xa2 Write down and organize your daily personal and professional to-dos \xe2\x80\xa2 Access and keep track of your lists on all your devices \xe2\x80\xa2 Work collaboratively on projects with classmates, friends and colleagues by inviting to your lists \xe2\x80\xa2 Plan your family vacation, note down spots you want to visit and things you need to pack \xe2\x80\xa2 Write your grocery shopping list and keep it in sync with your partner \xe2\x80\xa2 Curate a list of your all-time favorite movies with friends and plan a movie night \xe2\x80\xa2 Share a wish list with your family and friends and add hints where to buy To download Wunderlist for free on all your devices go to: http://www.6wunderkinder.com/wunderlist Stay in touch: Like us on Facebook: http://www.facebook.com/6Wunderkinder Follow us on Twitter: http://www.twitter.com/6Wunderkinder Support: Have any questions or feedback? Please get in touch with our support team at support.wunderlist.comRecent changes:2.1.0 \xe2\x80\xa2 Assign and delegate tasks to your workmates, classmates and friends (Pro) \xe2\x80\xa2 Create as many subtasks as you need to get the job done with Unlimited Subtasks (Pro) \xe2\x80\xa2 Select from one of eight new beautiful backgrounds (Pro) \xe2\x80\xa2 Email, sort and reorder all your to-dos with the new Action Bar \xe2\x80\xa2 Get a quick overview as to who created and completed a task with the Detail View \xe2\x80\xa2 Thanks to your feedback we have completed a host of bug fixes and performance improvements'
p4
tp5
tp6
.