((S'Title'
p0
S'Xperia\xc3\xa2\xe2\x80\x9e\xc2\xa2 Football Downloads '
p1
tp2
(S'Description:'
p3
S'The Xperia\xe2\x84\xa2 Football Downloads edition gives you access to exclusive football content. Get the best Xperia\xe2\x84\xa2 wallpapers and ringtones for your Xperia\xe2\x84\xa2 device from Sony.Recent changes:Now look and feel.New set of wallpapers.'
p4
tp5
tp6
.