((S'Title'
p0
S'XTRAKK\xc3\xa2\xe2\x80\x9e\xc2\xa2 GPS TRACKER '
p1
tp2
(S'Description:'
p3
S'YOU MUST FIRST CREATE A FREE GPSTRACKING ACCOUNT AT xtrakk.gpslogik.se/mobilesignup.aspx ELSE THE APP WONT WORK.The XTRAKK app from gpslogik.se is simply the easiest, yet most powerful and most elegant way to locate friends or co-workers in the world.Gpslogik xtrakk is a state-of-the-art tracker application for your iPhone that allows you to share your location with your family, friends or co-workers in real time. Using your iPhone\xe2\x80\x99s build-in GPS receiver GPSlogik xtrakk can locate your whereabouts, whether you are traveling by car, bike, on foot, boat, or horseback or using any other means of transportation, and share them instantaneously with your trusted friends. You may at any time view the real-time location of your friends or co-workers on a map.As a special feature the gpslogik xtrakk-application allows users to make on-the-fly changes to the current list of friends or co-workers able to view each others positions, thus makinggpslogik xtrakk app a powerful and flexible mapping tool useful to individuals as well as companies.Features:\xe2\x80\xa2See your friends\xe2\x80\x99 locations on a map in real-time\xe2\x80\xa2See mobile-workorders and make status changes to them \xe2\x80\xa2Create your FREE account with the phone\xe2\x80\xa2Send SOS message with your position\xe2\x80\xa2History, view path log on map.\xe2\x80\xa2Let your friends or colleuges follow you from any internet connected computer in real-time.\xe2\x80\xa2Determine whom you share your location with and make on the fly changes to these settings\xe2\x80\xa2Determine how frequently your location is updated and sharedLook at video here.http://www.youtube.com/watch?v=OhOqiX6hia4&feature=player_profilepageInstructions PDF http://www.gpslogik.se/Instruktion%20Android.pdfAs the number of people who work alone increases so does the security risk, this applies to a variety of positions from sales reps and engineers to housing officers and care workers. Any and all lone workers have one thing in common which is that they all will encounter threats to their safety at some point in their working career. GPSLogiks app care for lone workers by empowering your employees with the ability to send SOS message for assistance 24 hours a day seven days per week. Mobile workorders, your organization\xe2\x80\x99s assets are one of your most valued, expensive commodities making their proper maintenance, repair and upkeep critical to your organization\xe2\x80\x99s success. With GPS Logiks mobile technology, it\xe2\x80\x99s easier than ever for your remote workforce to collect, access and retrieve the data they need on the job to effectively and efficiently service your or customers assets. *DISCLAIMER* "Continued use of GPS running in the background can dramatically decrease battery life."'
p4
tp5
tp6
.