((S'Title'
p0
S'Yatse, the XBMC Remote '
p1
tp2
(S'Description:'
p3
S"Full featured XBMC Remote with Widgets.Take full control of your XBMC with complete library support and beautiful widgets, optimized for phones and tablets.Major functions:\xe2\x98\x85 Offline library synchronization. List your XBMC medias everywhere.\xe2\x98\x85 Modern and intuitive Holo interface\xe2\x98\x85 Support Multiple XMBC installation (And centralized Mysql database). Fast XBMC selection from widget or home.\xe2\x98\x85 XBMC Starter for Windows. Start XBMC directly from your remote, no need for additional Android application.\xe2\x98\x85 Multiple Widgets included for fast remote actions or now playing details.\xe2\x98\x85 Optimized for phones and tablets. Multiple configurable views to fit your needs.\xe2\x98\x85 Full support for Media Player Classic (MPC or MPC-HC) as an external player.\xe2\x98\x85 Pvr support.\xe2\x98\x85 Stream your videos to your Android device.\xe2\x98\x85 Send your Android medias to your Xbmc or UPnP / AirPlay device\xe2\x98\x85 Completely configurable to make Yatse fills all your needs.Features:\xe2\x9c\x94 DashClock Extension.\xe2\x9c\x94 Support all XBMC medias (Movies / Movie Sets / Music / Tv Shows / Music Videos / Pictures).\xe2\x9c\x94 Support for playlists and file listing (XBMC Sources / Addons).\xe2\x9c\x94 Support all XBMC remote commands from an optimized view or widgets.\xe2\x9c\x94 Can show Android notifications for currently playing medias.\xe2\x9c\x94 Support Android Lockscreen controls (ICS and up).\xe2\x9c\x94 Quickly find your medias with complete search. (Can also filter as you type).\xe2\x9c\x94 Order your media as you need.\xe2\x9c\x94 Toggle watched status of your medias.\xe2\x9c\x94 Detailed now playing views with direct selection of Subtitles or Audio streams.\xe2\x9c\x94 Support Android from 2.2 (Froyo) to 4.2 (Jelly Bean).\xe2\x9c\x94 Wake on Lan (WOL) support. (Long press the media center name in Home / Remote)\xe2\x9c\x94 Change your current Wallpaper to the currently playing media Fanart.\xe2\x9c\x94 Can use plugins for SMS / Call or Android notifications. (Can pause or mute your media on calls).\xe2\x9c\x94 Send media to XBMC from YouTube or Browser. (Support XBMC YouTube / Justin.tv / MyVideo.de / Dailymotion plugins)\xe2\x9c\x94 IMDB button when available to get more details on medias.\xe2\x9c\x94 Support Tv Shows posters and banners.\xe2\x9c\x94 Support resuming of medias.\xe2\x9c\x94 Optimized for speed even on older phones.\xe2\x9c\x94 Optimized for very low battery usage.\xe2\x9c\x94 Support themes with the unlocker.\xe2\x9c\x94 Api to control Xbmc / Yatse from other Android application.\xe2\x9c\x94 Translated in multiple languages (EN / FR / ES / DE / DA / PT_PT / PT_BR / IT / RU / HE / NL / PL / TR / KR / LT / FI).\xe2\x9c\x94 Contact me if you want to help translating to your language.And much more, just install and try.You can download the last version of XBMC from : http://www.xbmc.org/XBMC require some configuration to allow remote access. Please check the Wiki for detailed instructions.A complete Wiki is available on the website for help on installing and configuring this app.http://yatse.leetzone.org/redmine/projects/androidwidget/wikiPlease use the website for support or feature requests, as the comments on Play Store don't allow me to gather enough information or contact you.http://yatse.leetzone.org/redmine/projects/androidwidget/issuesThis free version has the same functionality as the unlocked one apart themes supports and streaming. (No Ads)Please consider buying the unlocker app if you want to support the developments.REMARKS: - This app only works with XBMC EDEN (11.x), FRODO (12.x) version or later. (Support for XBMC Gotham alphas)- The screenshots contains content \xc2\xa9 copyright Blender Foundation | www.sintel.org- The library presented in screenshots is based on fake medias and all images / posters are @ copyrighted by their respective owners.Recent changes:3.2.0* Unlocker : Send your android media to Xbmc or to UPnP / AirPlay devices* New : sort by last played for Tv Shows* New : Display songs ratings and sort by ratings* New : Additional command Play Disc* Streaming works on latest Gotham* Added Kr / Lt language* Bug corrections and optimizations   Don't forget to rate the app.If you like this, please buy the unlocker to support further developments.Remember : If you have problem / request please direct contact me via website."
p4
tp5
tp6
.