((S'Title'
p0
S'ZEDGE\xc3\xa2\xe2\x80\x9e\xc2\xa2 '
p1
tp2
(S'Description:'
p3
S'For years ZEDGE\xe2\x84\xa2 has been the most trusted and popular source of free ringtones and wallpapers in the world. 50 million people get more than 300 million free downloads from Zedge every month. ZEDGE\xe2\x80\x99s brand is synonymous with high quality, diversity, uniqueness and great fun.CNET Editors\xe2\x80\x99 rating: \xe2\x80\x9cOutstanding\xe2\x80\x9d\xe2\x80\x9cOverall, we think Zedge is a winner. It has a huge database of high-quality wallpaper, ringtones, and notification sounds, it\'s updated frequently, and it\'s incredibly simple to navigate.\xe2\x80\x9dIn this app you\xe2\x80\x99ll be able to seamlessly download free, high quality Ringtones, Notification Sounds, HD Wallpapers and Live Wallpapers optimized for your device. In addition, ZEDGE\xe2\x84\xa2 helps you find the best and noteworthy Games from Google Play.ZEDGE\xe2\x84\xa2 recently added a Games channel where you\xe2\x80\x99ll also find cool, relevant and excellent games that you haven\xe2\x80\x99t seen before.  ZEDGE\xe2\x84\xa2 makes sense of Google Play and suggests the games that are right for you.FEATURES\xe2\x80\xa2 Set ringtones, notification sounds, wallpapers and live wallpapers directly from the app.\xe2\x80\xa2 Find new games recommended just for you.\xe2\x80\xa2 Start the games from within the app.\xe2\x80\xa2 Supports default ringtone, contact ringtones, message tones, alarms, alerts and all types notifications.\xe2\x80\xa2 Manage and organize downloaded items in your Downloads tab.\xe2\x80\xa2 Setting for automatically changing wallpapers (auto change).\xe2\x80\xa2 Widget for switching wallpapers.\xe2\x80\xa2 A Game Launcher Widget that automatically collects your games into one customizable widget. No more need to look through all your apps to find a game.Millions of people have put their trust into ZEDGE\xe2\x84\xa2 and we want to keep it that way. Here\'s the background on why we ask for certain permissions:NETWORK COMMUNICATIONFULL INTERNET ACCESSWe need internet access to load content from our servers.YOUR PERSONAL INFORMATIONREAD CONTACT DATA and WRITE CONTACT DATAWe need these permissions in order to set contact ringtones in the app. Without this it\'s impossible to offer the "set as contact ringtone" feature which many of you appreciate. We DO NOT read, transfer, store or use any of your personal information or contact data. This permission has always been required - we did not add it recently.STORAGEMODIFY/DELETE USB STORAGE CONTENTS and MODIFY/DELETE SD CARD CONTENTSThis permission is required so you can store download from Zedge on your SD Card.NETWORK COMMUNICATIONVIEW NETWORK STATESince we are loading content from our servers you need to have an active network connection. This permission will allow us to see if you are connected or not.SET PREFERRED APPLICATIONSWe need this permission to allow you to select Zedge as your default ringtone picker.FAQ:Q: I\xe2\x80\x99m not able to find popular music ringtones or mp3 music on Zedge. Why?A: Zedge respects that commercial artists normally want money for their music and that they don\xe2\x80\x99t want to give it away for free. We respect that. Zedge is not about music BUT about huge amounts of unique and rare stuff made and shared by people and independent artists from all parts of the world.RINGTONE CATEGORIESAlternative, Blues, Bollywood, Children, Christian & Gospel, Classical, Comedy, Country, Dance, Electronica, Entertainment, Games, Hip Hop, Holiday, Jazz, Latin, Message, Tones, News & Politics, Other, Pets & Animals, Pop, R&B / Soul, Reggae, Rock, Sayings, Sound Effects, WorldWALLPAPER CATEGORIESAbstract, Anime, Auto & Vehicles, Babes, Bollywood, Comedy, Designs, Drawn / Cartoons, Entertainment, Games, Holiday / Occasions, Themes, Hunks, Logos, Love, Music, Nature / Landscape, News & Politics, Other, People, Pets & Animals, Signs & Sayings, Spiritual, Sport, TechnologyTAGSwallpapers, hd wallpapers, live wallpapers, games, social games, backgrounds, background images, hd, theme, ringtones, ring tones, hd, contact ringtones, message tones, notification sounds, notifications, alarm sounds, alarms, alert sounds, alerts, tone, tones, sounds.Recent changes:NEW IN ZEDGE v3.4 and v3.4.1A Game Launcher Widget that automatically collects your games into one customizable widget. No more need to look through all your apps to find a game. Enjoy!We\xe2\x80\x99ve also fixed some more bugs related to certain devices.Note: READ/WRITE CONTACTS is required to set a ringtone to a contact in your address book. This permission has always been required, and we do not read/store your contacts data. More info in the description.'
p4
tp5
tp6
.