((S'Title'
p0
S'Zen Garden -Fall- [FL ver.] '
p1
tp2
(S'Description:'
p3
S'Please enjoy beautiful autumn in the Japanese garden where you can feel "ZEN".Just looking at the garden of autumn visible from the Japanese-style room with dignity will heal your mind.by uistore.net\xe2\x98\x85You can choose a background from the forest and the bamboo forest of autumn. (Only Full version) \xe2\x98\x85You can choose the open/unopened shoji. (Only Full version).\xe2\x98\x85You can choose time zone. (Only Full version) \xe2\x98\x85The light reacts to the tap if you choose the night time. (Only Full version)\xe2\x80\xbbYou can purchase a full version  from Zen Garden -Fall- Live Wallpaper setting screen. \xe2\x98\x85It corresponds to a horizontal screen.\xe2\x80\xbbSetting method:home screen\xef\xbc\x9emenu\xef\xbc\x9eWallpaper\xef\xbc\x9eLive Wallpaper\xe2\x80\xbbPlease enjoy a free trial period for two days. \xe2\x80\xbbAccording to memory conditions,it may not be able to set normally. In that case, please restart your portable terminal and set it again.\xe2\x80\xbbIf you exit live wallpaper,it may not be able to exit normally by using task end application program such as task killer. Please exit it after setting other live wallpapers.\xe2\x80\xbbWhen not normally working by updating it, it improves it when doing by reinstalling it after uninstalling it.\xe2\x80\xbbWhen updating it with setting the wallpaper, the screen may turn black in the case of OS2.1.You can set it correctly by resetting after setting other live wall papers. It\'s a feature for OS, and it contains improved OS2.2.\xe3\x80\x90New function addition! Live wall papers and themes are all you can use!\xe3\x80\x91Live wallpapers and themes are all you can use when registering to the monthly member\xef\xbc\x81Let\'s customize with live wallpapers and themes!\xe2\x96\xa0What is monthly membership?It is profitable limitlessly usable service of live wallpapers and the themes that uistore delivers for a monthly fee.\xe3\x83\xbbContents for the monthly will be addied one after another.\xe2\x80\xbbA part of contents is excluded.It is necessary to download home application "Final Launcher" for the monthly member registration.\xe3\x83\xbb Final Launcher download URLhttps://play.google.com/store/apps/details?id=uistore.fieldsystem.final_launcher\xe3\x83\xbbCompatible models: Android 2.3.3 over\xe2\x96\xa0Monthly member registration method\xef\xbd\xa5You can register from "Monthly member" in Home setting after pressing the menu button of Final Launcher.\xef\xbd\xa5You can register from the advertisement displayed on the home screen of live wallpaper of free version for the monthly member.\xe2\x80\xbbIf you have uninstalled the Final launcher during the monthly member, all live wallpapers you had installed will automatically be turned to limited version.\xe2\x80\xbbThe use of full version of live wallpaper and the theme by the monthly member registration operates only by "Final Launcher".Please note that other home applications return to the limitation version.Recent changes:--2013/3/25Up Ver1.2\xe3\x80\x80\xe3\x83\xbbCorrection of a program--2013/3/7Up Ver1.1\xe3\x80\x80\xe3\x83\xbbCorrection of a program'
p4
tp5
tp6
.