((S'Title'
p0
S'Zinio: 5000+ Digital Magazines '
p1
tp2
(S'Description:'
p3
S'Browse thousands of digital magazines from around the world in a newsstand with the largest selection, or read fresh articles daily for free. The best in news, politics, technology, art, style, travel and more, Zinio connects you with the stories that shape history from the magazines that matter to you. \xe2\x98\x85 READ new magazines the moment they arrive, and sync your magazine library offline and across all your devices.\xe2\x98\x85 EXPLORE articles to preview magazines or discover great stories from your favorite magazines worldwide.\xe2\x98\x85 SHOP our global newsstand, with great values on magazine subscriptions and single issues. OTHER KEY FEATURES:- Read new free magazine articles every day - Get library updates via Push, and instantly sync your library across all your devices- Connect with Facebook and share what you read- Read magazines offline and on the go- Browse more on the web, shop for products or view interactive features and rich media from select titles and issuesSOME RECOGNITION:- 148Apps BestAppEver Awards "Best iOS Magazine App" \xe2\x80\x93 2013- TechCrunch \xe2\x80\x9c20 Best IOS and Android App\xe2\x80\x9d \xe2\x80\x93 2012- iTunes \xe2\x80\x9cApp Store Best of: Top Grossing\xe2\x80\x9d \xe2\x80\x93  2011, 2012 - Lead411 "Hottest San Francisco Companies" \xe2\x80\x93 2012, 2013- IMA \xe2\x80\x9cBest Global App Award\xe2\x80\x9d \xe2\x80\x93 2011, 2012WHAT OTHERS ARE SAYING:\xe2\x80\x9cTo see magazines done correctly look at Zinio\xe2\x80\x9d \xe2\x80\x94 Huffington Post\xe2\x80\xa8\xe2\x80\x9cIf you\'re a magazine devourer, this is your app.\xe2\x80\x9d \xe2\x80\x94 PCMag.com\xe2\x80\xa8\xe2\x80\x9cThe iPad newsstand that works\xe2\x80\x9d \xe2\x80\x94 Fortune.com\xe2\x80\xa8\xe2\x80\x9cZinio is to magazines what Kindle is to books\xe2\x80\x9d \xe2\x80\x94 Engadget.com\xe2\x80\xa8\xe2\x80\x9cZinio editions on the iPad are terrific\xe2\x80\x9d \xe2\x80\x94 Salon.comTRENDING ON THE NEWSSTAND:NEW ADDITIONS \xe2\x80\x94 Wired, Vanity Fair, Fast Company, The Atlantic, Architectural Digest, Wine SpectatorBUSINESS & NEWS \xe2\x80\x94 Forbes, Bloomberg BusinessWeek, Economist, Harvard Business ReviewFOR MEN \xe2\x80\x94 Maxim, Esquire, Playboy, Car & Driver, Men\xe2\x80\x99s Fitness, Outside STYLE \xe2\x80\x94 Vogue, Elle, Marie Claire, Nylon, Harper\xe2\x80\x99s Bazaar, BlackBook, CosmopolitanLIFESYTYLE \xe2\x80\x94 Saveur, Oprah, Dwell, Wine EnthusiastTECH \xe2\x80\x94 T3, Macworld, PC World, PC Gamer, X-Box WorldSCIENCE \xe2\x80\x94 National Geographic, The Smithsonian, New Scientist, Science INTERNATIONAL \xe2\x80\x94 Vogue France, Esquire UK, Hola, GQ JapanLOVE READING ON ZINIO? Tell us on Facebook: www.facebook.com/zinio or follow us on Twitter: www.twitter.com/zinio. PLEASE NOTE: We are unable to support device configurations resulting from rooting a device.Recent changes:- Stability and Performance Improvements'
p4
tp5
tp6
.