((S'Title'
p0
S'ZON@Fon '
p1
tp2
(S'Description:'
p3
S'Com a App ZON@Fon j\xc3\xa1 pode fazer o login autom\xc3\xa1tico a partir do seu smartphone ou tablet sempre que se aproxime de um Hotspot ZON@Fon \xe2\x80\x93 mais de 500 mil hotspots em Portugal e mais de 7 milh\xc3\xb5es no mundo inteiro.--------------------------------------------- Quais as funcionalidades?--------------------------------------------- \xe2\x80\xa2 Guardar o seu user e password ZON@Fon;\xe2\x80\xa2 Ligar-se automaticamente sempre que est\xc3\xa1 perto de um hotspot ZON@Fon;\xe2\x80\xa2 Mapa com localiza\xc3\xa7\xc3\xa3o de hotpots;\xe2\x80\xa2 Possibilidade de ativar um alerta sonoro ou vibrat\xc3\xb3rio para notificar o login;\xe2\x80\xa2 Informa\xc3\xa7\xc3\xa3o e FAQs sobre o servi\xc3\xa7o e hotspots ZON@Fon.--------------------------------------------- Como come\xc3\xa7ar a usar?--------------------------------------------- Na primeira utiliza\xc3\xa7\xc3\xa3o ser\xc3\xa1 pedido para que escreva o username e password ZON@Fon. Ap\xc3\xb3s introduzir os dados de login, clique em guardar/save para a aplica\xc3\xa7\xc3\xa3o procurar um rede wifi ZON@Fon para come\xc3\xa7ar a navegar na internet.Se \xc3\xa9 cliente ZON e ainda n\xc3\xa3o tem o servi\xc3\xa7o ZON@Fon ativo, basta entrar em zon.pt/myzon e seguir os passos:\xe2\x80\xa2 Clicar em Servi\xc3\xa7os > Servi\xc3\xa7os Adicionais > NET\xe2\x80\xa2 Selecione o servi\xc3\xa7o ZON@Fon e registe o seu userMais detalhes em zon.pt/zonfonSe n\xc3\xa3o \xc3\xa9 cliente ZON, pode adquirir um passe para navegar nos hotspots ZON@Fon. Basta ligar-se diretamente a um hotspot ZON@Fon e na p\xc3\xa1gina de entrada escolha o passe que melhor se adequa \xc3\xa0 sua necessidade. Poder\xc3\xa1, posteriormente, ligar-se automaticamente com a App da ZON@Fon.--------------------------------------------- Outras funcionalidades--------------------------------------------- Auto conectar \xe2\x80\x93 Possibilidade de escolher se a App deve conectar-se automaticamente ou n\xc3\xa3o, sempre que encontre uma rede wifi ZON@Fon. Habilitar notifica\xc3\xa7\xc3\xb5es \xe2\x80\x93 Possibilidade de escolher se a App deve mostrar notifica\xc3\xa7\xc3\xb5es sempre que se conectar a uma rede wifi ZON@Fon.Toque \xe2\x80\x93 Permite escolher um toque para as notifica\xc3\xa7\xc3\xb5es.Vibrar \xe2\x80\x93 Permite escolher se o equipamento vibra quando conectado a uma rede wifi ZON@Fon.Sil\xc3\xaancio \xe2\x80\x93 Possibilidade de silenciar os alertas de notifica\xc3\xa7\xc3\xb5es quando se conectar a uma rede wifi ZON@fon.--------------------------------------------- Quais os requisitos?--------------------------------------------- -Android 2.2.x ou superior-Liga\xc3\xa7\xc3\xa3o WiFi (com acesso \xc3\xa0 internet)'
p4
tp5
tp6
.